

Microchip MPLAB XC8 Assembler V2.40 build 20220703182018 
                                                                                               Sun Jan 01 15:05:26 2023

Microchip MPLAB XC8 C Compiler v2.40 (Free license) build 20220703182018 Og1 
     1                           	processor	18F4550
     2                           	fnconf	rparam,??,?,0
     3                           	pagewidth 120
     4                           	opt	flic
     5                           	psect	idataBANK0,global,class=CODE,delta=1,noexec
     6                           	psect	nvBANK0,global,class=BANK0,space=1,delta=1,lowdata,noexec
     7                           	psect	smallconst,global,reloc=2,class=SMALLCONST,delta=1,noexec
     8                           	psect	cinit,global,reloc=2,class=CODE,delta=1
     9                           	psect	bssCOMRAM,global,class=COMRAM,space=1,delta=1,lowdata,noexec
    10                           	psect	bssBANK0,global,class=BANK0,space=1,delta=1,lowdata,noexec
    11                           	psect	dataBANK0,global,class=BANK0,space=1,delta=1,lowdata,noexec
    12                           	psect	bssBANK1,global,class=BANK1,space=1,delta=1,lowdata,noexec
    13                           	psect	cstackBANK0,global,class=BANK0,space=1,delta=1,lowdata,noexec
    14                           	psect	cstackCOMRAM,global,class=COMRAM,space=1,delta=1,lowdata,noexec
    15                           	psect	text0,global,reloc=2,class=CODE,delta=1
    16                           	psect	text1,global,reloc=2,class=CODE,delta=1
    17                           	psect	text2,global,reloc=2,class=CODE,delta=1,group=2
    18                           	psect	text3,global,reloc=2,class=CODE,delta=1,group=2
    19                           	psect	text4,global,reloc=2,class=CODE,delta=1,group=2
    20                           	psect	text5,global,reloc=2,class=CODE,delta=1,group=2
    21                           	psect	text6,global,reloc=2,class=CODE,delta=1,group=2
    22                           	psect	text7,global,reloc=2,class=CODE,delta=1,group=2
    23                           	psect	text8,global,reloc=2,class=CODE,delta=1
    24                           	psect	text9,global,reloc=2,class=CODE,delta=1
    25                           	psect	text10,global,reloc=2,class=CODE,delta=1
    26                           	psect	text11,global,reloc=2,class=CODE,delta=1
    27                           	psect	text12,global,reloc=2,class=CODE,delta=1
    28                           	psect	text13,global,reloc=2,class=CODE,delta=1,group=3
    29                           	psect	text14,global,reloc=2,class=CODE,delta=1,group=1
    30                           	psect	text15,global,reloc=2,class=CODE,delta=1,group=1
    31                           	psect	text16,global,reloc=2,class=CODE,delta=1,group=1
    32                           	psect	text17,global,reloc=2,class=CODE,delta=1,group=1
    33                           	psect	text18,global,reloc=2,class=CODE,delta=1,group=1
    34                           	psect	text19,global,reloc=2,class=CODE,delta=1,group=3
    35                           	psect	text20,global,reloc=2,class=CODE,delta=1,group=3
    36                           	psect	text21,global,reloc=2,class=CODE,delta=1,group=3
    37                           	psect	text22,global,reloc=2,class=CODE,delta=1,group=3
    38                           	psect	text23,global,reloc=2,class=CODE,delta=1,group=2
    39                           	psect	text24,global,reloc=2,class=CODE,delta=1,group=2
    40                           	psect	text25,global,reloc=2,class=CODE,delta=1
    41                           	psect	text26,global,reloc=2,class=CODE,delta=1
    42                           	psect	text27,global,reloc=2,class=CODE,delta=1
    43                           	psect	text28,global,reloc=2,class=CODE,delta=1
    44                           	psect	text29,global,reloc=2,class=CODE,delta=1
    45                           	psect	text30,global,reloc=2,class=CODE,delta=1
    46                           	psect	text31,global,reloc=2,class=CODE,delta=1
    47                           	psect	text32,global,reloc=2,class=CODE,delta=1
    48                           	psect	text33,global,reloc=2,class=CODE,delta=1
    49                           	psect	text34,global,reloc=2,class=CODE,delta=1
    50                           	psect	text35,global,reloc=2,class=CODE,delta=1
    51                           	psect	text36,global,reloc=2,class=CODE,delta=1
    52                           	psect	text37,global,reloc=2,class=CODE,delta=1,group=2
    53                           	psect	text38,global,reloc=2,class=CODE,delta=1,group=2
    54                           	psect	text39,global,reloc=2,class=CODE,delta=1
    55                           	psect	text40,global,reloc=2,class=CODE,delta=1
    56                           	psect	text41,global,reloc=2,class=CODE,delta=1
    57                           	psect	text42,global,reloc=2,class=CODE,delta=1
    58                           	psect	text43,global,reloc=2,class=CODE,delta=1
    59                           	psect	text44,global,reloc=2,class=CODE,delta=1
    60                           	psect	text45,global,reloc=2,class=CODE,delta=1
    61                           	psect	text46,global,reloc=2,class=CODE,delta=1
    62                           	psect	text47,global,reloc=2,class=CODE,delta=1
    63                           	psect	text48,global,reloc=2,class=CODE,delta=1
    64                           	psect	text49,global,reloc=2,class=CODE,delta=1
    65                           	psect	text50,global,reloc=2,class=CODE,delta=1
    66                           	psect	text51,global,reloc=2,class=CODE,delta=1
    67                           	psect	text52,global,reloc=2,class=CODE,delta=1,group=2
    68                           	psect	text53,global,reloc=2,class=CODE,delta=1
    69                           	psect	text54,global,reloc=2,class=CODE,delta=1
    70                           	psect	text55,global,reloc=2,class=CODE,delta=1
    71                           	psect	intcode,global,reloc=2,class=CODE,delta=1
    72                           	psect	intcode_body,global,reloc=2,class=CODE,delta=1
    73                           	psect	intsave_regs,global,class=BIGRAM,space=1,delta=1,noexec
    74                           	psect	rparam,global,class=COMRAM,space=1,delta=1,noexec
    75                           	psect	temp,global,ovrld,common,class=COMRAM,space=1,delta=1
    76                           	psect	idloc,global,abs,ovrld,class=IDLOC,space=5,delta=1,noexec
    77                           	psect	config,global,abs,ovrld,class=CONFIG,space=4,delta=1,noexec
    78   000000                     
    79                           ; Version 2.40
    80                           ; Generated 17/11/2021 GMT
    81                           ; 
    82                           ; Copyright © 2021, Microchip Technology Inc. and its subsidiaries ("Microchip")
    83                           ; All rights reserved.
    84                           ; 
    85                           ; This software is developed by Microchip Technology Inc. and its subsidiaries ("Microch
      +                          ip").
    86                           ; 
    87                           ; Redistribution and use in source and binary forms, with or without modification, are
    88                           ; permitted provided that the following conditions are met:
    89                           ; 
    90                           ;     1. Redistributions of source code must retain the above copyright notice, this lis
      +                          t of
    91                           ;        conditions and the following disclaimer.
    92                           ; 
    93                           ;     2. Redistributions in binary form must reproduce the above copyright notice, this 
      +                          list
    94                           ;        of conditions and the following disclaimer in the documentation and/or other
    95                           ;        materials provided with the distribution. Publication is not required when
    96                           ;        this file is used in an embedded application.
    97                           ; 
    98                           ;     3. Microchip's name may not be used to endorse or promote products derived from th
      +                          is
    99                           ;        software without specific prior written permission.
   100                           ; 
   101                           ; THIS SOFTWARE IS PROVIDED BY MICROCHIP "AS IS" AND ANY EXPRESS OR IMPLIED WARRANTIES,
   102                           ; INCLUDING, BUT NOT LIMITED TO, THE IMPLIED WARRANTIES OF MERCHANTABILITY AND FITNESS F
      +                          OR
   103                           ; PURPOSE ARE DISCLAIMED.  IN NO EVENT SHALL MICROCHIP BE LIABLE FOR ANY DIRECT, INDIREC
      +                          T,
   104                           ; INCIDENTAL, SPECIAL, EXEMPLARY, OR CONSEQUENTIAL DAMAGES (INCLUDING BUT NOT LIMITED TO
   105                           ; PROCUREMENT OF SUBSTITUTE GOODS OR SERVICES; LOSS OF USE, DATA OR PROFITS; OR BUSINESS
   106                           ; INTERRUPTION) HOWSOEVER CAUSED AND ON ANY THEORY OF LIABILITY, WHETHER IN CONTRACT, ST
      +                          RICT
   107                           ; LIABILITY, OR TORT (INCLUDING NEGLIGENCE OR OTHERWISE) ARISING IN ANY WAY OUT OF THE U
      +                          SE OF
   108                           ; THIS SOFTWARE, EVEN IF ADVISED OF THE POSSIBILITY OF SUCH DAMAGE.
   109                           ; 
   110                           ; 
   111                           ; Code-generator required, PIC18F4550 Definitions
   112                           ; 
   113                           ; SFR Addresses
   114   000000                     
   115                           	psect	idataBANK0
   116   00461C                     __pidataBANK0:
   117                           	callstack 0
   118                           
   119                           ;initializer for _RTC
   120   00461C  B2                 	db	low _rtc
   121   00461D  00                 	db	high _rtc
   122                           
   123                           ;initializer for _time1
   124   00461E  30                 	db	48
   125   00461F  30                 	db	48
   126   004620  3A                 	db	58
   127   004621  30                 	db	48
   128   004622  30                 	db	48
   129   004623  3A                 	db	58
   130   004624  30                 	db	48
   131   004625  30                 	db	48
   132   004626  30                 	db	48
   133   004627  30                 	db	48
   134   004628  3A                 	db	58
   135   004629  30                 	db	48
   136   00462A  30                 	db	48
   137   00462B  3A                 	db	58
   138   00462C  30                 	db	48
   139   00462D  30                 	db	48
   140   00462E  30                 	db	48
   141   00462F  30                 	db	48
   142   004630  3A                 	db	58
   143   004631  30                 	db	48
   144   004632  30                 	db	48
   145   004633  3A                 	db	58
   146   004634  30                 	db	48
   147   004635  30                 	db	48
   148   004636  30                 	db	48
   149   004637  30                 	db	48
   150   004638  3A                 	db	58
   151   004639  30                 	db	48
   152   00463A  30                 	db	48
   153   00463B  3A                 	db	58
   154   00463C  30                 	db	48
   155   00463D  30                 	db	48
   156   000000                     _TXREG	set	4013
   157   000000                     _EECON2	set	4007
   158   000000                     _SSPADD	set	4040
   159   000000                     _SSPCON1	set	4038
   160   000000                     _SSPBUF	set	4041
   161   000000                     _SSPSTATbits	set	4039
   162   000000                     _TRISC6	set	31910
   163                           
   164                           	psect	nvBANK0
   165   0000F7                     __pnvBANK0:
   166                           	callstack 0
   167   0000F7                     _Screen_Num:
   168                           	callstack 0
   169   0000F7                     	ds	1
   170   000000                     _RCSTAbits	set	4011
   171   000000                     _RCSTA	set	4011
   172   000000                     _TXSTA	set	4012
   173   000000                     _SSPCON2bits	set	4037
   174   000000                     _SSPCON2	set	4037
   175   000000                     _SSPSTAT	set	4039
   176   000000                     _PEIE	set	32662
   177   000000                     _GIE	set	32663
   178   000000                     _TXIF	set	31988
   179   000000                     _TXEN	set	32101
   180   000000                     _CREN	set	32092
   181   000000                     _BRGH	set	32098
   182   000000                     _TRISC7	set	31911
   183   000000                     _RCIF	set	31989
   184   000000                     _ACKEN	set	32300
   185   000000                     _ACKDT	set	32301
   186   000000                     _PEN	set	32298
   187   000000                     _RSEN	set	32297
   188   000000                     _ACKSTAT	set	32302
   189   000000                     _TRISB1	set	31897
   190   000000                     _TRISB0	set	31896
   191   000000                     _PORTB	set	3969
   192   000000                     _PORTD	set	3971
   193   000000                     _TRISB	set	3987
   194   000000                     _TRISD	set	3989
   195   000000                     _RCIE	set	31981
   196   000000                     _SSPIF	set	31987
   197   000000                     _RCEN	set	32299
   198   000000                     _INTCONbits	set	4082
   199   000000                     _PIR2bits	set	4001
   200   000000                     _EECON1bits	set	4006
   201   000000                     _EEDATA	set	4008
   202   000000                     _EEADR	set	4009
   203   000000                     _RCREG	set	4014
   204   000000                     _SPBRG	set	4015
   205   000000                     _SPEN	set	32095
   206   000000                     _SYNC	set	32100
   207                           
   208                           	psect	smallconst
   209   000800                     __psmallconst:
   210                           	callstack 0
   211   000800  00                 	db	0
   212   000801                     STR_7:
   213   000801  44                 	db	68	;'D'
   214   000802  61                 	db	97	;'a'
   215   000803  74                 	db	116	;'t'
   216   000804  65                 	db	101	;'e'
   217   000805  3A                 	db	58	;':'
   218   000806  20                 	db	32
   219   000807  30                 	db	48	;'0'
   220   000808  25                 	db	37
   221   000809  78                 	db	120	;'x'
   222   00080A  2D                 	db	45
   223   00080B  00                 	db	0
   224   00080C                     STR_5:
   225   00080C  54                 	db	84	;'T'
   226   00080D  69                 	db	105	;'i'
   227   00080E  6D                 	db	109	;'m'
   228   00080F  65                 	db	101	;'e'
   229   000810  3A                 	db	58	;':'
   230   000811  20                 	db	32
   231   000812  30                 	db	48	;'0'
   232   000813  25                 	db	37
   233   000814  64                 	db	100	;'d'
   234   000815  3A                 	db	58	;':'
   235   000816  00                 	db	0
   236   000817                     STR_8:
   237   000817  44                 	db	68	;'D'
   238   000818  61                 	db	97	;'a'
   239   000819  74                 	db	116	;'t'
   240   00081A  65                 	db	101	;'e'
   241   00081B  3A                 	db	58	;':'
   242   00081C  20                 	db	32
   243   00081D  25                 	db	37
   244   00081E  78                 	db	120	;'x'
   245   00081F  2D                 	db	45
   246   000820  00                 	db	0
   247   000821                     STR_6:
   248   000821  54                 	db	84	;'T'
   249   000822  69                 	db	105	;'i'
   250   000823  6D                 	db	109	;'m'
   251   000824  65                 	db	101	;'e'
   252   000825  3A                 	db	58	;':'
   253   000826  20                 	db	32
   254   000827  25                 	db	37
   255   000828  64                 	db	100	;'d'
   256   000829  3A                 	db	58	;':'
   257   00082A  00                 	db	0
   258   00082B                     STR_12:
   259   00082B  53                 	db	83	;'S'
   260   00082C  74                 	db	116	;'t'
   261   00082D  61                 	db	97	;'a'
   262   00082E  72                 	db	114	;'r'
   263   00082F  74                 	db	116	;'t'
   264   000830  31                 	db	49	;'1'
   265   000831  3A                 	db	58	;':'
   266   000832  20                 	db	32
   267   000833  00                 	db	0
   268   000834                     STR_14:
   269   000834  53                 	db	83	;'S'
   270   000835  74                 	db	116	;'t'
   271   000836  61                 	db	97	;'a'
   272   000837  72                 	db	114	;'r'
   273   000838  74                 	db	116	;'t'
   274   000839  32                 	db	50	;'2'
   275   00083A  3A                 	db	58	;':'
   276   00083B  20                 	db	32
   277   00083C  00                 	db	0
   278   00083D                     STR_13:
   279   00083D  46                 	db	70	;'F'
   280   00083E  69                 	db	105	;'i'
   281   00083F  6E                 	db	110	;'n'
   282   000840  69                 	db	105	;'i'
   283   000841  73                 	db	115	;'s'
   284   000842  68                 	db	104	;'h'
   285   000843  3A                 	db	58	;':'
   286   000844  20                 	db	32
   287   000845  00                 	db	0
   288   000846                     STR_1:
   289   000846  30                 	db	48	;'0'
   290   000847  25                 	db	37
   291   000848  64                 	db	100	;'d'
   292   000849  20                 	db	32
   293   00084A  00                 	db	0
   294   00084B                     STR_11:
   295   00084B  25                 	db	37
   296   00084C  78                 	db	120	;'x'
   297   00084D  20                 	db	32
   298   00084E  00                 	db	0
   299   00084F  00                 	db	0	; dummy byte at the end
   300   000000                     
   301                           ; #config settings
   302                           
   303                           	psect	cinit
   304   00440A                     __pcinit:
   305                           	callstack 0
   306   00440A                     start_initialization:
   307                           	callstack 0
   308   00440A                     __initialization:
   309                           	callstack 0
   310                           
   311                           ; Initialize objects allocated to BANK0 (34 bytes)
   312                           ; load TBLPTR registers with __pidataBANK0
   313   00440A  0E1C               	movlw	low __pidataBANK0
   314   00440C  6EF6               	movwf	tblptrl,c
   315   00440E  0E46               	movlw	high __pidataBANK0
   316   004410  6EF7               	movwf	tblptrh,c
   317   004412  0E00               	movlw	low (__pidataBANK0 shr (0+16))
   318   004414  6EF8               	movwf	tblptru,c
   319   004416  EE00  F0BD         	lfsr	0,__pdataBANK0
   320   00441A  EE10 F022          	lfsr	1,34
   321   00441E                     copy_data0:
   322   00441E  0009               	tblrd		*+
   323   004420  CFF5 FFEE          	movff	tablat,postinc0
   324   004424  50E5               	movf	postdec1,w,c
   325   004426  50E1               	movf	fsr1l,w,c
   326   004428  E1FA               	bnz	copy_data0
   327                           
   328                           ; Clear objects allocated to BANK1 (72 bytes)
   329   00442A  EE01  F000         	lfsr	0,__pbssBANK1
   330   00442E  0E48               	movlw	72
   331   004430                     clear_0:
   332   004430  6AEE               	clrf	postinc0,c
   333   004432  06E8               	decf	wreg,f,c
   334   004434  E1FD               	bnz	clear_0
   335                           
   336                           ; Clear objects allocated to BANK0 (93 bytes)
   337   004436  EE00  F060         	lfsr	0,__pbssBANK0
   338   00443A  0E5D               	movlw	93
   339   00443C                     clear_1:
   340   00443C  6AEE               	clrf	postinc0,c
   341   00443E  06E8               	decf	wreg,f,c
   342   004440  E1FD               	bnz	clear_1
   343                           
   344                           ; Clear objects allocated to COMRAM (1 bytes)
   345   004442  6A5E               	clrf	__pbssCOMRAM& (0+255),c
   346   004444                     end_of_initialization:
   347                           	callstack 0
   348   004444                     __end_of__initialization:
   349                           	callstack 0
   350   004444  905F               	bcf	int$flags,0,c	;clear compiler interrupt flag (level 1)
   351   004446  925F               	bcf	int$flags,1,c	;clear compiler interrupt flag (level 2)
   352   004448  0E00               	movlw	low (__Lmediumconst shr (0+16))
   353   00444A  6EF8               	movwf	tblptru,c
   354   00444C  0100               	movlb	0
   355   00444E  EF45  F009         	goto	_main	;jump to C main() function
   356                           
   357                           	psect	bssCOMRAM
   358   00005E                     __pbssCOMRAM:
   359                           	callstack 0
   360   00005E                     _flags:
   361                           	callstack 0
   362   00005E                     	ds	1
   363                           
   364                           	psect	bssBANK0
   365   000060                     __pbssBANK0:
   366                           	callstack 0
   367   000060                     _total2:
   368                           	callstack 0
   369   000060                     	ds	16
   370   000070                     _total1:
   371                           	callstack 0
   372   000070                     	ds	16
   373   000080                     _mask:
   374                           	callstack 0
   375   000080                     	ds	4
   376   000084                     _total:
   377                           	callstack 0
   378   000084                     	ds	4
   379   000088                     _sec2:
   380                           	callstack 0
   381   000088                     	ds	4
   382   00008C                     _min2:
   383                           	callstack 0
   384   00008C                     	ds	4
   385   000090                     _width:
   386                           	callstack 0
   387   000090                     	ds	2
   388   000092                     _prec:
   389                           	callstack 0
   390   000092                     	ds	2
   391   000094                     _Place4:
   392                           	callstack 0
   393   000094                     	ds	2
   394   000096                     _Place3:
   395                           	callstack 0
   396   000096                     	ds	2
   397   000098                     _Place2:
   398                           	callstack 0
   399   000098                     	ds	2
   400   00009A                     _Place1:
   401                           	callstack 0
   402   00009A                     	ds	2
   403   00009C                     _Destination:
   404                           	callstack 0
   405   00009C                     	ds	1
   406   00009D                     _flag:
   407                           	callstack 0
   408   00009D                     	ds	1
   409   00009E                     _mins:
   410                           	callstack 0
   411   00009E                     	ds	10
   412   0000A8                     _secs:
   413                           	callstack 0
   414   0000A8                     	ds	10
   415   0000B2                     _rtc:
   416                           	callstack 0
   417   0000B2                     	ds	7
   418   0000B9                     _hour2:
   419                           	callstack 0
   420   0000B9                     	ds	4
   421                           
   422                           	psect	dataBANK0
   423   0000BD                     __pdataBANK0:
   424                           	callstack 0
   425   0000BD                     _RTC:
   426                           	callstack 0
   427   0000BD                     	ds	2
   428   0000BF                     _time1:
   429                           	callstack 0
   430   0000BF                     	ds	32
   431                           
   432                           	psect	bssBANK1
   433   000100                     __pbssBANK1:
   434                           	callstack 0
   435   000100                     _dbuf:
   436                           	callstack 0
   437   000100                     	ds	32
   438   000120                     _year:
   439                           	callstack 0
   440   000120                     	ds	10
   441   00012A                     _month:
   442                           	callstack 0
   443   00012A                     	ds	10
   444   000134                     _date:
   445                           	callstack 0
   446   000134                     	ds	10
   447   00013E                     _hours:
   448                           	callstack 0
   449   00013E                     	ds	10
   450                           
   451                           	psect	cstackBANK0
   452   0000DF                     __pcstackBANK0:
   453                           	callstack 0
   454   0000DF                     ?_sprintf:
   455                           	callstack 0
   456   0000DF                     sprintf@s:
   457                           	callstack 0
   458                           
   459                           ; 2 bytes @ 0x0
   460   0000DF                     	ds	2
   461   0000E1                     sprintf@fmt:
   462                           	callstack 0
   463                           
   464                           ; 2 bytes @ 0x2
   465   0000E1                     	ds	4
   466   0000E5                     sprintf@ap:
   467                           	callstack 0
   468                           
   469                           ; 2 bytes @ 0x6
   470   0000E5                     	ds	2
   471   0000E7                     sprintf@f:
   472                           	callstack 0
   473                           
   474                           ; 11 bytes @ 0x8
   475   0000E7                     	ds	11
   476   0000F2                     main@i:
   477                           	callstack 0
   478                           
   479                           ; 1 bytes @ 0x13
   480   0000F2                     	ds	1
   481   0000F3                     main@i_520:
   482                           	callstack 0
   483                           
   484                           ; 1 bytes @ 0x14
   485   0000F3                     	ds	1
   486   0000F4                     main@i_526:
   487                           	callstack 0
   488                           
   489                           ; 1 bytes @ 0x15
   490   0000F4                     	ds	1
   491   0000F5                     main@j:
   492                           	callstack 0
   493                           
   494                           ; 1 bytes @ 0x16
   495   0000F5                     	ds	1
   496   0000F6                     main@j_527:
   497                           	callstack 0
   498                           
   499                           ; 1 bytes @ 0x17
   500   0000F6                     	ds	1
   501                           
   502                           	psect	cstackCOMRAM
   503   000001                     __pcstackCOMRAM:
   504                           	callstack 0
   505   000001                     ??_LCD_write:
   506   000001                     ?___awdiv:
   507                           	callstack 0
   508   000001                     ?___awmod:
   509                           	callstack 0
   510   000001                     ?___lmul:
   511                           	callstack 0
   512   000001                     ?___fltol:
   513                           	callstack 0
   514   000001                     ?___xxtofl:
   515                           	callstack 0
   516   000001                     ?___aodiv:
   517                           	callstack 0
   518   000001                     ?___aomod:
   519                           	callstack 0
   520   000001                     LCD_cmd@cmd:
   521                           	callstack 0
   522   000001                     LCD_cmd_High@cmd:
   523                           	callstack 0
   524   000001                     I2C_Read@flag:
   525                           	callstack 0
   526   000001                     I2C_Write@data:
   527                           	callstack 0
   528   000001                     EEPROM_Write@data:
   529                           	callstack 0
   530   000001                     EEPROM_Read@address:
   531                           	callstack 0
   532   000001                     Set_Time@Num:
   533                           	callstack 0
   534   000001                     Check@Num:
   535                           	callstack 0
   536   000001                     ___awdiv@dividend:
   537                           	callstack 0
   538   000001                     ___awmod@dividend:
   539                           	callstack 0
   540   000001                     fputc@c:
   541                           	callstack 0
   542   000001                     ___lmul@multiplier:
   543                           	callstack 0
   544   000001                     ___flge@ff1:
   545                           	callstack 0
   546   000001                     ___fltol@f1:
   547                           	callstack 0
   548   000001                     ___xxtofl@val:
   549                           	callstack 0
   550   000001                     ___aodiv@dividend:
   551                           	callstack 0
   552   000001                     ___aomod@dividend:
   553                           	callstack 0
   554                           
   555                           ; 8 bytes @ 0x0
   556   000001                     	ds	1
   557   000002                     ??_LCD_4bit_mode:
   558   000002                     ??_LCD_clear:
   559   000002                     LCD_write@data:
   560                           	callstack 0
   561   000002                     I2C_Start@slave_write_address:
   562                           	callstack 0
   563   000002                     I2C_Repeated_Start@slave_read_address:
   564                           	callstack 0
   565   000002                     EEPROM_Write@address:
   566                           	callstack 0
   567   000002                     LCD_goto_xy@x:
   568                           	callstack 0
   569   000002                     I2C_Read@buffer:
   570                           	callstack 0
   571                           
   572                           ; 2 bytes @ 0x1
   573   000002                     	ds	1
   574   000003                     ??_Check:
   575   000003                     LCD_write_string@str:
   576                           	callstack 0
   577   000003                     Set_Time@Place:
   578                           	callstack 0
   579   000003                     ___awdiv@divisor:
   580                           	callstack 0
   581   000003                     ___awmod@divisor:
   582                           	callstack 0
   583   000003                     fputc@fp:
   584                           	callstack 0
   585                           
   586                           ; 2 bytes @ 0x2
   587   000003                     	ds	1
   588   000004                     LCD_goto_xy@y:
   589                           	callstack 0
   590   000004                     RTC_Get_Time@RTC:
   591                           	callstack 0
   592   000004                     RTC_Get_Date@RTC:
   593                           	callstack 0
   594                           
   595                           ; 2 bytes @ 0x3
   596   000004                     	ds	1
   597   000005                     ??_Set_Time:
   598   000005                     ??_fputc:
   599   000005                     ??_LCD_write_string:
   600   000005                     ??___fltol:
   601   000005                     ??___xxtofl:
   602   000005                     ___awdiv@counter:
   603                           	callstack 0
   604   000005                     ___awmod@counter:
   605                           	callstack 0
   606   000005                     ___lmul@multiplicand:
   607                           	callstack 0
   608   000005                     ___flge@ff2:
   609                           	callstack 0
   610                           
   611                           ; 4 bytes @ 0x4
   612   000005                     	ds	1
   613   000006                     ??_LCD_goto_xy:
   614   000006                     ___awdiv@sign:
   615                           	callstack 0
   616   000006                     ___awmod@sign:
   617                           	callstack 0
   618                           
   619                           ; 1 bytes @ 0x5
   620   000006                     	ds	1
   621   000007                     LCD_write_string@i:
   622                           	callstack 0
   623   000007                     LCD_goto_xy@i:
   624                           	callstack 0
   625   000007                     ___awdiv@quotient:
   626                           	callstack 0
   627                           
   628                           ; 2 bytes @ 0x6
   629   000007                     	ds	2
   630   000009                     ??___flge:
   631   000009                     RTC_Set_Time@min:
   632                           	callstack 0
   633   000009                     RTC_Set_Date@date:
   634                           	callstack 0
   635   000009                     ___fltol@sign1:
   636                           	callstack 0
   637   000009                     ___xxtofl@sign:
   638                           	callstack 0
   639   000009                     LCD_goto_xy@i_52:
   640                           	callstack 0
   641   000009                     ___lmul@product:
   642                           	callstack 0
   643   000009                     ___aodiv@divisor:
   644                           	callstack 0
   645   000009                     ___aomod@divisor:
   646                           	callstack 0
   647                           
   648                           ; 8 bytes @ 0x8
   649   000009                     	ds	1
   650   00000A                     RTC_Set_Time@hour:
   651                           	callstack 0
   652   00000A                     RTC_Set_Date@month:
   653                           	callstack 0
   654   00000A                     ___fltol@exp1:
   655                           	callstack 0
   656   00000A                     ___xxtofl@exp:
   657                           	callstack 0
   658   00000A                     fputs@s:
   659                           	callstack 0
   660                           
   661                           ; 2 bytes @ 0x9
   662   00000A                     	ds	1
   663   00000B                     ??_RTC_Set_Time:
   664   00000B                     RTC_Set_Date@year:
   665                           	callstack 0
   666   00000B                     Flash@inc:
   667                           	callstack 0
   668   00000B                     ___xxtofl@arg:
   669                           	callstack 0
   670                           
   671                           ; 4 bytes @ 0xA
   672   00000B                     	ds	1
   673   00000C                     ??_RTC_Set_Date:
   674   00000C                     fputs@fp:
   675                           	callstack 0
   676                           
   677                           ; 2 bytes @ 0xB
   678   00000C                     	ds	1
   679   00000D                     RTC_Set_Time@sec:
   680                           	callstack 0
   681   00000D                     Compare@Num1:
   682                           	callstack 0
   683   00000D                     Flash@PlaceN:
   684                           	callstack 0
   685                           
   686                           ; 2 bytes @ 0xC
   687   00000D                     	ds	1
   688   00000E                     RTC_Set_Date@day:
   689                           	callstack 0
   690   00000E                     fputs@c:
   691                           	callstack 0
   692                           
   693                           ; 1 bytes @ 0xD
   694   00000E                     	ds	1
   695   00000F                     ??_Flash:
   696   00000F                     ?___flmul:
   697                           	callstack 0
   698   00000F                     Compare@Num2:
   699                           	callstack 0
   700   00000F                     fputs@i:
   701                           	callstack 0
   702   00000F                     ___flmul@b:
   703                           	callstack 0
   704                           
   705                           ; 4 bytes @ 0xE
   706   00000F                     	ds	1
   707   000010                     ??_Screen_Device_1:
   708   000010                     ??_Screen_Device_2:
   709                           
   710                           ; 1 bytes @ 0xF
   711   000010                     	ds	1
   712   000011                     ??_Compare:
   713   000011                     ___aodiv@counter:
   714                           	callstack 0
   715   000011                     ___aomod@counter:
   716                           	callstack 0
   717   000011                     pad@fp:
   718                           	callstack 0
   719                           
   720                           ; 2 bytes @ 0x10
   721   000011                     	ds	1
   722   000012                     ___aodiv@sign:
   723                           	callstack 0
   724   000012                     ___aomod@sign:
   725                           	callstack 0
   726   000012                     Screen_Device_1@i:
   727                           	callstack 0
   728   000012                     Screen_Device_2@i:
   729                           	callstack 0
   730                           
   731                           ; 2 bytes @ 0x11
   732   000012                     	ds	1
   733   000013                     ?_abs:
   734                           	callstack 0
   735   000013                     pad@buf:
   736                           	callstack 0
   737   000013                     abs@a:
   738                           	callstack 0
   739   000013                     ___flmul@a:
   740                           	callstack 0
   741   000013                     ___aodiv@quotient:
   742                           	callstack 0
   743                           
   744                           ; 8 bytes @ 0x12
   745   000013                     	ds	1
   746   000014                     Screen_Device_1@i_152:
   747                           	callstack 0
   748   000014                     Screen_Device_2@i_157:
   749                           	callstack 0
   750                           
   751                           ; 2 bytes @ 0x13
   752   000014                     	ds	1
   753   000015                     ??_abs:
   754   000015                     pad@p:
   755                           	callstack 0
   756                           
   757                           ; 2 bytes @ 0x14
   758   000015                     	ds	2
   759   000017                     ??___flmul:
   760   000017                     ??_pad:
   761                           
   762                           ; 1 bytes @ 0x16
   763   000017                     	ds	1
   764   000018                     pad@i:
   765                           	callstack 0
   766                           
   767                           ; 2 bytes @ 0x17
   768   000018                     	ds	2
   769   00001A                     pad@w:
   770                           	callstack 0
   771                           
   772                           ; 2 bytes @ 0x19
   773   00001A                     	ds	1
   774   00001B                     ___flmul@sign:
   775                           	callstack 0
   776                           
   777                           ; 1 bytes @ 0x1A
   778   00001B                     	ds	1
   779   00001C                     dtoa@fp:
   780                           	callstack 0
   781   00001C                     xtoa@fp:
   782                           	callstack 0
   783   00001C                     ___flmul@grs:
   784                           	callstack 0
   785                           
   786                           ; 4 bytes @ 0x1B
   787   00001C                     	ds	2
   788   00001E                     dtoa@d:
   789                           	callstack 0
   790   00001E                     xtoa@d:
   791                           	callstack 0
   792                           
   793                           ; 8 bytes @ 0x1D
   794   00001E                     	ds	2
   795   000020                     ___flmul@aexp:
   796                           	callstack 0
   797                           
   798                           ; 1 bytes @ 0x1F
   799   000020                     	ds	1
   800   000021                     ___flmul@bexp:
   801                           	callstack 0
   802                           
   803                           ; 1 bytes @ 0x20
   804   000021                     	ds	1
   805   000022                     ___flmul@prod:
   806                           	callstack 0
   807                           
   808                           ; 4 bytes @ 0x21
   809   000022                     	ds	4
   810   000026                     ??_dtoa:
   811   000026                     ??_xtoa:
   812   000026                     ___flmul@temp:
   813                           	callstack 0
   814                           
   815                           ; 2 bytes @ 0x25
   816   000026                     	ds	2
   817   000028                     ?___fldiv:
   818                           	callstack 0
   819   000028                     ___fldiv@b:
   820                           	callstack 0
   821                           
   822                           ; 4 bytes @ 0x27
   823   000028                     	ds	4
   824   00002C                     ___fldiv@a:
   825                           	callstack 0
   826                           
   827                           ; 4 bytes @ 0x2B
   828   00002C                     	ds	2
   829   00002E                     _dtoa$1333:
   830                           	callstack 0
   831   00002E                     xtoa@w:
   832                           	callstack 0
   833                           
   834                           ; 2 bytes @ 0x2D
   835   00002E                     	ds	2
   836   000030                     ??___fldiv:
   837   000030                     dtoa@p:
   838                           	callstack 0
   839   000030                     _xtoa$1343:
   840                           	callstack 0
   841                           
   842                           ; 2 bytes @ 0x2F
   843   000030                     	ds	2
   844   000032                     dtoa@w:
   845                           	callstack 0
   846   000032                     xtoa@p:
   847                           	callstack 0
   848                           
   849                           ; 2 bytes @ 0x31
   850   000032                     	ds	2
   851   000034                     ___fldiv@rem:
   852                           	callstack 0
   853   000034                     dtoa@n:
   854                           	callstack 0
   855   000034                     xtoa@n:
   856                           	callstack 0
   857                           
   858                           ; 8 bytes @ 0x33
   859   000034                     	ds	4
   860   000038                     ___fldiv@sign:
   861                           	callstack 0
   862                           
   863                           ; 1 bytes @ 0x37
   864   000038                     	ds	1
   865   000039                     ___fldiv@new_exp:
   866                           	callstack 0
   867                           
   868                           ; 2 bytes @ 0x38
   869   000039                     	ds	2
   870   00003B                     ___fldiv@grs:
   871                           	callstack 0
   872                           
   873                           ; 4 bytes @ 0x3A
   874   00003B                     	ds	1
   875   00003C                     dtoa@i:
   876                           	callstack 0
   877   00003C                     xtoa@i:
   878                           	callstack 0
   879                           
   880                           ; 2 bytes @ 0x3B
   881   00003C                     	ds	2
   882   00003E                     dtoa@s:
   883                           	callstack 0
   884   00003E                     xtoa@c:
   885                           	callstack 0
   886                           
   887                           ; 1 bytes @ 0x3D
   888   00003E                     	ds	1
   889   00003F                     ___fldiv@bexp:
   890                           	callstack 0
   891   00003F                     vfpfcnvrt@fp:
   892                           	callstack 0
   893                           
   894                           ; 2 bytes @ 0x3E
   895   00003F                     	ds	1
   896   000040                     ___fldiv@aexp:
   897                           	callstack 0
   898                           
   899                           ; 1 bytes @ 0x3F
   900   000040                     	ds	1
   901   000041                     ?___fladd:
   902                           	callstack 0
   903   000041                     vfpfcnvrt@fmt:
   904                           	callstack 0
   905   000041                     ___fladd@b:
   906                           	callstack 0
   907                           
   908                           ; 4 bytes @ 0x40
   909   000041                     	ds	2
   910   000043                     vfpfcnvrt@ap:
   911                           	callstack 0
   912                           
   913                           ; 2 bytes @ 0x42
   914   000043                     	ds	2
   915   000045                     ??_vfpfcnvrt:
   916   000045                     ___fladd@a:
   917                           	callstack 0
   918                           
   919                           ; 4 bytes @ 0x44
   920   000045                     	ds	4
   921   000049                     ??___fladd:
   922   000049                     vfpfcnvrt@convarg:
   923                           	callstack 0
   924                           
   925                           ; 8 bytes @ 0x48
   926   000049                     	ds	4
   927   00004D                     ___fladd@signs:
   928                           	callstack 0
   929                           
   930                           ; 1 bytes @ 0x4C
   931   00004D                     	ds	1
   932   00004E                     ___fladd@aexp:
   933                           	callstack 0
   934                           
   935                           ; 1 bytes @ 0x4D
   936   00004E                     	ds	1
   937   00004F                     ___fladd@bexp:
   938                           	callstack 0
   939                           
   940                           ; 1 bytes @ 0x4E
   941   00004F                     	ds	1
   942   000050                     ___fladd@grs:
   943                           	callstack 0
   944                           
   945                           ; 1 bytes @ 0x4F
   946   000050                     	ds	1
   947   000051                     vfpfcnvrt@cp:
   948                           	callstack 0
   949   000051                     USART_init@baud_rate:
   950                           	callstack 0
   951                           
   952                           ; 4 bytes @ 0x50
   953   000051                     	ds	2
   954   000053                     ?_vfprintf:
   955                           	callstack 0
   956   000053                     vfprintf@fp:
   957                           	callstack 0
   958                           
   959                           ; 2 bytes @ 0x52
   960   000053                     	ds	2
   961   000055                     vfprintf@fmt:
   962                           	callstack 0
   963   000055                     USART_init@temp:
   964                           	callstack 0
   965                           
   966                           ; 4 bytes @ 0x54
   967   000055                     	ds	2
   968   000057                     vfprintf@ap:
   969                           	callstack 0
   970                           
   971                           ; 2 bytes @ 0x56
   972   000057                     	ds	2
   973   000059                     vfprintf@cfmt:
   974                           	callstack 0
   975                           
   976                           ; 2 bytes @ 0x58
   977   000059                     	ds	2
   978   00005B                     ??_Screen_Date_Time:
   979                           
   980                           ; 1 bytes @ 0x5A
   981   00005B                     	ds	1
   982   00005C                     ??_main:
   983                           
   984                           ; 1 bytes @ 0x5B
   985   00005C                     	ds	2
   986                           
   987 ;;
   988 ;;Main: autosize = 0, tempsize = 2, incstack = 0, save=0
   989 ;;
   990 ;; *************** function _main *****************
   991 ;; Defined at:
   992 ;;		line 23 in file "main.c"
   993 ;; Parameters:    Size  Location     Type
   994 ;;		None
   995 ;; Auto vars:     Size  Location     Type
   996 ;;  j               1   23[BANK0 ] unsigned char 
   997 ;;  j               1   22[BANK0 ] unsigned char 
   998 ;;  i               1   21[BANK0 ] unsigned char 
   999 ;;  i               1   20[BANK0 ] unsigned char 
  1000 ;;  i               1   19[BANK0 ] unsigned char 
  1001 ;; Return value:  Size  Location     Type
  1002 ;;                  1    wreg      void 
  1003 ;; Registers used:
  1004 ;;		wreg, fsr1l, fsr1h, fsr2l, fsr2h, status,2, status,0, tblptrl, tblptrh, tblptru, prodl, prodh, cstack
  1005 ;; Tracked objects:
  1006 ;;		On entry : 0/0
  1007 ;;		On exit  : 0/0
  1008 ;;		Unchanged: 0/0
  1009 ;; Data sizes:     COMRAM   BANK0   BANK1   BANK2   BANK3   BANK4   BANK5   BANK6   BANK7
  1010 ;;      Params:         0       0       0       0       0       0       0       0       0
  1011 ;;      Locals:         0       5       0       0       0       0       0       0       0
  1012 ;;      Temps:          2       0       0       0       0       0       0       0       0
  1013 ;;      Totals:         2       5       0       0       0       0       0       0       0
  1014 ;;Total ram usage:        7 bytes
  1015 ;; Hardware stack levels required when called: 10
  1016 ;; This function calls:
  1017 ;;		_Active_Receiver_Interrupt
  1018 ;;		_Check
  1019 ;;		_Compare
  1020 ;;		_EEPROM_Read
  1021 ;;		_EEPROM_Write
  1022 ;;		_I2C_Init
  1023 ;;		_LCD_clear
  1024 ;;		_LCD_init
  1025 ;;		_Push_Buttons_Init
  1026 ;;		_RTC_Set_Date
  1027 ;;		_RTC_Set_Time
  1028 ;;		_Screen_Date_Time
  1029 ;;		_Screen_Device_1
  1030 ;;		_Screen_Device_2
  1031 ;;		_USART_init
  1032 ;; This function is called by:
  1033 ;;		Startup code after reset
  1034 ;; This function uses a non-reentrant model
  1035 ;;
  1036                           
  1037                           	psect	text0
  1038   00128A                     __ptext0:
  1039                           	callstack 0
  1040   00128A                     _main:
  1041                           	callstack 21
  1042   00128A                     
  1043                           ;main.c: 25:     Screen_Num = 1;
  1044   00128A  0E01               	movlw	1
  1045   00128C  0100               	movlb	0	; () banked
  1046   00128E  6FF7               	movwf	_Screen_Num& (0+255),b
  1047   001290                     
  1048                           ; BSR set to: 0
  1049                           ;main.c: 27:     Push_Buttons_Init();
  1050   001290  ECA0  F023         	call	_Push_Buttons_Init	;wreg free
  1051   001294                     
  1052                           ;main.c: 28:     (TRISB &=~(1<<6));
  1053   001294  9C93               	bcf	147,6,c	;volatile
  1054   001296                     
  1055                           ;main.c: 29:     (TRISB &=~(1<<7));
  1056   001296  9E93               	bcf	147,7,c	;volatile
  1057   001298                     
  1058                           ;main.c: 30:     LCD_init();
  1059   001298  EC8F  F023         	call	_LCD_init	;wreg free
  1060   00129C                     
  1061                           ;main.c: 31:     I2C_Init();
  1062   00129C  EC67  F023         	call	_I2C_Init	;wreg free
  1063   0012A0                     
  1064                           ;main.c: 32:     USART_init(9600);
  1065   0012A0  0E80               	movlw	128
  1066   0012A2  6E51               	movwf	USART_init@baud_rate^0,c
  1067   0012A4  0E25               	movlw	37
  1068   0012A6  6E52               	movwf	(USART_init@baud_rate+1)^0,c
  1069   0012A8  0E00               	movlw	0
  1070   0012AA  6E53               	movwf	(USART_init@baud_rate+2)^0,c
  1071   0012AC  0E00               	movlw	0
  1072   0012AE  6E54               	movwf	(USART_init@baud_rate+3)^0,c
  1073   0012B0  EC51  F01D         	call	_USART_init	;wreg free
  1074   0012B4                     
  1075                           ;main.c: 33:     Active_Receiver_Interrupt();
  1076   0012B4  ECA5  F023         	call	_Active_Receiver_Interrupt	;wreg free
  1077   0012B8                     
  1078                           ;main.c: 37:     RTC_Set_Time(30, 30, 12);
  1079   0012B8  0E1E               	movlw	30
  1080   0012BA  6E09               	movwf	RTC_Set_Time@min^0,c
  1081   0012BC  0E0C               	movlw	12
  1082   0012BE  6E0A               	movwf	RTC_Set_Time@hour^0,c
  1083   0012C0  0E1E               	movlw	30
  1084   0012C2  EC43  F01E         	call	_RTC_Set_Time
  1085   0012C6                     
  1086                           ;main.c: 38:     RTC_Set_Date(5, 30, 12, 22);
  1087   0012C6  0E1E               	movlw	30
  1088   0012C8  6E09               	movwf	RTC_Set_Date@date^0,c
  1089   0012CA  0E0C               	movlw	12
  1090   0012CC  6E0A               	movwf	RTC_Set_Date@month^0,c
  1091   0012CE  0E16               	movlw	22
  1092   0012D0  6E0B               	movwf	RTC_Set_Date@year^0,c
  1093   0012D2  0E05               	movlw	5
  1094   0012D4  ECC2  F01B         	call	_RTC_Set_Date
  1095   0012D8                     
  1096                           ;main.c: 41:     for(char i=0; i<32; i++)
  1097   0012D8  0E00               	movlw	0
  1098   0012DA  0100               	movlb	0	; () banked
  1099   0012DC  6FF2               	movwf	main@i& (0+255),b
  1100   0012DE                     l5090:
  1101                           
  1102                           ; BSR set to: 0
  1103                           ;main.c: 42:     {;main.c: 43:         if(EEPROM_Read(i) == 0xFF) EEPROM_Write(i, 48);
  1104   0012DE  51F2               	movf	main@i& (0+255),w,b
  1105   0012E0  EC98  F023         	call	_EEPROM_Read
  1106   0012E4  0AFF               	xorlw	255
  1107   0012E6  A4D8               	btfss	status,2,c
  1108   0012E8  EF78  F009         	goto	u5121
  1109   0012EC  EF7A  F009         	goto	u5120
  1110   0012F0                     u5121:
  1111   0012F0  EF80  F009         	goto	l5094
  1112   0012F4                     u5120:
  1113   0012F4  0E30               	movlw	48
  1114   0012F6  6E01               	movwf	EEPROM_Write@data^0,c
  1115   0012F8  0100               	movlb	0	; () banked
  1116   0012FA  51F2               	movf	main@i& (0+255),w,b
  1117   0012FC  ECC8  F022         	call	_EEPROM_Write
  1118   001300                     l5094:
  1119                           
  1120                           ;main.c: 44:     }
  1121   001300  0100               	movlb	0	; () banked
  1122   001302  2BF2               	incf	main@i& (0+255),f,b
  1123   001304                     
  1124                           ; BSR set to: 0
  1125   001304  0E1F               	movlw	31
  1126   001306  65F2               	cpfsgt	main@i& (0+255),b
  1127   001308  EF88  F009         	goto	u5131
  1128   00130C  EF8A  F009         	goto	u5130
  1129   001310                     u5131:
  1130   001310  EF6F  F009         	goto	l5090
  1131   001314                     u5130:
  1132   001314                     
  1133                           ; BSR set to: 0
  1134                           ;main.c: 49:     for(char i=0; i<4; i++)
  1135   001314  0E00               	movlw	0
  1136   001316  6FF3               	movwf	main@i_520& (0+255),b
  1137   001318                     l5104:
  1138                           
  1139                           ; BSR set to: 0
  1140                           ;main.c: 50:     {;main.c: 51:         for(char j=0; j<8; j++)
  1141   001318  0E00               	movlw	0
  1142   00131A  6FF5               	movwf	main@j& (0+255),b
  1143   00131C                     l5110:
  1144                           
  1145                           ; BSR set to: 0
  1146                           ;main.c: 52:         {;main.c: 53:             if(j==2 || j==5) continue;
  1147   00131C  0E02               	movlw	2
  1148   00131E  19F5               	xorwf	main@j& (0+255),w,b
  1149   001320  B4D8               	btfsc	status,2,c
  1150   001322  EF95  F009         	goto	u5141
  1151   001326  EF97  F009         	goto	u5140
  1152   00132A                     u5141:
  1153   00132A  EF16  F00A         	goto	l5124
  1154   00132E                     u5140:
  1155   00132E                     
  1156                           ; BSR set to: 0
  1157   00132E  0E05               	movlw	5
  1158   001330  19F5               	xorwf	main@j& (0+255),w,b
  1159   001332  A4D8               	btfss	status,2,c
  1160   001334  EF9E  F009         	goto	u5151
  1161   001338  EFA0  F009         	goto	u5150
  1162   00133C                     u5151:
  1163   00133C  EFF9  F009         	goto	l5122
  1164   001340                     u5150:
  1165   001340  EF16  F00A         	goto	l5124
  1166   001344                     l5114:
  1167                           
  1168                           ; BSR set to: 0
  1169   001344  51F3               	movf	main@i_520& (0+255),w,b
  1170   001346  0D08               	mullw	8
  1171   001348  0EBF               	movlw	low _time1
  1172   00134A  24F3               	addwf	243,w,c
  1173   00134C  6E5C               	movwf	??_main^0,c
  1174   00134E  0E00               	movlw	high _time1
  1175   001350  20F4               	addwfc	prodh,w,c
  1176   001352  6E5D               	movwf	(??_main+1)^0,c
  1177   001354  51F5               	movf	main@j& (0+255),w,b
  1178   001356  245C               	addwf	??_main^0,w,c
  1179   001358  6ED9               	movwf	fsr2l,c
  1180   00135A  0E00               	movlw	0
  1181   00135C  205D               	addwfc	(??_main+1)^0,w,c
  1182   00135E  6EDA               	movwf	fsr2h,c
  1183   001360  51F3               	movf	main@i_520& (0+255),w,b
  1184   001362  25F5               	addwf	main@j& (0+255),w,b
  1185   001364  EC98  F023         	call	_EEPROM_Read
  1186   001368  6EDF               	movwf	indf2,c
  1187   00136A  EF16  F00A         	goto	l5124
  1188   00136E                     l5116:
  1189                           
  1190                           ; BSR set to: 0
  1191   00136E  51F3               	movf	main@i_520& (0+255),w,b
  1192   001370  0D08               	mullw	8
  1193   001372  0EBF               	movlw	low _time1
  1194   001374  24F3               	addwf	243,w,c
  1195   001376  6E5C               	movwf	??_main^0,c
  1196   001378  0E00               	movlw	high _time1
  1197   00137A  20F4               	addwfc	prodh,w,c
  1198   00137C  6E5D               	movwf	(??_main+1)^0,c
  1199   00137E  51F5               	movf	main@j& (0+255),w,b
  1200   001380  245C               	addwf	??_main^0,w,c
  1201   001382  6ED9               	movwf	fsr2l,c
  1202   001384  0E00               	movlw	0
  1203   001386  205D               	addwfc	(??_main+1)^0,w,c
  1204   001388  6EDA               	movwf	fsr2h,c
  1205   00138A  51F3               	movf	main@i_520& (0+255),w,b
  1206   00138C  25F5               	addwf	main@j& (0+255),w,b
  1207   00138E  0F07               	addlw	7
  1208   001390  EC98  F023         	call	_EEPROM_Read
  1209   001394  6EDF               	movwf	indf2,c
  1210   001396  EF16  F00A         	goto	l5124
  1211   00139A                     l5118:
  1212                           
  1213                           ; BSR set to: 0
  1214   00139A  51F3               	movf	main@i_520& (0+255),w,b
  1215   00139C  0D08               	mullw	8
  1216   00139E  0EBF               	movlw	low _time1
  1217   0013A0  24F3               	addwf	243,w,c
  1218   0013A2  6E5C               	movwf	??_main^0,c
  1219   0013A4  0E00               	movlw	high _time1
  1220   0013A6  20F4               	addwfc	prodh,w,c
  1221   0013A8  6E5D               	movwf	(??_main+1)^0,c
  1222   0013AA  51F5               	movf	main@j& (0+255),w,b
  1223   0013AC  245C               	addwf	??_main^0,w,c
  1224   0013AE  6ED9               	movwf	fsr2l,c
  1225   0013B0  0E00               	movlw	0
  1226   0013B2  205D               	addwfc	(??_main+1)^0,w,c
  1227   0013B4  6EDA               	movwf	fsr2h,c
  1228   0013B6  51F3               	movf	main@i_520& (0+255),w,b
  1229   0013B8  25F5               	addwf	main@j& (0+255),w,b
  1230   0013BA  0F0E               	addlw	14
  1231   0013BC  EC98  F023         	call	_EEPROM_Read
  1232   0013C0  6EDF               	movwf	indf2,c
  1233   0013C2  EF16  F00A         	goto	l5124
  1234   0013C6                     l5120:
  1235                           
  1236                           ; BSR set to: 0
  1237   0013C6  51F3               	movf	main@i_520& (0+255),w,b
  1238   0013C8  0D08               	mullw	8
  1239   0013CA  0EBF               	movlw	low _time1
  1240   0013CC  24F3               	addwf	243,w,c
  1241   0013CE  6E5C               	movwf	??_main^0,c
  1242   0013D0  0E00               	movlw	high _time1
  1243   0013D2  20F4               	addwfc	prodh,w,c
  1244   0013D4  6E5D               	movwf	(??_main+1)^0,c
  1245   0013D6  51F5               	movf	main@j& (0+255),w,b
  1246   0013D8  245C               	addwf	??_main^0,w,c
  1247   0013DA  6ED9               	movwf	fsr2l,c
  1248   0013DC  0E00               	movlw	0
  1249   0013DE  205D               	addwfc	(??_main+1)^0,w,c
  1250   0013E0  6EDA               	movwf	fsr2h,c
  1251   0013E2  51F3               	movf	main@i_520& (0+255),w,b
  1252   0013E4  25F5               	addwf	main@j& (0+255),w,b
  1253   0013E6  0F15               	addlw	21
  1254   0013E8  EC98  F023         	call	_EEPROM_Read
  1255   0013EC  6EDF               	movwf	indf2,c
  1256   0013EE  EF16  F00A         	goto	l5124
  1257   0013F2                     l5122:
  1258                           
  1259                           ; BSR set to: 0
  1260   0013F2  51F3               	movf	main@i_520& (0+255),w,b
  1261   0013F4  6E5C               	movwf	??_main^0,c
  1262   0013F6  6A5D               	clrf	(??_main+1)^0,c
  1263                           
  1264                           ; Switch on 2 bytes has been partitioned into a top level switch of size 1, and 1 sub-sw
      +                          itches
  1265                           ; Switch size 1, requested type "simple"
  1266                           ; Number of cases is 1, Range of values is 0 to 0
  1267                           ; switch strategies available:
  1268                           ; Name         Instructions Cycles
  1269                           ; simple_byte            4     3 (average)
  1270                           ;	Chosen strategy is simple_byte
  1271   0013F8  505D               	movf	(??_main+1)^0,w,c
  1272   0013FA  0A00               	xorlw	0	; case 0
  1273   0013FC  B4D8               	btfsc	status,2,c
  1274   0013FE  EF03  F00A         	goto	l5480
  1275   001402  EF16  F00A         	goto	l5124
  1276   001406                     l5480:
  1277                           
  1278                           ; BSR set to: 0
  1279                           ; Switch size 1, requested type "simple"
  1280                           ; Number of cases is 4, Range of values is 0 to 3
  1281                           ; switch strategies available:
  1282                           ; Name         Instructions Cycles
  1283                           ; simple_byte           13     7 (average)
  1284                           ;	Chosen strategy is simple_byte
  1285   001406  505C               	movf	??_main^0,w,c
  1286   001408  0A00               	xorlw	0	; case 0
  1287   00140A  B4D8               	btfsc	status,2,c
  1288   00140C  EFA2  F009         	goto	l5114
  1289   001410  0A01               	xorlw	1	; case 1
  1290   001412  B4D8               	btfsc	status,2,c
  1291   001414  EFB7  F009         	goto	l5116
  1292   001418  0A03               	xorlw	3	; case 2
  1293   00141A  B4D8               	btfsc	status,2,c
  1294   00141C  EFCD  F009         	goto	l5118
  1295   001420  0A01               	xorlw	1	; case 3
  1296   001422  B4D8               	btfsc	status,2,c
  1297   001424  EFE3  F009         	goto	l5120
  1298   001428  EF16  F00A         	goto	l5124
  1299   00142C                     l5124:
  1300   00142C  0100               	movlb	0	; () banked
  1301   00142E  2BF5               	incf	main@j& (0+255),f,b
  1302   001430                     
  1303                           ; BSR set to: 0
  1304   001430  0E07               	movlw	7
  1305   001432  65F5               	cpfsgt	main@j& (0+255),b
  1306   001434  EF1E  F00A         	goto	u5161
  1307   001438  EF20  F00A         	goto	u5160
  1308   00143C                     u5161:
  1309   00143C  EF8E  F009         	goto	l5110
  1310   001440                     u5160:
  1311   001440                     
  1312                           ; BSR set to: 0
  1313                           ;main.c: 64:     }
  1314   001440  2BF3               	incf	main@i_520& (0+255),f,b
  1315   001442                     
  1316                           ; BSR set to: 0
  1317   001442  0E03               	movlw	3
  1318   001444  65F3               	cpfsgt	main@i_520& (0+255),b
  1319   001446  EF27  F00A         	goto	u5171
  1320   00144A  EF29  F00A         	goto	u5170
  1321   00144E                     u5171:
  1322   00144E  EF8C  F009         	goto	l5104
  1323   001452                     u5170:
  1324   001452                     l5132:
  1325                           
  1326                           ;main.c: 68:     {;main.c: 70:         if(Destination)
  1327   001452  0100               	movlb	0	; () banked
  1328   001454  519C               	movf	_Destination& (0+255),w,b	;volatile
  1329   001456  B4D8               	btfsc	status,2,c
  1330   001458  EF30  F00A         	goto	u5181
  1331   00145C  EF32  F00A         	goto	u5180
  1332   001460                     u5181:
  1333   001460  EF63  F00A         	goto	l5156
  1334   001464                     u5180:
  1335   001464  EF44  F00A         	goto	l5152
  1336   001468                     l5136:
  1337                           
  1338                           ; BSR set to: 0
  1339   001468  8C81               	bsf	129,6,c	;volatile
  1340   00146A                     l5138:
  1341                           
  1342                           ; BSR set to: 0
  1343   00146A  0E01               	movlw	1
  1344   00146C  6F9D               	movwf	_flag& (0+255),b
  1345   00146E  EF61  F00A         	goto	l5154
  1346   001472                     l5140:
  1347                           
  1348                           ; BSR set to: 0
  1349   001472  9C81               	bcf	129,6,c	;volatile
  1350   001474                     l5142:
  1351                           
  1352                           ; BSR set to: 0
  1353   001474  0E00               	movlw	0
  1354   001476  6F9D               	movwf	_flag& (0+255),b
  1355   001478  EF61  F00A         	goto	l5154
  1356   00147C                     l5144:
  1357                           
  1358                           ; BSR set to: 0
  1359   00147C  8E81               	bsf	129,7,c	;volatile
  1360   00147E  EF35  F00A         	goto	l5138
  1361   001482                     l5148:
  1362                           
  1363                           ; BSR set to: 0
  1364   001482  9E81               	bcf	129,7,c	;volatile
  1365   001484  EF3A  F00A         	goto	l5142
  1366   001488                     l5152:
  1367                           
  1368                           ; BSR set to: 0
  1369   001488  519C               	movf	_Destination& (0+255),w,b	;volatile
  1370   00148A  6E5C               	movwf	??_main^0,c
  1371   00148C  6A5D               	clrf	(??_main+1)^0,c
  1372                           
  1373                           ; Switch on 2 bytes has been partitioned into a top level switch of size 1, and 1 sub-sw
      +                          itches
  1374                           ; Switch size 1, requested type "simple"
  1375                           ; Number of cases is 1, Range of values is 0 to 0
  1376                           ; switch strategies available:
  1377                           ; Name         Instructions Cycles
  1378                           ; simple_byte            4     3 (average)
  1379                           ;	Chosen strategy is simple_byte
  1380   00148E  505D               	movf	(??_main+1)^0,w,c
  1381   001490  0A00               	xorlw	0	; case 0
  1382   001492  B4D8               	btfsc	status,2,c
  1383   001494  EF4E  F00A         	goto	l5482
  1384   001498  EF61  F00A         	goto	l5154
  1385   00149C                     l5482:
  1386                           
  1387                           ; BSR set to: 0
  1388                           ; Switch size 1, requested type "simple"
  1389                           ; Number of cases is 4, Range of values is 65 to 68
  1390                           ; switch strategies available:
  1391                           ; Name         Instructions Cycles
  1392                           ; simple_byte           13     7 (average)
  1393                           ;	Chosen strategy is simple_byte
  1394   00149C  505C               	movf	??_main^0,w,c
  1395   00149E  0A41               	xorlw	65	; case 65
  1396   0014A0  B4D8               	btfsc	status,2,c
  1397   0014A2  EF34  F00A         	goto	l5136
  1398   0014A6  0A03               	xorlw	3	; case 66
  1399   0014A8  B4D8               	btfsc	status,2,c
  1400   0014AA  EF39  F00A         	goto	l5140
  1401   0014AE  0A01               	xorlw	1	; case 67
  1402   0014B0  B4D8               	btfsc	status,2,c
  1403   0014B2  EF3E  F00A         	goto	l5144
  1404   0014B6  0A07               	xorlw	7	; case 68
  1405   0014B8  B4D8               	btfsc	status,2,c
  1406   0014BA  EF41  F00A         	goto	l5148
  1407   0014BE  EF61  F00A         	goto	l5154
  1408   0014C2                     l5154:
  1409                           
  1410                           ; BSR set to: 0
  1411                           ;main.c: 80:             Destination = 0;
  1412   0014C2  0E00               	movlw	0
  1413   0014C4  6F9C               	movwf	_Destination& (0+255),b	;volatile
  1414   0014C6                     l5156:
  1415                           
  1416                           ; BSR set to: 0
  1417                           ;main.c: 83:         if(((PORTB & (1<<2))? 1:0))
  1418   0014C6  A481               	btfss	129,2,c	;volatile
  1419   0014C8  EF68  F00A         	goto	u5191
  1420   0014CC  EF6A  F00A         	goto	u5190
  1421   0014D0                     u5191:
  1422   0014D0  EF94  F00A         	goto	l5176
  1423   0014D4                     u5190:
  1424   0014D4                     
  1425                           ; BSR set to: 0
  1426                           ;main.c: 84:         {;main.c: 85:             _delay((unsigned long)((5)*(8000000UL/400
      +                          0.0)));
  1427   0014D4  0E0D               	movlw	13
  1428   0014D6  6E5C               	movwf	??_main^0,c
  1429   0014D8  0EFC               	movlw	252
  1430   0014DA                     u5287:
  1431   0014DA  2EE8               	decfsz	wreg,f,c
  1432   0014DC  D7FE               	bra	u5287
  1433   0014DE  2E5C               	decfsz	??_main^0,f,c
  1434   0014E0  D7FC               	bra	u5287
  1435   0014E2                     l453:
  1436   0014E2  B481               	btfsc	129,2,c	;volatile
  1437   0014E4  EF76  F00A         	goto	u5201
  1438   0014E8  EF78  F00A         	goto	u5200
  1439   0014EC                     u5201:
  1440   0014EC  EF71  F00A         	goto	l453
  1441   0014F0                     u5200:
  1442   0014F0                     
  1443                           ;main.c: 88:             LCD_clear();
  1444   0014F0  EC5B  F023         	call	_LCD_clear	;wreg free
  1445   0014F4                     
  1446                           ;main.c: 90:             Screen_Num ++;
  1447   0014F4  0100               	movlb	0	; () banked
  1448   0014F6  2BF7               	incf	_Screen_Num& (0+255),f,b
  1449   0014F8                     
  1450                           ; BSR set to: 0
  1451                           ;main.c: 91:             if(Screen_Num > 3) Screen_Num = 1;
  1452   0014F8  0E03               	movlw	3
  1453   0014FA  65F7               	cpfsgt	_Screen_Num& (0+255),b
  1454   0014FC  EF82  F00A         	goto	u5211
  1455   001500  EF84  F00A         	goto	u5210
  1456   001504                     u5211:
  1457   001504  EF94  F00A         	goto	l5176
  1458   001508                     u5210:
  1459   001508                     
  1460                           ; BSR set to: 0
  1461   001508  0E01               	movlw	1
  1462   00150A  6FF7               	movwf	_Screen_Num& (0+255),b
  1463   00150C  EF94  F00A         	goto	l5176
  1464   001510                     l5168:
  1465                           
  1466                           ; BSR set to: 0
  1467   001510  ECAC  F014         	call	_Screen_Date_Time	;wreg free
  1468   001514  EFAD  F00A         	goto	l5178
  1469   001518                     l5170:
  1470                           
  1471                           ; BSR set to: 0
  1472   001518  EC9B  F00F         	call	_Screen_Device_1	;wreg free
  1473   00151C  EFAD  F00A         	goto	l5178
  1474   001520                     l5172:
  1475                           
  1476                           ; BSR set to: 0
  1477   001520  EC96  F00D         	call	_Screen_Device_2	;wreg free
  1478   001524  EFAD  F00A         	goto	l5178
  1479   001528                     l5176:
  1480                           
  1481                           ; BSR set to: 0
  1482   001528  51F7               	movf	_Screen_Num& (0+255),w,b
  1483   00152A  6E5C               	movwf	??_main^0,c
  1484   00152C  6A5D               	clrf	(??_main+1)^0,c
  1485                           
  1486                           ; Switch on 2 bytes has been partitioned into a top level switch of size 1, and 1 sub-sw
      +                          itches
  1487                           ; Switch size 1, requested type "simple"
  1488                           ; Number of cases is 1, Range of values is 0 to 0
  1489                           ; switch strategies available:
  1490                           ; Name         Instructions Cycles
  1491                           ; simple_byte            4     3 (average)
  1492                           ;	Chosen strategy is simple_byte
  1493   00152E  505D               	movf	(??_main+1)^0,w,c
  1494   001530  0A00               	xorlw	0	; case 0
  1495   001532  B4D8               	btfsc	status,2,c
  1496   001534  EF9E  F00A         	goto	l5484
  1497   001538  EF88  F00A         	goto	l5168
  1498   00153C                     l5484:
  1499                           
  1500                           ; BSR set to: 0
  1501                           ; Switch size 1, requested type "simple"
  1502                           ; Number of cases is 3, Range of values is 1 to 3
  1503                           ; switch strategies available:
  1504                           ; Name         Instructions Cycles
  1505                           ; simple_byte           10     6 (average)
  1506                           ;	Chosen strategy is simple_byte
  1507   00153C  505C               	movf	??_main^0,w,c
  1508   00153E  0A01               	xorlw	1	; case 1
  1509   001540  B4D8               	btfsc	status,2,c
  1510   001542  EF88  F00A         	goto	l5168
  1511   001546  0A03               	xorlw	3	; case 2
  1512   001548  B4D8               	btfsc	status,2,c
  1513   00154A  EF8C  F00A         	goto	l5170
  1514   00154E  0A01               	xorlw	1	; case 3
  1515   001550  B4D8               	btfsc	status,2,c
  1516   001552  EF90  F00A         	goto	l5172
  1517   001556  EF88  F00A         	goto	l5168
  1518   00155A                     l5178:
  1519                           
  1520                           ;main.c: 102:         for (char i = 0; i < 4; i++)
  1521   00155A  0E00               	movlw	0
  1522   00155C  0100               	movlb	0	; () banked
  1523   00155E  6FF4               	movwf	main@i_526& (0+255),b
  1524   001560                     l5184:
  1525                           
  1526                           ; BSR set to: 0
  1527                           ;main.c: 103:         {;main.c: 104:             for (char j = 0; j < 8; j++)
  1528   001560  0E00               	movlw	0
  1529   001562  6FF6               	movwf	main@j_527& (0+255),b
  1530   001564                     l5190:
  1531                           
  1532                           ; BSR set to: 0
  1533                           ;main.c: 105:             {;main.c: 106:                 if (j == 2 || j == 5) continue;
  1534   001564  0E02               	movlw	2
  1535   001566  19F6               	xorwf	main@j_527& (0+255),w,b
  1536   001568  B4D8               	btfsc	status,2,c
  1537   00156A  EFB9  F00A         	goto	u5221
  1538   00156E  EFBB  F00A         	goto	u5220
  1539   001572                     u5221:
  1540   001572  EF3E  F00B         	goto	l5204
  1541   001576                     u5220:
  1542   001576                     
  1543                           ; BSR set to: 0
  1544   001576  0E05               	movlw	5
  1545   001578  19F6               	xorwf	main@j_527& (0+255),w,b
  1546   00157A  A4D8               	btfss	status,2,c
  1547   00157C  EFC2  F00A         	goto	u5231
  1548   001580  EFC4  F00A         	goto	u5230
  1549   001584                     u5231:
  1550   001584  EF21  F00B         	goto	l5202
  1551   001588                     u5230:
  1552   001588  EF3E  F00B         	goto	l5204
  1553   00158C                     l5194:
  1554                           
  1555                           ; BSR set to: 0
  1556   00158C  51F4               	movf	main@i_526& (0+255),w,b
  1557   00158E  0D08               	mullw	8
  1558   001590  0EBF               	movlw	low _time1
  1559   001592  24F3               	addwf	243,w,c
  1560   001594  6E5C               	movwf	??_main^0,c
  1561   001596  0E00               	movlw	high _time1
  1562   001598  20F4               	addwfc	prodh,w,c
  1563   00159A  6E5D               	movwf	(??_main+1)^0,c
  1564   00159C  51F6               	movf	main@j_527& (0+255),w,b
  1565   00159E  245C               	addwf	??_main^0,w,c
  1566   0015A0  6ED9               	movwf	fsr2l,c
  1567   0015A2  0E00               	movlw	0
  1568   0015A4  205D               	addwfc	(??_main+1)^0,w,c
  1569   0015A6  6EDA               	movwf	fsr2h,c
  1570   0015A8  50DF               	movf	indf2,w,c
  1571   0015AA  6E01               	movwf	EEPROM_Write@data^0,c
  1572   0015AC  51F4               	movf	main@i_526& (0+255),w,b
  1573   0015AE  25F6               	addwf	main@j_527& (0+255),w,b
  1574   0015B0  ECC8  F022         	call	_EEPROM_Write
  1575   0015B4  EF3E  F00B         	goto	l5204
  1576   0015B8                     l5196:
  1577                           
  1578                           ; BSR set to: 0
  1579   0015B8  51F4               	movf	main@i_526& (0+255),w,b
  1580   0015BA  0D08               	mullw	8
  1581   0015BC  0EBF               	movlw	low _time1
  1582   0015BE  24F3               	addwf	243,w,c
  1583   0015C0  6E5C               	movwf	??_main^0,c
  1584   0015C2  0E00               	movlw	high _time1
  1585   0015C4  20F4               	addwfc	prodh,w,c
  1586   0015C6  6E5D               	movwf	(??_main+1)^0,c
  1587   0015C8  51F6               	movf	main@j_527& (0+255),w,b
  1588   0015CA  245C               	addwf	??_main^0,w,c
  1589   0015CC  6ED9               	movwf	fsr2l,c
  1590   0015CE  0E00               	movlw	0
  1591   0015D0  205D               	addwfc	(??_main+1)^0,w,c
  1592   0015D2  6EDA               	movwf	fsr2h,c
  1593   0015D4  50DF               	movf	indf2,w,c
  1594   0015D6  6E01               	movwf	EEPROM_Write@data^0,c
  1595   0015D8  51F4               	movf	main@i_526& (0+255),w,b
  1596   0015DA  25F6               	addwf	main@j_527& (0+255),w,b
  1597   0015DC  0F07               	addlw	7
  1598   0015DE  ECC8  F022         	call	_EEPROM_Write
  1599   0015E2  EF3E  F00B         	goto	l5204
  1600   0015E6                     l5198:
  1601                           
  1602                           ; BSR set to: 0
  1603   0015E6  51F4               	movf	main@i_526& (0+255),w,b
  1604   0015E8  0D08               	mullw	8
  1605   0015EA  0EBF               	movlw	low _time1
  1606   0015EC  24F3               	addwf	243,w,c
  1607   0015EE  6E5C               	movwf	??_main^0,c
  1608   0015F0  0E00               	movlw	high _time1
  1609   0015F2  20F4               	addwfc	prodh,w,c
  1610   0015F4  6E5D               	movwf	(??_main+1)^0,c
  1611   0015F6  51F6               	movf	main@j_527& (0+255),w,b
  1612   0015F8  245C               	addwf	??_main^0,w,c
  1613   0015FA  6ED9               	movwf	fsr2l,c
  1614   0015FC  0E00               	movlw	0
  1615   0015FE  205D               	addwfc	(??_main+1)^0,w,c
  1616   001600  6EDA               	movwf	fsr2h,c
  1617   001602  50DF               	movf	indf2,w,c
  1618   001604  6E01               	movwf	EEPROM_Write@data^0,c
  1619   001606  51F4               	movf	main@i_526& (0+255),w,b
  1620   001608  25F6               	addwf	main@j_527& (0+255),w,b
  1621   00160A  0F0E               	addlw	14
  1622   00160C  ECC8  F022         	call	_EEPROM_Write
  1623   001610  EF3E  F00B         	goto	l5204
  1624   001614                     l5200:
  1625                           
  1626                           ; BSR set to: 0
  1627   001614  51F4               	movf	main@i_526& (0+255),w,b
  1628   001616  0D08               	mullw	8
  1629   001618  0EBF               	movlw	low _time1
  1630   00161A  24F3               	addwf	243,w,c
  1631   00161C  6E5C               	movwf	??_main^0,c
  1632   00161E  0E00               	movlw	high _time1
  1633   001620  20F4               	addwfc	prodh,w,c
  1634   001622  6E5D               	movwf	(??_main+1)^0,c
  1635   001624  51F6               	movf	main@j_527& (0+255),w,b
  1636   001626  245C               	addwf	??_main^0,w,c
  1637   001628  6ED9               	movwf	fsr2l,c
  1638   00162A  0E00               	movlw	0
  1639   00162C  205D               	addwfc	(??_main+1)^0,w,c
  1640   00162E  6EDA               	movwf	fsr2h,c
  1641   001630  50DF               	movf	indf2,w,c
  1642   001632  6E01               	movwf	EEPROM_Write@data^0,c
  1643   001634  51F4               	movf	main@i_526& (0+255),w,b
  1644   001636  25F6               	addwf	main@j_527& (0+255),w,b
  1645   001638  0F15               	addlw	21
  1646   00163A  ECC8  F022         	call	_EEPROM_Write
  1647   00163E  EF3E  F00B         	goto	l5204
  1648   001642                     l5202:
  1649                           
  1650                           ; BSR set to: 0
  1651   001642  51F4               	movf	main@i_526& (0+255),w,b
  1652   001644  6E5C               	movwf	??_main^0,c
  1653   001646  6A5D               	clrf	(??_main+1)^0,c
  1654                           
  1655                           ; Switch on 2 bytes has been partitioned into a top level switch of size 1, and 1 sub-sw
      +                          itches
  1656                           ; Switch size 1, requested type "simple"
  1657                           ; Number of cases is 1, Range of values is 0 to 0
  1658                           ; switch strategies available:
  1659                           ; Name         Instructions Cycles
  1660                           ; simple_byte            4     3 (average)
  1661                           ;	Chosen strategy is simple_byte
  1662   001648  505D               	movf	(??_main+1)^0,w,c
  1663   00164A  0A00               	xorlw	0	; case 0
  1664   00164C  B4D8               	btfsc	status,2,c
  1665   00164E  EF2B  F00B         	goto	l5486
  1666   001652  EF3E  F00B         	goto	l5204
  1667   001656                     l5486:
  1668                           
  1669                           ; BSR set to: 0
  1670                           ; Switch size 1, requested type "simple"
  1671                           ; Number of cases is 4, Range of values is 0 to 3
  1672                           ; switch strategies available:
  1673                           ; Name         Instructions Cycles
  1674                           ; simple_byte           13     7 (average)
  1675                           ;	Chosen strategy is simple_byte
  1676   001656  505C               	movf	??_main^0,w,c
  1677   001658  0A00               	xorlw	0	; case 0
  1678   00165A  B4D8               	btfsc	status,2,c
  1679   00165C  EFC6  F00A         	goto	l5194
  1680   001660  0A01               	xorlw	1	; case 1
  1681   001662  B4D8               	btfsc	status,2,c
  1682   001664  EFDC  F00A         	goto	l5196
  1683   001668  0A03               	xorlw	3	; case 2
  1684   00166A  B4D8               	btfsc	status,2,c
  1685   00166C  EFF3  F00A         	goto	l5198
  1686   001670  0A01               	xorlw	1	; case 3
  1687   001672  B4D8               	btfsc	status,2,c
  1688   001674  EF0A  F00B         	goto	l5200
  1689   001678  EF3E  F00B         	goto	l5204
  1690   00167C                     l5204:
  1691   00167C  0100               	movlb	0	; () banked
  1692   00167E  2BF6               	incf	main@j_527& (0+255),f,b
  1693   001680                     
  1694                           ; BSR set to: 0
  1695   001680  0E07               	movlw	7
  1696   001682  65F6               	cpfsgt	main@j_527& (0+255),b
  1697   001684  EF46  F00B         	goto	u5241
  1698   001688  EF48  F00B         	goto	u5240
  1699   00168C                     u5241:
  1700   00168C  EFB2  F00A         	goto	l5190
  1701   001690                     u5240:
  1702   001690                     
  1703                           ; BSR set to: 0
  1704                           ;main.c: 117:         }
  1705   001690  2BF4               	incf	main@i_526& (0+255),f,b
  1706   001692                     
  1707                           ; BSR set to: 0
  1708   001692  0E03               	movlw	3
  1709   001694  65F4               	cpfsgt	main@i_526& (0+255),b
  1710   001696  EF4F  F00B         	goto	u5251
  1711   00169A  EF51  F00B         	goto	u5250
  1712   00169E                     u5251:
  1713   00169E  EFB0  F00A         	goto	l5184
  1714   0016A2                     u5250:
  1715   0016A2                     
  1716                           ; BSR set to: 0
  1717                           ;main.c: 119:         Check(0);
  1718   0016A2  0E00               	movlw	0
  1719   0016A4  6E02               	movwf	(Check@Num+1)^0,c
  1720   0016A6  0E00               	movlw	0
  1721   0016A8  6E01               	movwf	Check@Num^0,c
  1722   0016AA  EC25  F01B         	call	_Check	;wreg free
  1723                           
  1724                           ;main.c: 120:         Check(1);
  1725   0016AE  0E00               	movlw	0
  1726   0016B0  6E02               	movwf	(Check@Num+1)^0,c
  1727   0016B2  0E01               	movlw	1
  1728   0016B4  6E01               	movwf	Check@Num^0,c
  1729   0016B6  EC25  F01B         	call	_Check	;wreg free
  1730   0016BA                     
  1731                           ;main.c: 121:         Compare(0, 1);
  1732   0016BA  0E00               	movlw	0
  1733   0016BC  6E0E               	movwf	(Compare@Num1+1)^0,c
  1734   0016BE  0E00               	movlw	0
  1735   0016C0  6E0D               	movwf	Compare@Num1^0,c
  1736   0016C2  0E00               	movlw	0
  1737   0016C4  6E10               	movwf	(Compare@Num2+1)^0,c
  1738   0016C6  0E01               	movlw	1
  1739   0016C8  6E0F               	movwf	Compare@Num2^0,c
  1740   0016CA  ECD9  F015         	call	_Compare	;wreg free
  1741   0016CE                     
  1742                           ;main.c: 122:         Check(2);
  1743   0016CE  0E00               	movlw	0
  1744   0016D0  6E02               	movwf	(Check@Num+1)^0,c
  1745   0016D2  0E02               	movlw	2
  1746   0016D4  6E01               	movwf	Check@Num^0,c
  1747   0016D6  EC25  F01B         	call	_Check	;wreg free
  1748   0016DA                     
  1749                           ;main.c: 123:         Check(3);
  1750   0016DA  0E00               	movlw	0
  1751   0016DC  6E02               	movwf	(Check@Num+1)^0,c
  1752   0016DE  0E03               	movlw	3
  1753   0016E0  6E01               	movwf	Check@Num^0,c
  1754   0016E2  EC25  F01B         	call	_Check	;wreg free
  1755   0016E6                     
  1756                           ;main.c: 124:         Compare(2, 3);
  1757   0016E6  0E00               	movlw	0
  1758   0016E8  6E0E               	movwf	(Compare@Num1+1)^0,c
  1759   0016EA  0E02               	movlw	2
  1760   0016EC  6E0D               	movwf	Compare@Num1^0,c
  1761   0016EE  0E00               	movlw	0
  1762   0016F0  6E10               	movwf	(Compare@Num2+1)^0,c
  1763   0016F2  0E03               	movlw	3
  1764   0016F4  6E0F               	movwf	Compare@Num2^0,c
  1765   0016F6  ECD9  F015         	call	_Compare	;wreg free
  1766   0016FA  EF29  F00A         	goto	l5132
  1767   0016FE  EF07  F000         	goto	start
  1768   001702                     __end_of_main:
  1769                           	callstack 0
  1770                           
  1771 ;; *************** function _USART_init *****************
  1772 ;; Defined at:
  1773 ;;		line 13 in file "UART_Driver.c"
  1774 ;; Parameters:    Size  Location     Type
  1775 ;;  baud_rate       4   80[COMRAM] long 
  1776 ;; Auto vars:     Size  Location     Type
  1777 ;;  temp            4   84[COMRAM] float 
  1778 ;; Return value:  Size  Location     Type
  1779 ;;                  1    wreg      void 
  1780 ;; Registers used:
  1781 ;;		wreg, status,2, status,0, prodl, prodh, cstack
  1782 ;; Tracked objects:
  1783 ;;		On entry : 0/0
  1784 ;;		On exit  : 0/0
  1785 ;;		Unchanged: 0/0
  1786 ;; Data sizes:     COMRAM   BANK0   BANK1   BANK2   BANK3   BANK4   BANK5   BANK6   BANK7
  1787 ;;      Params:         4       0       0       0       0       0       0       0       0
  1788 ;;      Locals:         4       0       0       0       0       0       0       0       0
  1789 ;;      Temps:          0       0       0       0       0       0       0       0       0
  1790 ;;      Totals:         8       0       0       0       0       0       0       0       0
  1791 ;;Total ram usage:        8 bytes
  1792 ;; Hardware stack levels used: 1
  1793 ;; Hardware stack levels required when called: 2
  1794 ;; This function calls:
  1795 ;;		___fladd
  1796 ;;		___fldiv
  1797 ;;		___flge
  1798 ;;		___flmul
  1799 ;;		___fltol
  1800 ;;		___xxtofl
  1801 ;; This function is called by:
  1802 ;;		_main
  1803 ;; This function uses a non-reentrant model
  1804 ;;
  1805                           
  1806                           	psect	text1
  1807   003AA2                     __ptext1:
  1808                           	callstack 0
  1809   003AA2                     _USART_init:
  1810                           	callstack 28
  1811   003AA2                     
  1812                           ;UART_Driver.c: 13: void USART_init(long baud_rate);UART_Driver.c: 14: {;UART_Driver.c: 
      +                          15:     float temp;;UART_Driver.c: 17:     SYNC = 0;
  1813   003AA2  98AC               	bcf	4012,4,c	;volatile
  1814                           
  1815                           ;UART_Driver.c: 18:     SPEN = 1;
  1816   003AA4  8EAB               	bsf	4011,7,c	;volatile
  1817                           
  1818                           ;UART_Driver.c: 20:     TRISC6=1;
  1819   003AA6  8C94               	bsf	3988,6,c	;volatile
  1820                           
  1821                           ;UART_Driver.c: 21:     TRISC7=1;
  1822   003AA8  8E94               	bsf	3988,7,c	;volatile
  1823   003AAA                     
  1824                           ;UART_Driver.c: 24:     temp = (((float) (8000000UL) / (64*(float) baud_rate)) - 1);
  1825   003AAA  0E00               	movlw	0
  1826   003AAC  6E13               	movwf	___flmul@a^0,c
  1827   003AAE  0E00               	movlw	0
  1828   003AB0  6E14               	movwf	(___flmul@a+1)^0,c
  1829   003AB2  0E80               	movlw	128
  1830   003AB4  6E15               	movwf	(___flmul@a+2)^0,c
  1831   003AB6  0E42               	movlw	66
  1832   003AB8  6E16               	movwf	(___flmul@a+3)^0,c
  1833   003ABA  C051  F001         	movff	USART_init@baud_rate,___xxtofl@val
  1834   003ABE  C052  F002         	movff	USART_init@baud_rate+1,___xxtofl@val+1
  1835   003AC2  C053  F003         	movff	USART_init@baud_rate+2,___xxtofl@val+2
  1836   003AC6  C054  F004         	movff	USART_init@baud_rate+3,___xxtofl@val+3
  1837   003ACA  0E01               	movlw	1
  1838   003ACC  EC0A  F018         	call	___xxtofl
  1839   003AD0  C001  F00F         	movff	?___xxtofl,___flmul@b
  1840   003AD4  C002  F010         	movff	?___xxtofl+1,___flmul@b+1
  1841   003AD8  C003  F011         	movff	?___xxtofl+2,___flmul@b+2
  1842   003ADC  C004  F012         	movff	?___xxtofl+3,___flmul@b+3
  1843   003AE0  EC81  F00B         	call	___flmul	;wreg free
  1844   003AE4  C00F  F02C         	movff	?___flmul,___fldiv@a
  1845   003AE8  C010  F02D         	movff	?___flmul+1,___fldiv@a+1
  1846   003AEC  C011  F02E         	movff	?___flmul+2,___fldiv@a+2
  1847   003AF0  C012  F02F         	movff	?___flmul+3,___fldiv@a+3
  1848   003AF4  0E00               	movlw	0
  1849   003AF6  6E28               	movwf	___fldiv@b^0,c
  1850   003AF8  0E24               	movlw	36
  1851   003AFA  6E29               	movwf	(___fldiv@b+1)^0,c
  1852   003AFC  0EF4               	movlw	244
  1853   003AFE  6E2A               	movwf	(___fldiv@b+2)^0,c
  1854   003B00  0E4A               	movlw	74
  1855   003B02  6E2B               	movwf	(___fldiv@b+3)^0,c
  1856   003B04  ECA0  F011         	call	___fldiv	;wreg free
  1857   003B08  C028  F041         	movff	?___fldiv,___fladd@b
  1858   003B0C  C029  F042         	movff	?___fldiv+1,___fladd@b+1
  1859   003B10  C02A  F043         	movff	?___fldiv+2,___fladd@b+2
  1860   003B14  C02B  F044         	movff	?___fldiv+3,___fladd@b+3
  1861   003B18  0E00               	movlw	0
  1862   003B1A  6E45               	movwf	___fladd@a^0,c
  1863   003B1C  0E00               	movlw	0
  1864   003B1E  6E46               	movwf	(___fladd@a+1)^0,c
  1865   003B20  0E80               	movlw	128
  1866   003B22  6E47               	movwf	(___fladd@a+2)^0,c
  1867   003B24  0EBF               	movlw	191
  1868   003B26  6E48               	movwf	(___fladd@a+3)^0,c
  1869   003B28  ECE5  F006         	call	___fladd	;wreg free
  1870   003B2C  C041  F055         	movff	?___fladd,USART_init@temp
  1871   003B30  C042  F056         	movff	?___fladd+1,USART_init@temp+1
  1872   003B34  C043  F057         	movff	?___fladd+2,USART_init@temp+2
  1873   003B38  C044  F058         	movff	?___fladd+3,USART_init@temp+3
  1874   003B3C                     
  1875                           ;UART_Driver.c: 25:     if (temp>255) BRGH = 1;
  1876   003B3C  0E00               	movlw	0
  1877   003B3E  6E01               	movwf	___flge@ff1^0,c
  1878   003B40  0E00               	movlw	0
  1879   003B42  6E02               	movwf	(___flge@ff1+1)^0,c
  1880   003B44  0E7F               	movlw	127
  1881   003B46  6E03               	movwf	(___flge@ff1+2)^0,c
  1882   003B48  0E43               	movlw	67
  1883   003B4A  6E04               	movwf	(___flge@ff1+3)^0,c
  1884   003B4C  C055  F005         	movff	USART_init@temp,___flge@ff2
  1885   003B50  C056  F006         	movff	USART_init@temp+1,___flge@ff2+1
  1886   003B54  C057  F007         	movff	USART_init@temp+2,___flge@ff2+2
  1887   003B58  C058  F008         	movff	USART_init@temp+3,___flge@ff2+3
  1888   003B5C  ECCF  F01C         	call	___flge	;wreg free
  1889   003B60  B0D8               	btfsc	status,0,c
  1890   003B62  EFB5  F01D         	goto	u5071
  1891   003B66  EFB7  F01D         	goto	u5070
  1892   003B6A                     u5071:
  1893   003B6A  EFB8  F01D         	goto	l5004
  1894   003B6E                     u5070:
  1895   003B6E  84AC               	bsf	4012,2,c	;volatile
  1896   003B70                     l5004:
  1897                           
  1898                           ;UART_Driver.c: 26:     SPBRG = (unsigned char)temp;
  1899   003B70  C055  F001         	movff	USART_init@temp,___fltol@f1
  1900   003B74  C056  F002         	movff	USART_init@temp+1,___fltol@f1+1
  1901   003B78  C057  F003         	movff	USART_init@temp+2,___fltol@f1+2
  1902   003B7C  C058  F004         	movff	USART_init@temp+3,___fltol@f1+3
  1903   003B80  EC4C  F01C         	call	___fltol	;wreg free
  1904   003B84  5001               	movf	?___fltol^0,w,c
  1905   003B86  6EAF               	movwf	175,c	;volatile
  1906   003B88                     
  1907                           ;UART_Driver.c: 28:     TXSTA = 0x20;
  1908   003B88  0E20               	movlw	32
  1909   003B8A  6EAC               	movwf	172,c	;volatile
  1910   003B8C                     
  1911                           ;UART_Driver.c: 29:     RCSTA = 0x90;
  1912   003B8C  0E90               	movlw	144
  1913   003B8E  6EAB               	movwf	171,c	;volatile
  1914   003B90                     
  1915                           ;UART_Driver.c: 31:     CREN = 1;
  1916   003B90  88AB               	bsf	4011,4,c	;volatile
  1917   003B92                     
  1918                           ;UART_Driver.c: 32:     TXEN = 1;
  1919   003B92  8AAC               	bsf	4012,5,c	;volatile
  1920   003B94  0012               	return		;funcret
  1921   003B96                     __end_of_USART_init:
  1922                           	callstack 0
  1923                           
  1924 ;; *************** function ___xxtofl *****************
  1925 ;; Defined at:
  1926 ;;		line 10 in file "C:\Program Files\Microchip\xc8\v2.40\pic\sources\c99\common\xxtofl.c"
  1927 ;; Parameters:    Size  Location     Type
  1928 ;;  sign            1    wreg     unsigned char 
  1929 ;;  val             4    0[COMRAM] long 
  1930 ;; Auto vars:     Size  Location     Type
  1931 ;;  sign            1    8[COMRAM] unsigned char 
  1932 ;;  arg             4   10[COMRAM] unsigned long 
  1933 ;;  exp             1    9[COMRAM] unsigned char 
  1934 ;; Return value:  Size  Location     Type
  1935 ;;                  4    0[COMRAM] unsigned char 
  1936 ;; Registers used:
  1937 ;;		wreg, status,2, status,0
  1938 ;; Tracked objects:
  1939 ;;		On entry : 0/0
  1940 ;;		On exit  : 0/0
  1941 ;;		Unchanged: 0/0
  1942 ;; Data sizes:     COMRAM   BANK0   BANK1   BANK2   BANK3   BANK4   BANK5   BANK6   BANK7
  1943 ;;      Params:         4       0       0       0       0       0       0       0       0
  1944 ;;      Locals:         6       0       0       0       0       0       0       0       0
  1945 ;;      Temps:          4       0       0       0       0       0       0       0       0
  1946 ;;      Totals:        14       0       0       0       0       0       0       0       0
  1947 ;;Total ram usage:       14 bytes
  1948 ;; Hardware stack levels used: 1
  1949 ;; Hardware stack levels required when called: 1
  1950 ;; This function calls:
  1951 ;;		Nothing
  1952 ;; This function is called by:
  1953 ;;		_USART_init
  1954 ;; This function uses a non-reentrant model
  1955 ;;
  1956                           
  1957                           	psect	text2
  1958   003014                     __ptext2:
  1959                           	callstack 0
  1960   003014                     ___xxtofl:
  1961                           	callstack 28
  1962                           
  1963                           ;incstack = 0
  1964                           ;___xxtofl@sign stored from wreg
  1965   003014  6E09               	movwf	___xxtofl@sign^0,c
  1966   003016  5009               	movf	___xxtofl@sign^0,w,c
  1967   003018  B4D8               	btfsc	status,2,c
  1968   00301A  EF11  F018         	goto	u4641
  1969   00301E  EF13  F018         	goto	u4640
  1970   003022                     u4641:
  1971   003022  EF35  F018         	goto	l1325
  1972   003026                     u4640:
  1973   003026  BE04               	btfsc	(___xxtofl@val+3)^0,7,c
  1974   003028  EF1A  F018         	goto	u4650
  1975   00302C  EF18  F018         	goto	u4651
  1976   003030                     u4651:
  1977   003030  EF35  F018         	goto	l1325
  1978   003034                     u4650:
  1979   003034  C001  F005         	movff	___xxtofl@val,??___xxtofl
  1980   003038  C002  F006         	movff	___xxtofl@val+1,??___xxtofl+1
  1981   00303C  C003  F007         	movff	___xxtofl@val+2,??___xxtofl+2
  1982   003040  C004  F008         	movff	___xxtofl@val+3,??___xxtofl+3
  1983   003044  1E05               	comf	??___xxtofl^0,f,c
  1984   003046  1E06               	comf	(??___xxtofl+1)^0,f,c
  1985   003048  1E07               	comf	(??___xxtofl+2)^0,f,c
  1986   00304A  1E08               	comf	(??___xxtofl+3)^0,f,c
  1987   00304C  2A05               	incf	??___xxtofl^0,f,c
  1988   00304E  0E00               	movlw	0
  1989   003050  2206               	addwfc	(??___xxtofl+1)^0,f,c
  1990   003052  2207               	addwfc	(??___xxtofl+2)^0,f,c
  1991   003054  2208               	addwfc	(??___xxtofl+3)^0,f,c
  1992   003056  C005  F00B         	movff	??___xxtofl,___xxtofl@arg
  1993   00305A  C006  F00C         	movff	??___xxtofl+1,___xxtofl@arg+1
  1994   00305E  C007  F00D         	movff	??___xxtofl+2,___xxtofl@arg+2
  1995   003062  C008  F00E         	movff	??___xxtofl+3,___xxtofl@arg+3
  1996   003066  EF3D  F018         	goto	l4634
  1997   00306A                     l1325:
  1998   00306A  C001  F00B         	movff	___xxtofl@val,___xxtofl@arg
  1999   00306E  C002  F00C         	movff	___xxtofl@val+1,___xxtofl@arg+1
  2000   003072  C003  F00D         	movff	___xxtofl@val+2,___xxtofl@arg+2
  2001   003076  C004  F00E         	movff	___xxtofl@val+3,___xxtofl@arg+3
  2002   00307A                     l4634:
  2003   00307A  5001               	movf	___xxtofl@val^0,w,c
  2004   00307C  1002               	iorwf	(___xxtofl@val+1)^0,w,c
  2005   00307E  1003               	iorwf	(___xxtofl@val+2)^0,w,c
  2006   003080  1004               	iorwf	(___xxtofl@val+3)^0,w,c
  2007   003082  A4D8               	btfss	status,2,c
  2008   003084  EF46  F018         	goto	u4661
  2009   003088  EF48  F018         	goto	u4660
  2010   00308C                     u4661:
  2011   00308C  EF52  F018         	goto	l4640
  2012   003090                     u4660:
  2013   003090  0E00               	movlw	0
  2014   003092  6E01               	movwf	?___xxtofl^0,c
  2015   003094  0E00               	movlw	0
  2016   003096  6E02               	movwf	(?___xxtofl+1)^0,c
  2017   003098  0E00               	movlw	0
  2018   00309A  6E03               	movwf	(?___xxtofl+2)^0,c
  2019   00309C  0E00               	movlw	0
  2020   00309E  6E04               	movwf	(?___xxtofl+3)^0,c
  2021   0030A0  EFE3  F018         	goto	l1328
  2022   0030A4                     l4640:
  2023   0030A4  0E96               	movlw	150
  2024   0030A6  6E0A               	movwf	___xxtofl@exp^0,c
  2025   0030A8  EF5C  F018         	goto	l4644
  2026   0030AC                     l4642:
  2027   0030AC  2A0A               	incf	___xxtofl@exp^0,f,c
  2028   0030AE  90D8               	bcf	status,0,c
  2029   0030B0  320E               	rrcf	(___xxtofl@arg+3)^0,f,c
  2030   0030B2  320D               	rrcf	(___xxtofl@arg+2)^0,f,c
  2031   0030B4  320C               	rrcf	(___xxtofl@arg+1)^0,f,c
  2032   0030B6  320B               	rrcf	___xxtofl@arg^0,f,c
  2033   0030B8                     l4644:
  2034   0030B8  0E00               	movlw	0
  2035   0030BA  140B               	andwf	___xxtofl@arg^0,w,c
  2036   0030BC  6E05               	movwf	??___xxtofl^0,c
  2037   0030BE  0E00               	movlw	0
  2038   0030C0  140C               	andwf	(___xxtofl@arg+1)^0,w,c
  2039   0030C2  6E06               	movwf	(??___xxtofl+1)^0,c
  2040   0030C4  0E00               	movlw	0
  2041   0030C6  140D               	andwf	(___xxtofl@arg+2)^0,w,c
  2042   0030C8  6E07               	movwf	(??___xxtofl+2)^0,c
  2043   0030CA  0EFE               	movlw	254
  2044   0030CC  140E               	andwf	(___xxtofl@arg+3)^0,w,c
  2045   0030CE  6E08               	movwf	(??___xxtofl+3)^0,c
  2046   0030D0  5005               	movf	??___xxtofl^0,w,c
  2047   0030D2  1006               	iorwf	(??___xxtofl+1)^0,w,c
  2048   0030D4  1007               	iorwf	(??___xxtofl+2)^0,w,c
  2049   0030D6  1008               	iorwf	(??___xxtofl+3)^0,w,c
  2050   0030D8  A4D8               	btfss	status,2,c
  2051   0030DA  EF71  F018         	goto	u4671
  2052   0030DE  EF73  F018         	goto	u4670
  2053   0030E2                     u4671:
  2054   0030E2  EF56  F018         	goto	l4642
  2055   0030E6                     u4670:
  2056   0030E6  EF81  F018         	goto	l1332
  2057   0030EA                     l4646:
  2058   0030EA  2A0A               	incf	___xxtofl@exp^0,f,c
  2059   0030EC  0E01               	movlw	1
  2060   0030EE  260B               	addwf	___xxtofl@arg^0,f,c
  2061   0030F0  0E00               	movlw	0
  2062   0030F2  220C               	addwfc	(___xxtofl@arg+1)^0,f,c
  2063   0030F4  220D               	addwfc	(___xxtofl@arg+2)^0,f,c
  2064   0030F6  220E               	addwfc	(___xxtofl@arg+3)^0,f,c
  2065   0030F8  90D8               	bcf	status,0,c
  2066   0030FA  320E               	rrcf	(___xxtofl@arg+3)^0,f,c
  2067   0030FC  320D               	rrcf	(___xxtofl@arg+2)^0,f,c
  2068   0030FE  320C               	rrcf	(___xxtofl@arg+1)^0,f,c
  2069   003100  320B               	rrcf	___xxtofl@arg^0,f,c
  2070   003102                     l1332:
  2071   003102  0E00               	movlw	0
  2072   003104  140B               	andwf	___xxtofl@arg^0,w,c
  2073   003106  6E05               	movwf	??___xxtofl^0,c
  2074   003108  0E00               	movlw	0
  2075   00310A  140C               	andwf	(___xxtofl@arg+1)^0,w,c
  2076   00310C  6E06               	movwf	(??___xxtofl+1)^0,c
  2077   00310E  0E00               	movlw	0
  2078   003110  140D               	andwf	(___xxtofl@arg+2)^0,w,c
  2079   003112  6E07               	movwf	(??___xxtofl+2)^0,c
  2080   003114  0EFF               	movlw	255
  2081   003116  140E               	andwf	(___xxtofl@arg+3)^0,w,c
  2082   003118  6E08               	movwf	(??___xxtofl+3)^0,c
  2083   00311A  5005               	movf	??___xxtofl^0,w,c
  2084   00311C  1006               	iorwf	(??___xxtofl+1)^0,w,c
  2085   00311E  1007               	iorwf	(??___xxtofl+2)^0,w,c
  2086   003120  1008               	iorwf	(??___xxtofl+3)^0,w,c
  2087   003122  A4D8               	btfss	status,2,c
  2088   003124  EF96  F018         	goto	u4681
  2089   003128  EF98  F018         	goto	u4680
  2090   00312C                     u4681:
  2091   00312C  EF75  F018         	goto	l4646
  2092   003130                     u4680:
  2093   003130  EFA0  F018         	goto	l4654
  2094   003134                     l4652:
  2095   003134  060A               	decf	___xxtofl@exp^0,f,c
  2096   003136  90D8               	bcf	status,0,c
  2097   003138  360B               	rlcf	___xxtofl@arg^0,f,c
  2098   00313A  360C               	rlcf	(___xxtofl@arg+1)^0,f,c
  2099   00313C  360D               	rlcf	(___xxtofl@arg+2)^0,f,c
  2100   00313E  360E               	rlcf	(___xxtofl@arg+3)^0,f,c
  2101   003140                     l4654:
  2102   003140  BE0D               	btfsc	(___xxtofl@arg+2)^0,7,c
  2103   003142  EFA5  F018         	goto	u4691
  2104   003146  EFA7  F018         	goto	u4690
  2105   00314A                     u4691:
  2106   00314A  EFAF  F018         	goto	l1339
  2107   00314E                     u4690:
  2108   00314E  0E02               	movlw	2
  2109   003150  600A               	cpfslt	___xxtofl@exp^0,c
  2110   003152  EFAD  F018         	goto	u4701
  2111   003156  EFAF  F018         	goto	u4700
  2112   00315A                     u4701:
  2113   00315A  EF9A  F018         	goto	l4652
  2114   00315E                     u4700:
  2115   00315E                     l1339:
  2116   00315E  B00A               	btfsc	___xxtofl@exp^0,0,c
  2117   003160  EFB4  F018         	goto	u4711
  2118   003164  EFB6  F018         	goto	u4710
  2119   003168                     u4711:
  2120   003168  EFB7  F018         	goto	l4660
  2121   00316C                     u4710:
  2122   00316C  9E0D               	bcf	(___xxtofl@arg+2)^0,7,c
  2123   00316E                     l4660:
  2124   00316E  90D8               	bcf	status,0,c
  2125   003170  320A               	rrcf	___xxtofl@exp^0,f,c
  2126   003172  C00A  F005         	movff	___xxtofl@exp,??___xxtofl
  2127   003176  6A06               	clrf	(??___xxtofl+1)^0,c
  2128   003178  6A07               	clrf	(??___xxtofl+2)^0,c
  2129   00317A  6A08               	clrf	(??___xxtofl+3)^0,c
  2130   00317C  C005  F008         	movff	??___xxtofl,??___xxtofl+3
  2131   003180  6A07               	clrf	(??___xxtofl+2)^0,c
  2132   003182  6A06               	clrf	(??___xxtofl+1)^0,c
  2133   003184  6A05               	clrf	??___xxtofl^0,c
  2134   003186  5005               	movf	??___xxtofl^0,w,c
  2135   003188  120B               	iorwf	___xxtofl@arg^0,f,c
  2136   00318A  5006               	movf	(??___xxtofl+1)^0,w,c
  2137   00318C  120C               	iorwf	(___xxtofl@arg+1)^0,f,c
  2138   00318E  5007               	movf	(??___xxtofl+2)^0,w,c
  2139   003190  120D               	iorwf	(___xxtofl@arg+2)^0,f,c
  2140   003192  5008               	movf	(??___xxtofl+3)^0,w,c
  2141   003194  120E               	iorwf	(___xxtofl@arg+3)^0,f,c
  2142   003196  5009               	movf	___xxtofl@sign^0,w,c
  2143   003198  B4D8               	btfsc	status,2,c
  2144   00319A  EFD1  F018         	goto	u4721
  2145   00319E  EFD3  F018         	goto	u4720
  2146   0031A2                     u4721:
  2147   0031A2  EFDB  F018         	goto	l4670
  2148   0031A6                     u4720:
  2149   0031A6  BE04               	btfsc	(___xxtofl@val+3)^0,7,c
  2150   0031A8  EFDA  F018         	goto	u4730
  2151   0031AC  EFD8  F018         	goto	u4731
  2152   0031B0                     u4731:
  2153   0031B0  EFDB  F018         	goto	l4670
  2154   0031B4                     u4730:
  2155   0031B4  8E0E               	bsf	(___xxtofl@arg+3)^0,7,c
  2156   0031B6                     l4670:
  2157   0031B6  C00B  F001         	movff	___xxtofl@arg,?___xxtofl
  2158   0031BA  C00C  F002         	movff	___xxtofl@arg+1,?___xxtofl+1
  2159   0031BE  C00D  F003         	movff	___xxtofl@arg+2,?___xxtofl+2
  2160   0031C2  C00E  F004         	movff	___xxtofl@arg+3,?___xxtofl+3
  2161   0031C6                     l1328:
  2162   0031C6  0012               	return		;funcret
  2163   0031C8                     __end_of___xxtofl:
  2164                           	callstack 0
  2165                           
  2166 ;; *************** function ___fltol *****************
  2167 ;; Defined at:
  2168 ;;		line 43 in file "C:\Program Files\Microchip\xc8\v2.40\pic\sources\c99\common\fltol.c"
  2169 ;; Parameters:    Size  Location     Type
  2170 ;;  f1              4    0[COMRAM] unsigned char 
  2171 ;; Auto vars:     Size  Location     Type
  2172 ;;  exp1            1    9[COMRAM] unsigned char 
  2173 ;;  sign1           1    8[COMRAM] unsigned char 
  2174 ;; Return value:  Size  Location     Type
  2175 ;;                  4    0[COMRAM] long 
  2176 ;; Registers used:
  2177 ;;		wreg, status,2, status,0
  2178 ;; Tracked objects:
  2179 ;;		On entry : 0/0
  2180 ;;		On exit  : 0/0
  2181 ;;		Unchanged: 0/0
  2182 ;; Data sizes:     COMRAM   BANK0   BANK1   BANK2   BANK3   BANK4   BANK5   BANK6   BANK7
  2183 ;;      Params:         4       0       0       0       0       0       0       0       0
  2184 ;;      Locals:         2       0       0       0       0       0       0       0       0
  2185 ;;      Temps:          4       0       0       0       0       0       0       0       0
  2186 ;;      Totals:        10       0       0       0       0       0       0       0       0
  2187 ;;Total ram usage:       10 bytes
  2188 ;; Hardware stack levels used: 1
  2189 ;; Hardware stack levels required when called: 1
  2190 ;; This function calls:
  2191 ;;		Nothing
  2192 ;; This function is called by:
  2193 ;;		_USART_init
  2194 ;; This function uses a non-reentrant model
  2195 ;;
  2196                           
  2197                           	psect	text3
  2198   003898                     __ptext3:
  2199                           	callstack 0
  2200   003898                     ___fltol:
  2201                           	callstack 28
  2202   003898  3403               	rlcf	(___fltol@f1+2)^0,w,c
  2203   00389A  3404               	rlcf	(___fltol@f1+3)^0,w,c
  2204   00389C  6E0A               	movwf	___fltol@exp1^0,c
  2205   00389E  500A               	movf	___fltol@exp1^0,w,c
  2206   0038A0  A4D8               	btfss	status,2,c
  2207   0038A2  EF55  F01C         	goto	u4571
  2208   0038A6  EF57  F01C         	goto	u4570
  2209   0038AA                     u4571:
  2210   0038AA  EF61  F01C         	goto	l4590
  2211   0038AE                     u4570:
  2212   0038AE                     l4586:
  2213   0038AE  0E00               	movlw	0
  2214   0038B0  6E01               	movwf	?___fltol^0,c
  2215   0038B2  0E00               	movlw	0
  2216   0038B4  6E02               	movwf	(?___fltol+1)^0,c
  2217   0038B6  0E00               	movlw	0
  2218   0038B8  6E03               	movwf	(?___fltol+2)^0,c
  2219   0038BA  0E00               	movlw	0
  2220   0038BC  6E04               	movwf	(?___fltol+3)^0,c
  2221   0038BE  EFCE  F01C         	goto	l967
  2222   0038C2                     l4590:
  2223   0038C2  C001  F005         	movff	___fltol@f1,??___fltol
  2224   0038C6  C002  F006         	movff	___fltol@f1+1,??___fltol+1
  2225   0038CA  C003  F007         	movff	___fltol@f1+2,??___fltol+2
  2226   0038CE  C004  F008         	movff	___fltol@f1+3,??___fltol+3
  2227   0038D2  0E20               	movlw	32
  2228   0038D4  EF71  F01C         	goto	u4580
  2229   0038D8                     u4585:
  2230   0038D8  90D8               	bcf	status,0,c
  2231   0038DA  3208               	rrcf	(??___fltol+3)^0,f,c
  2232   0038DC  3207               	rrcf	(??___fltol+2)^0,f,c
  2233   0038DE  3206               	rrcf	(??___fltol+1)^0,f,c
  2234   0038E0  3205               	rrcf	??___fltol^0,f,c
  2235   0038E2                     u4580:
  2236   0038E2  2EE8               	decfsz	wreg,f,c
  2237   0038E4  EF6C  F01C         	goto	u4585
  2238   0038E8  5005               	movf	??___fltol^0,w,c
  2239   0038EA  6E09               	movwf	___fltol@sign1^0,c
  2240   0038EC  8E03               	bsf	(___fltol@f1+2)^0,7,c
  2241   0038EE  0EFF               	movlw	255
  2242   0038F0  1601               	andwf	___fltol@f1^0,f,c
  2243   0038F2  0EFF               	movlw	255
  2244   0038F4  1602               	andwf	(___fltol@f1+1)^0,f,c
  2245   0038F6  0EFF               	movlw	255
  2246   0038F8  1603               	andwf	(___fltol@f1+2)^0,f,c
  2247   0038FA  0E00               	movlw	0
  2248   0038FC  1604               	andwf	(___fltol@f1+3)^0,f,c
  2249   0038FE  0E96               	movlw	150
  2250   003900  5E0A               	subwf	___fltol@exp1^0,f,c
  2251   003902  BE0A               	btfsc	___fltol@exp1^0,7,c
  2252   003904  EF88  F01C         	goto	u4590
  2253   003908  EF86  F01C         	goto	u4591
  2254   00390C                     u4591:
  2255   00390C  EF9E  F01C         	goto	l4610
  2256   003910                     u4590:
  2257   003910  500A               	movf	___fltol@exp1^0,w,c
  2258   003912  0A80               	xorlw	128
  2259   003914  0F97               	addlw	151
  2260   003916  B0D8               	btfsc	status,0,c
  2261   003918  EF90  F01C         	goto	u4601
  2262   00391C  EF92  F01C         	goto	u4600
  2263   003920                     u4601:
  2264   003920  EF94  F01C         	goto	l4606
  2265   003924                     u4600:
  2266   003924  EF57  F01C         	goto	l4586
  2267   003928                     l4606:
  2268   003928  90D8               	bcf	status,0,c
  2269   00392A  3204               	rrcf	(___fltol@f1+3)^0,f,c
  2270   00392C  3203               	rrcf	(___fltol@f1+2)^0,f,c
  2271   00392E  3202               	rrcf	(___fltol@f1+1)^0,f,c
  2272   003930  3201               	rrcf	___fltol@f1^0,f,c
  2273   003932  3E0A               	incfsz	___fltol@exp1^0,f,c
  2274   003934  EF94  F01C         	goto	l4606
  2275   003938  EFB6  F01C         	goto	l4620
  2276   00393C                     l4610:
  2277   00393C  0E1F               	movlw	31
  2278   00393E  640A               	cpfsgt	___fltol@exp1^0,c
  2279   003940  EFA4  F01C         	goto	u4611
  2280   003944  EFA6  F01C         	goto	u4610
  2281   003948                     u4611:
  2282   003948  EFAE  F01C         	goto	l4618
  2283   00394C                     u4610:
  2284   00394C  EF57  F01C         	goto	l4586
  2285   003950                     l4616:
  2286   003950  90D8               	bcf	status,0,c
  2287   003952  3601               	rlcf	___fltol@f1^0,f,c
  2288   003954  3602               	rlcf	(___fltol@f1+1)^0,f,c
  2289   003956  3603               	rlcf	(___fltol@f1+2)^0,f,c
  2290   003958  3604               	rlcf	(___fltol@f1+3)^0,f,c
  2291   00395A  060A               	decf	___fltol@exp1^0,f,c
  2292   00395C                     l4618:
  2293   00395C  500A               	movf	___fltol@exp1^0,w,c
  2294   00395E  A4D8               	btfss	status,2,c
  2295   003960  EFB4  F01C         	goto	u4621
  2296   003964  EFB6  F01C         	goto	u4620
  2297   003968                     u4621:
  2298   003968  EFA8  F01C         	goto	l4616
  2299   00396C                     u4620:
  2300   00396C                     l4620:
  2301   00396C  5009               	movf	___fltol@sign1^0,w,c
  2302   00396E  B4D8               	btfsc	status,2,c
  2303   003970  EFBC  F01C         	goto	u4631
  2304   003974  EFBE  F01C         	goto	u4630
  2305   003978                     u4631:
  2306   003978  EFC6  F01C         	goto	l4624
  2307   00397C                     u4630:
  2308   00397C  1E04               	comf	(___fltol@f1+3)^0,f,c
  2309   00397E  1E03               	comf	(___fltol@f1+2)^0,f,c
  2310   003980  1E02               	comf	(___fltol@f1+1)^0,f,c
  2311   003982  6C01               	negf	___fltol@f1^0,c
  2312   003984  0E00               	movlw	0
  2313   003986  2202               	addwfc	(___fltol@f1+1)^0,f,c
  2314   003988  2203               	addwfc	(___fltol@f1+2)^0,f,c
  2315   00398A  2204               	addwfc	(___fltol@f1+3)^0,f,c
  2316   00398C                     l4624:
  2317   00398C  C001  F001         	movff	___fltol@f1,?___fltol
  2318   003990  C002  F002         	movff	___fltol@f1+1,?___fltol+1
  2319   003994  C003  F003         	movff	___fltol@f1+2,?___fltol+2
  2320   003998  C004  F004         	movff	___fltol@f1+3,?___fltol+3
  2321   00399C                     l967:
  2322   00399C  0012               	return		;funcret
  2323   00399E                     __end_of___fltol:
  2324                           	callstack 0
  2325                           
  2326 ;; *************** function ___flmul *****************
  2327 ;; Defined at:
  2328 ;;		line 8 in file "C:\Program Files\Microchip\xc8\v2.40\pic\sources\c99\common\sprcmul.c"
  2329 ;; Parameters:    Size  Location     Type
  2330 ;;  b               4   14[COMRAM] long 
  2331 ;;  a               4   18[COMRAM] long 
  2332 ;; Auto vars:     Size  Location     Type
  2333 ;;  prod            4   33[COMRAM] struct .
  2334 ;;  grs             4   27[COMRAM] unsigned long 
  2335 ;;  temp            2   37[COMRAM] struct .
  2336 ;;  bexp            1   32[COMRAM] unsigned char 
  2337 ;;  aexp            1   31[COMRAM] unsigned char 
  2338 ;;  sign            1   26[COMRAM] unsigned char 
  2339 ;; Return value:  Size  Location     Type
  2340 ;;                  4   14[COMRAM] unsigned char 
  2341 ;; Registers used:
  2342 ;;		wreg, status,2, status,0, prodl, prodh
  2343 ;; Tracked objects:
  2344 ;;		On entry : 0/0
  2345 ;;		On exit  : 0/0
  2346 ;;		Unchanged: 0/0
  2347 ;; Data sizes:     COMRAM   BANK0   BANK1   BANK2   BANK3   BANK4   BANK5   BANK6   BANK7
  2348 ;;      Params:         8       0       0       0       0       0       0       0       0
  2349 ;;      Locals:        13       0       0       0       0       0       0       0       0
  2350 ;;      Temps:          4       0       0       0       0       0       0       0       0
  2351 ;;      Totals:        25       0       0       0       0       0       0       0       0
  2352 ;;Total ram usage:       25 bytes
  2353 ;; Hardware stack levels used: 1
  2354 ;; Hardware stack levels required when called: 1
  2355 ;; This function calls:
  2356 ;;		Nothing
  2357 ;; This function is called by:
  2358 ;;		_USART_init
  2359 ;; This function uses a non-reentrant model
  2360 ;;
  2361                           
  2362                           	psect	text4
  2363   001702                     __ptext4:
  2364                           	callstack 0
  2365   001702                     ___flmul:
  2366                           	callstack 28
  2367   001702  5012               	movf	(___flmul@b+3)^0,w,c
  2368   001704  0B80               	andlw	128
  2369   001706  6E1B               	movwf	___flmul@sign^0,c
  2370   001708  5012               	movf	(___flmul@b+3)^0,w,c
  2371   00170A  2412               	addwf	(___flmul@b+3)^0,w,c
  2372   00170C  6E21               	movwf	___flmul@bexp^0,c
  2373   00170E  AE11               	btfss	(___flmul@b+2)^0,7,c
  2374   001710  EF8C  F00B         	goto	u4211
  2375   001714  EF8E  F00B         	goto	u4210
  2376   001718                     u4211:
  2377   001718  EF8F  F00B         	goto	l4358
  2378   00171C                     u4210:
  2379   00171C  8021               	bsf	___flmul@bexp^0,0,c
  2380   00171E                     l4358:
  2381   00171E  5021               	movf	___flmul@bexp^0,w,c
  2382   001720  B4D8               	btfsc	status,2,c
  2383   001722  EF95  F00B         	goto	u4221
  2384   001726  EF97  F00B         	goto	u4220
  2385   00172A                     u4221:
  2386   00172A  EFAA  F00B         	goto	l4366
  2387   00172E                     u4220:
  2388   00172E  2821               	incf	___flmul@bexp^0,w,c
  2389   001730  A4D8               	btfss	status,2,c
  2390   001732  EF9D  F00B         	goto	u4231
  2391   001736  EF9F  F00B         	goto	u4230
  2392   00173A                     u4231:
  2393   00173A  EFA7  F00B         	goto	l4364
  2394   00173E                     u4230:
  2395   00173E  0E00               	movlw	0
  2396   001740  6E0F               	movwf	___flmul@b^0,c
  2397   001742  0E00               	movlw	0
  2398   001744  6E10               	movwf	(___flmul@b+1)^0,c
  2399   001746  0E00               	movlw	0
  2400   001748  6E11               	movwf	(___flmul@b+2)^0,c
  2401   00174A  0E00               	movlw	0
  2402   00174C  6E12               	movwf	(___flmul@b+3)^0,c
  2403   00174E                     l4364:
  2404   00174E  8E11               	bsf	(___flmul@b+2)^0,7,c
  2405   001750  EFB2  F00B         	goto	l4368
  2406   001754                     l4366:
  2407   001754  0E00               	movlw	0
  2408   001756  6E0F               	movwf	___flmul@b^0,c
  2409   001758  0E00               	movlw	0
  2410   00175A  6E10               	movwf	(___flmul@b+1)^0,c
  2411   00175C  0E00               	movlw	0
  2412   00175E  6E11               	movwf	(___flmul@b+2)^0,c
  2413   001760  0E00               	movlw	0
  2414   001762  6E12               	movwf	(___flmul@b+3)^0,c
  2415   001764                     l4368:
  2416   001764  5016               	movf	(___flmul@a+3)^0,w,c
  2417   001766  0B80               	andlw	128
  2418   001768  1A1B               	xorwf	___flmul@sign^0,f,c
  2419   00176A  5016               	movf	(___flmul@a+3)^0,w,c
  2420   00176C  2416               	addwf	(___flmul@a+3)^0,w,c
  2421   00176E  6E20               	movwf	___flmul@aexp^0,c
  2422   001770  AE15               	btfss	(___flmul@a+2)^0,7,c
  2423   001772  EFBD  F00B         	goto	u4241
  2424   001776  EFBF  F00B         	goto	u4240
  2425   00177A                     u4241:
  2426   00177A  EFC0  F00B         	goto	l4376
  2427   00177E                     u4240:
  2428   00177E  8020               	bsf	___flmul@aexp^0,0,c
  2429   001780                     l4376:
  2430   001780  5020               	movf	___flmul@aexp^0,w,c
  2431   001782  B4D8               	btfsc	status,2,c
  2432   001784  EFC6  F00B         	goto	u4251
  2433   001788  EFC8  F00B         	goto	u4250
  2434   00178C                     u4251:
  2435   00178C  EFDB  F00B         	goto	l4384
  2436   001790                     u4250:
  2437   001790  2820               	incf	___flmul@aexp^0,w,c
  2438   001792  A4D8               	btfss	status,2,c
  2439   001794  EFCE  F00B         	goto	u4261
  2440   001798  EFD0  F00B         	goto	u4260
  2441   00179C                     u4261:
  2442   00179C  EFD8  F00B         	goto	l4382
  2443   0017A0                     u4260:
  2444   0017A0  0E00               	movlw	0
  2445   0017A2  6E13               	movwf	___flmul@a^0,c
  2446   0017A4  0E00               	movlw	0
  2447   0017A6  6E14               	movwf	(___flmul@a+1)^0,c
  2448   0017A8  0E00               	movlw	0
  2449   0017AA  6E15               	movwf	(___flmul@a+2)^0,c
  2450   0017AC  0E00               	movlw	0
  2451   0017AE  6E16               	movwf	(___flmul@a+3)^0,c
  2452   0017B0                     l4382:
  2453   0017B0  8E15               	bsf	(___flmul@a+2)^0,7,c
  2454   0017B2  EFE3  F00B         	goto	l1284
  2455   0017B6                     l4384:
  2456   0017B6  0E00               	movlw	0
  2457   0017B8  6E13               	movwf	___flmul@a^0,c
  2458   0017BA  0E00               	movlw	0
  2459   0017BC  6E14               	movwf	(___flmul@a+1)^0,c
  2460   0017BE  0E00               	movlw	0
  2461   0017C0  6E15               	movwf	(___flmul@a+2)^0,c
  2462   0017C2  0E00               	movlw	0
  2463   0017C4  6E16               	movwf	(___flmul@a+3)^0,c
  2464   0017C6                     l1284:
  2465   0017C6  5020               	movf	___flmul@aexp^0,w,c
  2466   0017C8  B4D8               	btfsc	status,2,c
  2467   0017CA  EFE9  F00B         	goto	u4271
  2468   0017CE  EFEB  F00B         	goto	u4270
  2469   0017D2                     u4271:
  2470   0017D2  EFF3  F00B         	goto	l4388
  2471   0017D6                     u4270:
  2472   0017D6  5021               	movf	___flmul@bexp^0,w,c
  2473   0017D8  A4D8               	btfss	status,2,c
  2474   0017DA  EFF1  F00B         	goto	u4281
  2475   0017DE  EFF3  F00B         	goto	u4280
  2476   0017E2                     u4281:
  2477   0017E2  EFFD  F00B         	goto	l4392
  2478   0017E6                     u4280:
  2479   0017E6                     l4388:
  2480   0017E6  0E00               	movlw	0
  2481   0017E8  6E0F               	movwf	?___flmul^0,c
  2482   0017EA  0E00               	movlw	0
  2483   0017EC  6E10               	movwf	(?___flmul+1)^0,c
  2484   0017EE  0E00               	movlw	0
  2485   0017F0  6E11               	movwf	(?___flmul+2)^0,c
  2486   0017F2  0E00               	movlw	0
  2487   0017F4  6E12               	movwf	(?___flmul+3)^0,c
  2488   0017F6  EF95  F00D         	goto	l1288
  2489   0017FA                     l4392:
  2490   0017FA  5015               	movf	(___flmul@a+2)^0,w,c
  2491   0017FC  020F               	mulwf	___flmul@b^0,c
  2492   0017FE  CFF3 F026          	movff	prodl,___flmul@temp
  2493   001802  CFF4 F027          	movff	prodh,___flmul@temp+1
  2494   001806  5026               	movf	___flmul@temp^0,w,c
  2495   001808  6E1C               	movwf	___flmul@grs^0,c
  2496   00180A  6A1D               	clrf	(___flmul@grs+1)^0,c
  2497   00180C  6A1E               	clrf	(___flmul@grs+2)^0,c
  2498   00180E  6A1F               	clrf	(___flmul@grs+3)^0,c
  2499   001810  5027               	movf	(___flmul@temp+1)^0,w,c
  2500   001812  6E22               	movwf	___flmul@prod^0,c
  2501   001814  6A23               	clrf	(___flmul@prod+1)^0,c
  2502   001816  6A24               	clrf	(___flmul@prod+2)^0,c
  2503   001818  6A25               	clrf	(___flmul@prod+3)^0,c
  2504   00181A  5014               	movf	(___flmul@a+1)^0,w,c
  2505   00181C  0210               	mulwf	(___flmul@b+1)^0,c
  2506   00181E  CFF3 F026          	movff	prodl,___flmul@temp
  2507   001822  CFF4 F027          	movff	prodh,___flmul@temp+1
  2508   001826  5026               	movf	___flmul@temp^0,w,c
  2509   001828  261C               	addwf	___flmul@grs^0,f,c
  2510   00182A  0E00               	movlw	0
  2511   00182C  221D               	addwfc	(___flmul@grs+1)^0,f,c
  2512   00182E  221E               	addwfc	(___flmul@grs+2)^0,f,c
  2513   001830  221F               	addwfc	(___flmul@grs+3)^0,f,c
  2514   001832  5027               	movf	(___flmul@temp+1)^0,w,c
  2515   001834  2622               	addwf	___flmul@prod^0,f,c
  2516   001836  0E00               	movlw	0
  2517   001838  2223               	addwfc	(___flmul@prod+1)^0,f,c
  2518   00183A  2224               	addwfc	(___flmul@prod+2)^0,f,c
  2519   00183C  2225               	addwfc	(___flmul@prod+3)^0,f,c
  2520   00183E  5013               	movf	___flmul@a^0,w,c
  2521   001840  0211               	mulwf	(___flmul@b+2)^0,c
  2522   001842  CFF3 F026          	movff	prodl,___flmul@temp
  2523   001846  CFF4 F027          	movff	prodh,___flmul@temp+1
  2524   00184A  5026               	movf	___flmul@temp^0,w,c
  2525   00184C  261C               	addwf	___flmul@grs^0,f,c
  2526   00184E  0E00               	movlw	0
  2527   001850  221D               	addwfc	(___flmul@grs+1)^0,f,c
  2528   001852  221E               	addwfc	(___flmul@grs+2)^0,f,c
  2529   001854  221F               	addwfc	(___flmul@grs+3)^0,f,c
  2530   001856  5027               	movf	(___flmul@temp+1)^0,w,c
  2531   001858  2622               	addwf	___flmul@prod^0,f,c
  2532   00185A  0E00               	movlw	0
  2533   00185C  2223               	addwfc	(___flmul@prod+1)^0,f,c
  2534   00185E  2224               	addwfc	(___flmul@prod+2)^0,f,c
  2535   001860  2225               	addwfc	(___flmul@prod+3)^0,f,c
  2536   001862  C01E  F01F         	movff	___flmul@grs+2,___flmul@grs+3
  2537   001866  C01D  F01E         	movff	___flmul@grs+1,___flmul@grs+2
  2538   00186A  C01C  F01D         	movff	___flmul@grs,___flmul@grs+1
  2539   00186E  6A1C               	clrf	___flmul@grs^0,c
  2540   001870  5013               	movf	___flmul@a^0,w,c
  2541   001872  0210               	mulwf	(___flmul@b+1)^0,c
  2542   001874  CFF3 F026          	movff	prodl,___flmul@temp
  2543   001878  CFF4 F027          	movff	prodh,___flmul@temp+1
  2544   00187C  5026               	movf	___flmul@temp^0,w,c
  2545   00187E  261C               	addwf	___flmul@grs^0,f,c
  2546   001880  5027               	movf	(___flmul@temp+1)^0,w,c
  2547   001882  221D               	addwfc	(___flmul@grs+1)^0,f,c
  2548   001884  0E00               	movlw	0
  2549   001886  221E               	addwfc	(___flmul@grs+2)^0,f,c
  2550   001888  0E00               	movlw	0
  2551   00188A  221F               	addwfc	(___flmul@grs+3)^0,f,c
  2552   00188C  5014               	movf	(___flmul@a+1)^0,w,c
  2553   00188E  020F               	mulwf	___flmul@b^0,c
  2554   001890  CFF3 F026          	movff	prodl,___flmul@temp
  2555   001894  CFF4 F027          	movff	prodh,___flmul@temp+1
  2556   001898  5026               	movf	___flmul@temp^0,w,c
  2557   00189A  261C               	addwf	___flmul@grs^0,f,c
  2558   00189C  5027               	movf	(___flmul@temp+1)^0,w,c
  2559   00189E  221D               	addwfc	(___flmul@grs+1)^0,f,c
  2560   0018A0  0E00               	movlw	0
  2561   0018A2  221E               	addwfc	(___flmul@grs+2)^0,f,c
  2562   0018A4  0E00               	movlw	0
  2563   0018A6  221F               	addwfc	(___flmul@grs+3)^0,f,c
  2564   0018A8  C01E  F01F         	movff	___flmul@grs+2,___flmul@grs+3
  2565   0018AC  C01D  F01E         	movff	___flmul@grs+1,___flmul@grs+2
  2566   0018B0  C01C  F01D         	movff	___flmul@grs,___flmul@grs+1
  2567   0018B4  6A1C               	clrf	___flmul@grs^0,c
  2568   0018B6  5013               	movf	___flmul@a^0,w,c
  2569   0018B8  020F               	mulwf	___flmul@b^0,c
  2570   0018BA  CFF3 F026          	movff	prodl,___flmul@temp
  2571   0018BE  CFF4 F027          	movff	prodh,___flmul@temp+1
  2572   0018C2  5026               	movf	___flmul@temp^0,w,c
  2573   0018C4  261C               	addwf	___flmul@grs^0,f,c
  2574   0018C6  5027               	movf	(___flmul@temp+1)^0,w,c
  2575   0018C8  221D               	addwfc	(___flmul@grs+1)^0,f,c
  2576   0018CA  0E00               	movlw	0
  2577   0018CC  221E               	addwfc	(___flmul@grs+2)^0,f,c
  2578   0018CE  0E00               	movlw	0
  2579   0018D0  221F               	addwfc	(___flmul@grs+3)^0,f,c
  2580   0018D2  5015               	movf	(___flmul@a+2)^0,w,c
  2581   0018D4  0210               	mulwf	(___flmul@b+1)^0,c
  2582   0018D6  CFF3 F026          	movff	prodl,___flmul@temp
  2583   0018DA  CFF4 F027          	movff	prodh,___flmul@temp+1
  2584   0018DE  5026               	movf	___flmul@temp^0,w,c
  2585   0018E0  2622               	addwf	___flmul@prod^0,f,c
  2586   0018E2  5027               	movf	(___flmul@temp+1)^0,w,c
  2587   0018E4  2223               	addwfc	(___flmul@prod+1)^0,f,c
  2588   0018E6  0E00               	movlw	0
  2589   0018E8  2224               	addwfc	(___flmul@prod+2)^0,f,c
  2590   0018EA  0E00               	movlw	0
  2591   0018EC  2225               	addwfc	(___flmul@prod+3)^0,f,c
  2592   0018EE  5014               	movf	(___flmul@a+1)^0,w,c
  2593   0018F0  0211               	mulwf	(___flmul@b+2)^0,c
  2594   0018F2  CFF3 F026          	movff	prodl,___flmul@temp
  2595   0018F6  CFF4 F027          	movff	prodh,___flmul@temp+1
  2596   0018FA  5026               	movf	___flmul@temp^0,w,c
  2597   0018FC  2622               	addwf	___flmul@prod^0,f,c
  2598   0018FE  5027               	movf	(___flmul@temp+1)^0,w,c
  2599   001900  2223               	addwfc	(___flmul@prod+1)^0,f,c
  2600   001902  0E00               	movlw	0
  2601   001904  2224               	addwfc	(___flmul@prod+2)^0,f,c
  2602   001906  0E00               	movlw	0
  2603   001908  2225               	addwfc	(___flmul@prod+3)^0,f,c
  2604   00190A  5015               	movf	(___flmul@a+2)^0,w,c
  2605   00190C  0211               	mulwf	(___flmul@b+2)^0,c
  2606   00190E  CFF3 F026          	movff	prodl,___flmul@temp
  2607   001912  CFF4 F027          	movff	prodh,___flmul@temp+1
  2608   001916  5026               	movf	___flmul@temp^0,w,c
  2609   001918  6E17               	movwf	??___flmul^0,c
  2610   00191A  5027               	movf	(___flmul@temp+1)^0,w,c
  2611   00191C  6E18               	movwf	(??___flmul+1)^0,c
  2612   00191E  6A19               	clrf	(??___flmul+2)^0,c
  2613   001920  6A1A               	clrf	(??___flmul+3)^0,c
  2614   001922  C019  F01A         	movff	??___flmul+2,??___flmul+3
  2615   001926  C018  F019         	movff	??___flmul+1,??___flmul+2
  2616   00192A  C017  F018         	movff	??___flmul,??___flmul+1
  2617   00192E  6A17               	clrf	??___flmul^0,c
  2618   001930  5017               	movf	??___flmul^0,w,c
  2619   001932  2622               	addwf	___flmul@prod^0,f,c
  2620   001934  5018               	movf	(??___flmul+1)^0,w,c
  2621   001936  2223               	addwfc	(___flmul@prod+1)^0,f,c
  2622   001938  5019               	movf	(??___flmul+2)^0,w,c
  2623   00193A  2224               	addwfc	(___flmul@prod+2)^0,f,c
  2624   00193C  501A               	movf	(??___flmul+3)^0,w,c
  2625   00193E  2225               	addwfc	(___flmul@prod+3)^0,f,c
  2626   001940  C01C  F017         	movff	___flmul@grs,??___flmul
  2627   001944  C01D  F018         	movff	___flmul@grs+1,??___flmul+1
  2628   001948  C01E  F019         	movff	___flmul@grs+2,??___flmul+2
  2629   00194C  C01F  F01A         	movff	___flmul@grs+3,??___flmul+3
  2630   001950  0E19               	movlw	25
  2631   001952  EFB0  F00C         	goto	u4290
  2632   001956                     u4295:
  2633   001956  90D8               	bcf	status,0,c
  2634   001958  321A               	rrcf	(??___flmul+3)^0,f,c
  2635   00195A  3219               	rrcf	(??___flmul+2)^0,f,c
  2636   00195C  3218               	rrcf	(??___flmul+1)^0,f,c
  2637   00195E  3217               	rrcf	??___flmul^0,f,c
  2638   001960                     u4290:
  2639   001960  2EE8               	decfsz	wreg,f,c
  2640   001962  EFAB  F00C         	goto	u4295
  2641   001966  5017               	movf	??___flmul^0,w,c
  2642   001968  2622               	addwf	___flmul@prod^0,f,c
  2643   00196A  5018               	movf	(??___flmul+1)^0,w,c
  2644   00196C  2223               	addwfc	(___flmul@prod+1)^0,f,c
  2645   00196E  5019               	movf	(??___flmul+2)^0,w,c
  2646   001970  2224               	addwfc	(___flmul@prod+2)^0,f,c
  2647   001972  501A               	movf	(??___flmul+3)^0,w,c
  2648   001974  2225               	addwfc	(___flmul@prod+3)^0,f,c
  2649   001976  C01E  F01F         	movff	___flmul@grs+2,___flmul@grs+3
  2650   00197A  C01D  F01E         	movff	___flmul@grs+1,___flmul@grs+2
  2651   00197E  C01C  F01D         	movff	___flmul@grs,___flmul@grs+1
  2652   001982  6A1C               	clrf	___flmul@grs^0,c
  2653   001984  5020               	movf	___flmul@aexp^0,w,c
  2654   001986  C021  F017         	movff	___flmul@bexp,??___flmul
  2655   00198A  6A18               	clrf	(??___flmul+1)^0,c
  2656   00198C  2617               	addwf	??___flmul^0,f,c
  2657   00198E  0E00               	movlw	0
  2658   001990  2218               	addwfc	(??___flmul+1)^0,f,c
  2659   001992  0E82               	movlw	130
  2660   001994  2417               	addwf	??___flmul^0,w,c
  2661   001996  6E26               	movwf	___flmul@temp^0,c
  2662   001998  0EFF               	movlw	255
  2663   00199A  2018               	addwfc	(??___flmul+1)^0,w,c
  2664   00199C  6E27               	movwf	(___flmul@temp+1)^0,c
  2665   00199E  EFE6  F00C         	goto	l4440
  2666   0019A2                     l4434:
  2667   0019A2  90D8               	bcf	status,0,c
  2668   0019A4  3622               	rlcf	___flmul@prod^0,f,c
  2669   0019A6  3623               	rlcf	(___flmul@prod+1)^0,f,c
  2670   0019A8  3624               	rlcf	(___flmul@prod+2)^0,f,c
  2671   0019AA  3625               	rlcf	(___flmul@prod+3)^0,f,c
  2672   0019AC  AE1F               	btfss	(___flmul@grs+3)^0,7,c
  2673   0019AE  EFDB  F00C         	goto	u4301
  2674   0019B2  EFDD  F00C         	goto	u4300
  2675   0019B6                     u4301:
  2676   0019B6  EFDE  F00C         	goto	l1291
  2677   0019BA                     u4300:
  2678   0019BA  8022               	bsf	___flmul@prod^0,0,c
  2679   0019BC                     l1291:
  2680   0019BC  90D8               	bcf	status,0,c
  2681   0019BE  361C               	rlcf	___flmul@grs^0,f,c
  2682   0019C0  361D               	rlcf	(___flmul@grs+1)^0,f,c
  2683   0019C2  361E               	rlcf	(___flmul@grs+2)^0,f,c
  2684   0019C4  361F               	rlcf	(___flmul@grs+3)^0,f,c
  2685   0019C6  0626               	decf	___flmul@temp^0,f,c
  2686   0019C8  A0D8               	btfss	status,0,c
  2687   0019CA  0627               	decf	(___flmul@temp+1)^0,f,c
  2688   0019CC                     l4440:
  2689   0019CC  AE24               	btfss	(___flmul@prod+2)^0,7,c
  2690   0019CE  EFEB  F00C         	goto	u4311
  2691   0019D2  EFED  F00C         	goto	u4310
  2692   0019D6                     u4311:
  2693   0019D6  EFD1  F00C         	goto	l4434
  2694   0019DA                     u4310:
  2695   0019DA  0E00               	movlw	0
  2696   0019DC  6E20               	movwf	___flmul@aexp^0,c
  2697   0019DE  AE1F               	btfss	(___flmul@grs+3)^0,7,c
  2698   0019E0  EFF4  F00C         	goto	u4321
  2699   0019E4  EFF6  F00C         	goto	u4320
  2700   0019E8                     u4321:
  2701   0019E8  EF1A  F00D         	goto	l1293
  2702   0019EC                     u4320:
  2703   0019EC  0EFF               	movlw	255
  2704   0019EE  141C               	andwf	___flmul@grs^0,w,c
  2705   0019F0  6E17               	movwf	??___flmul^0,c
  2706   0019F2  0EFF               	movlw	255
  2707   0019F4  141D               	andwf	(___flmul@grs+1)^0,w,c
  2708   0019F6  6E18               	movwf	(??___flmul+1)^0,c
  2709   0019F8  0EFF               	movlw	255
  2710   0019FA  141E               	andwf	(___flmul@grs+2)^0,w,c
  2711   0019FC  6E19               	movwf	(??___flmul+2)^0,c
  2712   0019FE  0E7F               	movlw	127
  2713   001A00  141F               	andwf	(___flmul@grs+3)^0,w,c
  2714   001A02  6E1A               	movwf	(??___flmul+3)^0,c
  2715   001A04  5017               	movf	??___flmul^0,w,c
  2716   001A06  1018               	iorwf	(??___flmul+1)^0,w,c
  2717   001A08  1019               	iorwf	(??___flmul+2)^0,w,c
  2718   001A0A  101A               	iorwf	(??___flmul+3)^0,w,c
  2719   001A0C  B4D8               	btfsc	status,2,c
  2720   001A0E  EF0B  F00D         	goto	u4331
  2721   001A12  EF0D  F00D         	goto	u4330
  2722   001A16                     u4331:
  2723   001A16  EF11  F00D         	goto	l1294
  2724   001A1A                     u4330:
  2725   001A1A                     l4448:
  2726   001A1A  0E01               	movlw	1
  2727   001A1C  6E20               	movwf	___flmul@aexp^0,c
  2728   001A1E  EF1A  F00D         	goto	l1293
  2729   001A22                     l1294:
  2730   001A22  A022               	btfss	___flmul@prod^0,0,c
  2731   001A24  EF16  F00D         	goto	u4341
  2732   001A28  EF18  F00D         	goto	u4340
  2733   001A2C                     u4341:
  2734   001A2C  EF1A  F00D         	goto	l1293
  2735   001A30                     u4340:
  2736   001A30  EF0D  F00D         	goto	l4448
  2737   001A34                     l1293:
  2738   001A34  5020               	movf	___flmul@aexp^0,w,c
  2739   001A36  B4D8               	btfsc	status,2,c
  2740   001A38  EF20  F00D         	goto	u4351
  2741   001A3C  EF22  F00D         	goto	u4350
  2742   001A40                     u4351:
  2743   001A40  EF46  F00D         	goto	l4460
  2744   001A44                     u4350:
  2745   001A44  0E01               	movlw	1
  2746   001A46  2622               	addwf	___flmul@prod^0,f,c
  2747   001A48  0E00               	movlw	0
  2748   001A4A  2223               	addwfc	(___flmul@prod+1)^0,f,c
  2749   001A4C  2224               	addwfc	(___flmul@prod+2)^0,f,c
  2750   001A4E  2225               	addwfc	(___flmul@prod+3)^0,f,c
  2751   001A50  A025               	btfss	(___flmul@prod+3)^0,0,c
  2752   001A52  EF2D  F00D         	goto	u4361
  2753   001A56  EF2F  F00D         	goto	u4360
  2754   001A5A                     u4361:
  2755   001A5A  EF46  F00D         	goto	l4460
  2756   001A5E                     u4360:
  2757   001A5E  C022  F017         	movff	___flmul@prod,??___flmul
  2758   001A62  C023  F018         	movff	___flmul@prod+1,??___flmul+1
  2759   001A66  C024  F019         	movff	___flmul@prod+2,??___flmul+2
  2760   001A6A  C025  F01A         	movff	___flmul@prod+3,??___flmul+3
  2761   001A6E  341A               	rlcf	(??___flmul+3)^0,w,c
  2762   001A70  321A               	rrcf	(??___flmul+3)^0,f,c
  2763   001A72  3219               	rrcf	(??___flmul+2)^0,f,c
  2764   001A74  3218               	rrcf	(??___flmul+1)^0,f,c
  2765   001A76  3217               	rrcf	??___flmul^0,f,c
  2766   001A78  C017  F022         	movff	??___flmul,___flmul@prod
  2767   001A7C  C018  F023         	movff	??___flmul+1,___flmul@prod+1
  2768   001A80  C019  F024         	movff	??___flmul+2,___flmul@prod+2
  2769   001A84  C01A  F025         	movff	??___flmul+3,___flmul@prod+3
  2770   001A88  4A26               	infsnz	___flmul@temp^0,f,c
  2771   001A8A  2A27               	incf	(___flmul@temp+1)^0,f,c
  2772   001A8C                     l4460:
  2773   001A8C  BE27               	btfsc	(___flmul@temp+1)^0,7,c
  2774   001A8E  EF51  F00D         	goto	u4371
  2775   001A92  5027               	movf	(___flmul@temp+1)^0,w,c
  2776   001A94  E108               	bnz	u4370
  2777   001A96  2826               	incf	___flmul@temp^0,w,c
  2778   001A98  A0D8               	btfss	status,0,c
  2779   001A9A  EF51  F00D         	goto	u4371
  2780   001A9E  EF53  F00D         	goto	u4370
  2781   001AA2                     u4371:
  2782   001AA2  EF5D  F00D         	goto	l4464
  2783   001AA6                     u4370:
  2784   001AA6  0E00               	movlw	0
  2785   001AA8  6E22               	movwf	___flmul@prod^0,c
  2786   001AAA  0E00               	movlw	0
  2787   001AAC  6E23               	movwf	(___flmul@prod+1)^0,c
  2788   001AAE  0E80               	movlw	128
  2789   001AB0  6E24               	movwf	(___flmul@prod+2)^0,c
  2790   001AB2  0E7F               	movlw	127
  2791   001AB4  6E25               	movwf	(___flmul@prod+3)^0,c
  2792   001AB6  EF8B  F00D         	goto	l4476
  2793   001ABA                     l4464:
  2794   001ABA  BE27               	btfsc	(___flmul@temp+1)^0,7,c
  2795   001ABC  EF6A  F00D         	goto	u4380
  2796   001AC0  5027               	movf	(___flmul@temp+1)^0,w,c
  2797   001AC2  E106               	bnz	u4381
  2798   001AC4  0426               	decf	___flmul@temp^0,w,c
  2799   001AC6  B0D8               	btfsc	status,0,c
  2800   001AC8  EF68  F00D         	goto	u4381
  2801   001ACC  EF6A  F00D         	goto	u4380
  2802   001AD0                     u4381:
  2803   001AD0  EF76  F00D         	goto	l1301
  2804   001AD4                     u4380:
  2805   001AD4  0E00               	movlw	0
  2806   001AD6  6E22               	movwf	___flmul@prod^0,c
  2807   001AD8  0E00               	movlw	0
  2808   001ADA  6E23               	movwf	(___flmul@prod+1)^0,c
  2809   001ADC  0E00               	movlw	0
  2810   001ADE  6E24               	movwf	(___flmul@prod+2)^0,c
  2811   001AE0  0E00               	movlw	0
  2812   001AE2  6E25               	movwf	(___flmul@prod+3)^0,c
  2813   001AE4  0E00               	movlw	0
  2814   001AE6  6E1B               	movwf	___flmul@sign^0,c
  2815   001AE8  EF8B  F00D         	goto	l4476
  2816   001AEC                     l1301:
  2817   001AEC  C026  F021         	movff	___flmul@temp,___flmul@bexp
  2818   001AF0  0EFF               	movlw	255
  2819   001AF2  1622               	andwf	___flmul@prod^0,f,c
  2820   001AF4  0EFF               	movlw	255
  2821   001AF6  1623               	andwf	(___flmul@prod+1)^0,f,c
  2822   001AF8  0E7F               	movlw	127
  2823   001AFA  1624               	andwf	(___flmul@prod+2)^0,f,c
  2824   001AFC  0E00               	movlw	0
  2825   001AFE  1625               	andwf	(___flmul@prod+3)^0,f,c
  2826   001B00  A021               	btfss	___flmul@bexp^0,0,c
  2827   001B02  EF85  F00D         	goto	u4391
  2828   001B06  EF87  F00D         	goto	u4390
  2829   001B0A                     u4391:
  2830   001B0A  EF88  F00D         	goto	l4474
  2831   001B0E                     u4390:
  2832   001B0E  8E24               	bsf	(___flmul@prod+2)^0,7,c
  2833   001B10                     l4474:
  2834   001B10  90D8               	bcf	status,0,c
  2835   001B12  3021               	rrcf	___flmul@bexp^0,w,c
  2836   001B14  6E25               	movwf	(___flmul@prod+3)^0,c
  2837   001B16                     l4476:
  2838   001B16  501B               	movf	___flmul@sign^0,w,c
  2839   001B18  1225               	iorwf	(___flmul@prod+3)^0,f,c
  2840   001B1A  C022  F00F         	movff	___flmul@prod,?___flmul
  2841   001B1E  C023  F010         	movff	___flmul@prod+1,?___flmul+1
  2842   001B22  C024  F011         	movff	___flmul@prod+2,?___flmul+2
  2843   001B26  C025  F012         	movff	___flmul@prod+3,?___flmul+3
  2844   001B2A                     l1288:
  2845   001B2A  0012               	return		;funcret
  2846   001B2C                     __end_of___flmul:
  2847                           	callstack 0
  2848                           
  2849 ;; *************** function ___flge *****************
  2850 ;; Defined at:
  2851 ;;		line 4 in file "C:\Program Files\Microchip\xc8\v2.40\pic\sources\c99\common\flge.c"
  2852 ;; Parameters:    Size  Location     Type
  2853 ;;  ff1             4    0[COMRAM] unsigned char 
  2854 ;;  ff2             4    4[COMRAM] unsigned char 
  2855 ;; Auto vars:     Size  Location     Type
  2856 ;;		None
  2857 ;; Return value:  Size  Location     Type
  2858 ;;		None               void
  2859 ;; Registers used:
  2860 ;;		wreg, status,2, status,0
  2861 ;; Tracked objects:
  2862 ;;		On entry : 0/0
  2863 ;;		On exit  : 0/0
  2864 ;;		Unchanged: 0/0
  2865 ;; Data sizes:     COMRAM   BANK0   BANK1   BANK2   BANK3   BANK4   BANK5   BANK6   BANK7
  2866 ;;      Params:         8       0       0       0       0       0       0       0       0
  2867 ;;      Locals:         0       0       0       0       0       0       0       0       0
  2868 ;;      Temps:          4       0       0       0       0       0       0       0       0
  2869 ;;      Totals:        12       0       0       0       0       0       0       0       0
  2870 ;;Total ram usage:       12 bytes
  2871 ;; Hardware stack levels used: 1
  2872 ;; Hardware stack levels required when called: 1
  2873 ;; This function calls:
  2874 ;;		Nothing
  2875 ;; This function is called by:
  2876 ;;		_USART_init
  2877 ;; This function uses a non-reentrant model
  2878 ;;
  2879                           
  2880                           	psect	text5
  2881   00399E                     __ptext5:
  2882                           	callstack 0
  2883   00399E                     ___flge:
  2884                           	callstack 28
  2885   00399E  0E00               	movlw	0
  2886   0039A0  1401               	andwf	___flge@ff1^0,w,c
  2887   0039A2  6E09               	movwf	??___flge^0,c
  2888   0039A4  0E00               	movlw	0
  2889   0039A6  1402               	andwf	(___flge@ff1+1)^0,w,c
  2890   0039A8  6E0A               	movwf	(??___flge+1)^0,c
  2891   0039AA  0E80               	movlw	128
  2892   0039AC  1403               	andwf	(___flge@ff1+2)^0,w,c
  2893   0039AE  6E0B               	movwf	(??___flge+2)^0,c
  2894   0039B0  0E7F               	movlw	127
  2895   0039B2  1404               	andwf	(___flge@ff1+3)^0,w,c
  2896   0039B4  6E0C               	movwf	(??___flge+3)^0,c
  2897   0039B6  5009               	movf	??___flge^0,w,c
  2898   0039B8  100A               	iorwf	(??___flge+1)^0,w,c
  2899   0039BA  100B               	iorwf	(??___flge+2)^0,w,c
  2900   0039BC  100C               	iorwf	(??___flge+3)^0,w,c
  2901   0039BE  A4D8               	btfss	status,2,c
  2902   0039C0  EFE4  F01C         	goto	u4521
  2903   0039C4  EFE6  F01C         	goto	u4520
  2904   0039C8                     u4521:
  2905   0039C8  EFEE  F01C         	goto	l4566
  2906   0039CC                     u4520:
  2907   0039CC  0E00               	movlw	0
  2908   0039CE  6E01               	movwf	___flge@ff1^0,c
  2909   0039D0  0E00               	movlw	0
  2910   0039D2  6E02               	movwf	(___flge@ff1+1)^0,c
  2911   0039D4  0E00               	movlw	0
  2912   0039D6  6E03               	movwf	(___flge@ff1+2)^0,c
  2913   0039D8  0E00               	movlw	0
  2914   0039DA  6E04               	movwf	(___flge@ff1+3)^0,c
  2915   0039DC                     l4566:
  2916   0039DC  0E00               	movlw	0
  2917   0039DE  1405               	andwf	___flge@ff2^0,w,c
  2918   0039E0  6E09               	movwf	??___flge^0,c
  2919   0039E2  0E00               	movlw	0
  2920   0039E4  1406               	andwf	(___flge@ff2+1)^0,w,c
  2921   0039E6  6E0A               	movwf	(??___flge+1)^0,c
  2922   0039E8  0E80               	movlw	128
  2923   0039EA  1407               	andwf	(___flge@ff2+2)^0,w,c
  2924   0039EC  6E0B               	movwf	(??___flge+2)^0,c
  2925   0039EE  0E7F               	movlw	127
  2926   0039F0  1408               	andwf	(___flge@ff2+3)^0,w,c
  2927   0039F2  6E0C               	movwf	(??___flge+3)^0,c
  2928   0039F4  5009               	movf	??___flge^0,w,c
  2929   0039F6  100A               	iorwf	(??___flge+1)^0,w,c
  2930   0039F8  100B               	iorwf	(??___flge+2)^0,w,c
  2931   0039FA  100C               	iorwf	(??___flge+3)^0,w,c
  2932   0039FC  A4D8               	btfss	status,2,c
  2933   0039FE  EF03  F01D         	goto	u4531
  2934   003A02  EF05  F01D         	goto	u4530
  2935   003A06                     u4531:
  2936   003A06  EF0D  F01D         	goto	l4570
  2937   003A0A                     u4530:
  2938   003A0A  0E00               	movlw	0
  2939   003A0C  6E05               	movwf	___flge@ff2^0,c
  2940   003A0E  0E00               	movlw	0
  2941   003A10  6E06               	movwf	(___flge@ff2+1)^0,c
  2942   003A12  0E00               	movlw	0
  2943   003A14  6E07               	movwf	(___flge@ff2+2)^0,c
  2944   003A16  0E00               	movlw	0
  2945   003A18  6E08               	movwf	(___flge@ff2+3)^0,c
  2946   003A1A                     l4570:
  2947   003A1A  AE04               	btfss	(___flge@ff1+3)^0,7,c
  2948   003A1C  EF12  F01D         	goto	u4541
  2949   003A20  EF14  F01D         	goto	u4540
  2950   003A24                     u4541:
  2951   003A24  EF1D  F01D         	goto	l4574
  2952   003A28                     u4540:
  2953   003A28  6C01               	negf	___flge@ff1^0,c
  2954   003A2A  1E02               	comf	(___flge@ff1+1)^0,f,c
  2955   003A2C  B0D8               	btfsc	status,0,c
  2956   003A2E  2A02               	incf	(___flge@ff1+1)^0,f,c
  2957   003A30  1E03               	comf	(___flge@ff1+2)^0,f,c
  2958   003A32  B0D8               	btfsc	status,0,c
  2959   003A34  2A03               	incf	(___flge@ff1+2)^0,f,c
  2960   003A36  0E80               	movlw	128
  2961   003A38  5604               	subfwb	(___flge@ff1+3)^0,f,c
  2962   003A3A                     l4574:
  2963   003A3A  AE08               	btfss	(___flge@ff2+3)^0,7,c
  2964   003A3C  EF22  F01D         	goto	u4551
  2965   003A40  EF24  F01D         	goto	u4550
  2966   003A44                     u4551:
  2967   003A44  EF2D  F01D         	goto	l935
  2968   003A48                     u4550:
  2969   003A48  6C05               	negf	___flge@ff2^0,c
  2970   003A4A  1E06               	comf	(___flge@ff2+1)^0,f,c
  2971   003A4C  B0D8               	btfsc	status,0,c
  2972   003A4E  2A06               	incf	(___flge@ff2+1)^0,f,c
  2973   003A50  1E07               	comf	(___flge@ff2+2)^0,f,c
  2974   003A52  B0D8               	btfsc	status,0,c
  2975   003A54  2A07               	incf	(___flge@ff2+2)^0,f,c
  2976   003A56  0E80               	movlw	128
  2977   003A58  5608               	subfwb	(___flge@ff2+3)^0,f,c
  2978   003A5A                     l935:
  2979   003A5A  0E00               	movlw	0
  2980   003A5C  1A01               	xorwf	___flge@ff1^0,f,c
  2981   003A5E  0E00               	movlw	0
  2982   003A60  1A02               	xorwf	(___flge@ff1+1)^0,f,c
  2983   003A62  0E00               	movlw	0
  2984   003A64  1A03               	xorwf	(___flge@ff1+2)^0,f,c
  2985   003A66  0E80               	movlw	128
  2986   003A68  1A04               	xorwf	(___flge@ff1+3)^0,f,c
  2987   003A6A  0E00               	movlw	0
  2988   003A6C  1A05               	xorwf	___flge@ff2^0,f,c
  2989   003A6E  0E00               	movlw	0
  2990   003A70  1A06               	xorwf	(___flge@ff2+1)^0,f,c
  2991   003A72  0E00               	movlw	0
  2992   003A74  1A07               	xorwf	(___flge@ff2+2)^0,f,c
  2993   003A76  0E80               	movlw	128
  2994   003A78  1A08               	xorwf	(___flge@ff2+3)^0,f,c
  2995   003A7A  5005               	movf	___flge@ff2^0,w,c
  2996   003A7C  5C01               	subwf	___flge@ff1^0,w,c
  2997   003A7E  5006               	movf	(___flge@ff2+1)^0,w,c
  2998   003A80  5802               	subwfb	(___flge@ff1+1)^0,w,c
  2999   003A82  5007               	movf	(___flge@ff2+2)^0,w,c
  3000   003A84  5803               	subwfb	(___flge@ff1+2)^0,w,c
  3001   003A86  5008               	movf	(___flge@ff2+3)^0,w,c
  3002   003A88  5804               	subwfb	(___flge@ff1+3)^0,w,c
  3003   003A8A  B0D8               	btfsc	status,0,c
  3004   003A8C  EF4A  F01D         	goto	u4561
  3005   003A90  EF4C  F01D         	goto	u4560
  3006   003A94                     u4561:
  3007   003A94  EF4F  F01D         	goto	l4580
  3008   003A98                     u4560:
  3009   003A98  90D8               	bcf	status,0,c
  3010   003A9A  EF50  F01D         	goto	l940
  3011   003A9E                     l4580:
  3012   003A9E  80D8               	bsf	status,0,c
  3013   003AA0                     l940:
  3014   003AA0  0012               	return		;funcret
  3015   003AA2                     __end_of___flge:
  3016                           	callstack 0
  3017                           
  3018 ;; *************** function ___fldiv *****************
  3019 ;; Defined at:
  3020 ;;		line 11 in file "C:\Program Files\Microchip\xc8\v2.40\pic\sources\c99\common\sprcdiv.c"
  3021 ;; Parameters:    Size  Location     Type
  3022 ;;  b               4   39[COMRAM] unsigned char 
  3023 ;;  a               4   43[COMRAM] unsigned char 
  3024 ;; Auto vars:     Size  Location     Type
  3025 ;;  grs             4   58[COMRAM] unsigned long 
  3026 ;;  rem             4   51[COMRAM] unsigned long 
  3027 ;;  new_exp         2   56[COMRAM] short 
  3028 ;;  aexp            1   63[COMRAM] unsigned char 
  3029 ;;  bexp            1   62[COMRAM] unsigned char 
  3030 ;;  sign            1   55[COMRAM] unsigned char 
  3031 ;; Return value:  Size  Location     Type
  3032 ;;                  4   39[COMRAM] unsigned char 
  3033 ;; Registers used:
  3034 ;;		wreg, status,2, status,0
  3035 ;; Tracked objects:
  3036 ;;		On entry : 0/0
  3037 ;;		On exit  : 0/0
  3038 ;;		Unchanged: 0/0
  3039 ;; Data sizes:     COMRAM   BANK0   BANK1   BANK2   BANK3   BANK4   BANK5   BANK6   BANK7
  3040 ;;      Params:         8       0       0       0       0       0       0       0       0
  3041 ;;      Locals:        13       0       0       0       0       0       0       0       0
  3042 ;;      Temps:          4       0       0       0       0       0       0       0       0
  3043 ;;      Totals:        25       0       0       0       0       0       0       0       0
  3044 ;;Total ram usage:       25 bytes
  3045 ;; Hardware stack levels used: 1
  3046 ;; Hardware stack levels required when called: 1
  3047 ;; This function calls:
  3048 ;;		Nothing
  3049 ;; This function is called by:
  3050 ;;		_USART_init
  3051 ;; This function uses a non-reentrant model
  3052 ;;
  3053                           
  3054                           	psect	text6
  3055   002340                     __ptext6:
  3056                           	callstack 0
  3057   002340                     ___fldiv:
  3058                           	callstack 28
  3059   002340  502B               	movf	(___fldiv@b+3)^0,w,c
  3060   002342  0B80               	andlw	128
  3061   002344  6E38               	movwf	___fldiv@sign^0,c
  3062   002346  502B               	movf	(___fldiv@b+3)^0,w,c
  3063   002348  242B               	addwf	(___fldiv@b+3)^0,w,c
  3064   00234A  6E3F               	movwf	___fldiv@bexp^0,c
  3065   00234C  AE2A               	btfss	(___fldiv@b+2)^0,7,c
  3066   00234E  EFAB  F011         	goto	u3981
  3067   002352  EFAD  F011         	goto	u3980
  3068   002356                     u3981:
  3069   002356  EFAE  F011         	goto	l4220
  3070   00235A                     u3980:
  3071   00235A  803F               	bsf	___fldiv@bexp^0,0,c
  3072   00235C                     l4220:
  3073   00235C  503F               	movf	___fldiv@bexp^0,w,c
  3074   00235E  B4D8               	btfsc	status,2,c
  3075   002360  EFB4  F011         	goto	u3991
  3076   002364  EFB6  F011         	goto	u3990
  3077   002368                     u3991:
  3078   002368  EFCB  F011         	goto	l4230
  3079   00236C                     u3990:
  3080   00236C  283F               	incf	___fldiv@bexp^0,w,c
  3081   00236E  A4D8               	btfss	status,2,c
  3082   002370  EFBC  F011         	goto	u4001
  3083   002374  EFBE  F011         	goto	u4000
  3084   002378                     u4001:
  3085   002378  EFC6  F011         	goto	l4226
  3086   00237C                     u4000:
  3087   00237C  0E00               	movlw	0
  3088   00237E  6E28               	movwf	___fldiv@b^0,c
  3089   002380  0E00               	movlw	0
  3090   002382  6E29               	movwf	(___fldiv@b+1)^0,c
  3091   002384  0E00               	movlw	0
  3092   002386  6E2A               	movwf	(___fldiv@b+2)^0,c
  3093   002388  0E00               	movlw	0
  3094   00238A  6E2B               	movwf	(___fldiv@b+3)^0,c
  3095   00238C                     l4226:
  3096   00238C  8E2A               	bsf	(___fldiv@b+2)^0,7,c
  3097   00238E  0E00               	movlw	0
  3098   002390  6E2B               	movwf	(___fldiv@b+3)^0,c
  3099   002392  EFD3  F011         	goto	l4232
  3100   002396                     l4230:
  3101   002396  0E00               	movlw	0
  3102   002398  6E28               	movwf	___fldiv@b^0,c
  3103   00239A  0E00               	movlw	0
  3104   00239C  6E29               	movwf	(___fldiv@b+1)^0,c
  3105   00239E  0E00               	movlw	0
  3106   0023A0  6E2A               	movwf	(___fldiv@b+2)^0,c
  3107   0023A2  0E00               	movlw	0
  3108   0023A4  6E2B               	movwf	(___fldiv@b+3)^0,c
  3109   0023A6                     l4232:
  3110   0023A6  502F               	movf	(___fldiv@a+3)^0,w,c
  3111   0023A8  0B80               	andlw	128
  3112   0023AA  1A38               	xorwf	___fldiv@sign^0,f,c
  3113   0023AC  502F               	movf	(___fldiv@a+3)^0,w,c
  3114   0023AE  242F               	addwf	(___fldiv@a+3)^0,w,c
  3115   0023B0  6E40               	movwf	___fldiv@aexp^0,c
  3116   0023B2  AE2E               	btfss	(___fldiv@a+2)^0,7,c
  3117   0023B4  EFDE  F011         	goto	u4011
  3118   0023B8  EFE0  F011         	goto	u4010
  3119   0023BC                     u4011:
  3120   0023BC  EFE1  F011         	goto	l4240
  3121   0023C0                     u4010:
  3122   0023C0  8040               	bsf	___fldiv@aexp^0,0,c
  3123   0023C2                     l4240:
  3124   0023C2  5040               	movf	___fldiv@aexp^0,w,c
  3125   0023C4  B4D8               	btfsc	status,2,c
  3126   0023C6  EFE7  F011         	goto	u4021
  3127   0023CA  EFE9  F011         	goto	u4020
  3128   0023CE                     u4021:
  3129   0023CE  EFFE  F011         	goto	l4250
  3130   0023D2                     u4020:
  3131   0023D2  2840               	incf	___fldiv@aexp^0,w,c
  3132   0023D4  A4D8               	btfss	status,2,c
  3133   0023D6  EFEF  F011         	goto	u4031
  3134   0023DA  EFF1  F011         	goto	u4030
  3135   0023DE                     u4031:
  3136   0023DE  EFF9  F011         	goto	l4246
  3137   0023E2                     u4030:
  3138   0023E2  0E00               	movlw	0
  3139   0023E4  6E2C               	movwf	___fldiv@a^0,c
  3140   0023E6  0E00               	movlw	0
  3141   0023E8  6E2D               	movwf	(___fldiv@a+1)^0,c
  3142   0023EA  0E00               	movlw	0
  3143   0023EC  6E2E               	movwf	(___fldiv@a+2)^0,c
  3144   0023EE  0E00               	movlw	0
  3145   0023F0  6E2F               	movwf	(___fldiv@a+3)^0,c
  3146   0023F2                     l4246:
  3147   0023F2  8E2E               	bsf	(___fldiv@a+2)^0,7,c
  3148   0023F4  0E00               	movlw	0
  3149   0023F6  6E2F               	movwf	(___fldiv@a+3)^0,c
  3150   0023F8  EF06  F012         	goto	l4252
  3151   0023FC                     l4250:
  3152   0023FC  0E00               	movlw	0
  3153   0023FE  6E2C               	movwf	___fldiv@a^0,c
  3154   002400  0E00               	movlw	0
  3155   002402  6E2D               	movwf	(___fldiv@a+1)^0,c
  3156   002404  0E00               	movlw	0
  3157   002406  6E2E               	movwf	(___fldiv@a+2)^0,c
  3158   002408  0E00               	movlw	0
  3159   00240A  6E2F               	movwf	(___fldiv@a+3)^0,c
  3160   00240C                     l4252:
  3161   00240C  502C               	movf	___fldiv@a^0,w,c
  3162   00240E  102D               	iorwf	(___fldiv@a+1)^0,w,c
  3163   002410  102E               	iorwf	(___fldiv@a+2)^0,w,c
  3164   002412  102F               	iorwf	(___fldiv@a+3)^0,w,c
  3165   002414  A4D8               	btfss	status,2,c
  3166   002416  EF0F  F012         	goto	u4041
  3167   00241A  EF11  F012         	goto	u4040
  3168   00241E                     u4041:
  3169   00241E  EF29  F012         	goto	l4264
  3170   002422                     u4040:
  3171   002422  0E00               	movlw	0
  3172   002424  6E28               	movwf	___fldiv@b^0,c
  3173   002426  0E00               	movlw	0
  3174   002428  6E29               	movwf	(___fldiv@b+1)^0,c
  3175   00242A  0E00               	movlw	0
  3176   00242C  6E2A               	movwf	(___fldiv@b+2)^0,c
  3177   00242E  0E00               	movlw	0
  3178   002430  6E2B               	movwf	(___fldiv@b+3)^0,c
  3179   002432  0E80               	movlw	128
  3180   002434  122A               	iorwf	(___fldiv@b+2)^0,f,c
  3181   002436  0E7F               	movlw	127
  3182   002438  122B               	iorwf	(___fldiv@b+3)^0,f,c
  3183   00243A                     l4258:
  3184   00243A  5038               	movf	___fldiv@sign^0,w,c
  3185   00243C  122B               	iorwf	(___fldiv@b+3)^0,f,c
  3186   00243E  C028  F028         	movff	___fldiv@b,?___fldiv
  3187   002442  C029  F029         	movff	___fldiv@b+1,?___fldiv+1
  3188   002446  C02A  F02A         	movff	___fldiv@b+2,?___fldiv+2
  3189   00244A  C02B  F02B         	movff	___fldiv@b+3,?___fldiv+3
  3190   00244E  EF6C  F013         	goto	l1252
  3191   002452                     l4264:
  3192   002452  503F               	movf	___fldiv@bexp^0,w,c
  3193   002454  A4D8               	btfss	status,2,c
  3194   002456  EF2F  F012         	goto	u4051
  3195   00245A  EF31  F012         	goto	u4050
  3196   00245E                     u4051:
  3197   00245E  EF3B  F012         	goto	l4272
  3198   002462                     u4050:
  3199   002462  0E00               	movlw	0
  3200   002464  6E28               	movwf	?___fldiv^0,c
  3201   002466  0E00               	movlw	0
  3202   002468  6E29               	movwf	(?___fldiv+1)^0,c
  3203   00246A  0E00               	movlw	0
  3204   00246C  6E2A               	movwf	(?___fldiv+2)^0,c
  3205   00246E  0E00               	movlw	0
  3206   002470  6E2B               	movwf	(?___fldiv+3)^0,c
  3207   002472  EF6C  F013         	goto	l1252
  3208   002476                     l4272:
  3209   002476  5040               	movf	___fldiv@aexp^0,w,c
  3210   002478  C03F  F030         	movff	___fldiv@bexp,??___fldiv
  3211   00247C  6A31               	clrf	(??___fldiv+1)^0,c
  3212   00247E  5E30               	subwf	??___fldiv^0,f,c
  3213   002480  0E00               	movlw	0
  3214   002482  5A31               	subwfb	(??___fldiv+1)^0,f,c
  3215   002484  0E7F               	movlw	127
  3216   002486  2430               	addwf	??___fldiv^0,w,c
  3217   002488  6E39               	movwf	___fldiv@new_exp^0,c
  3218   00248A  0E00               	movlw	0
  3219   00248C  2031               	addwfc	(??___fldiv+1)^0,w,c
  3220   00248E  6E3A               	movwf	(___fldiv@new_exp+1)^0,c
  3221   002490  C028  F034         	movff	___fldiv@b,___fldiv@rem
  3222   002494  C029  F035         	movff	___fldiv@b+1,___fldiv@rem+1
  3223   002498  C02A  F036         	movff	___fldiv@b+2,___fldiv@rem+2
  3224   00249C  C02B  F037         	movff	___fldiv@b+3,___fldiv@rem+3
  3225   0024A0  0E00               	movlw	0
  3226   0024A2  6E28               	movwf	___fldiv@b^0,c
  3227   0024A4  0E00               	movlw	0
  3228   0024A6  6E29               	movwf	(___fldiv@b+1)^0,c
  3229   0024A8  0E00               	movlw	0
  3230   0024AA  6E2A               	movwf	(___fldiv@b+2)^0,c
  3231   0024AC  0E00               	movlw	0
  3232   0024AE  6E2B               	movwf	(___fldiv@b+3)^0,c
  3233   0024B0  0E00               	movlw	0
  3234   0024B2  6E3B               	movwf	___fldiv@grs^0,c
  3235   0024B4  0E00               	movlw	0
  3236   0024B6  6E3C               	movwf	(___fldiv@grs+1)^0,c
  3237   0024B8  0E00               	movlw	0
  3238   0024BA  6E3D               	movwf	(___fldiv@grs+2)^0,c
  3239   0024BC  0E00               	movlw	0
  3240   0024BE  6E3E               	movwf	(___fldiv@grs+3)^0,c
  3241   0024C0  0E00               	movlw	0
  3242   0024C2  6E40               	movwf	___fldiv@aexp^0,c
  3243   0024C4  EF9C  F012         	goto	l1254
  3244   0024C8                     l4282:
  3245   0024C8  5040               	movf	___fldiv@aexp^0,w,c
  3246   0024CA  B4D8               	btfsc	status,2,c
  3247   0024CC  EF6A  F012         	goto	u4061
  3248   0024D0  EF6C  F012         	goto	u4060
  3249   0024D4                     u4061:
  3250   0024D4  EF83  F012         	goto	l4290
  3251   0024D8                     u4060:
  3252   0024D8  90D8               	bcf	status,0,c
  3253   0024DA  3634               	rlcf	___fldiv@rem^0,f,c
  3254   0024DC  3635               	rlcf	(___fldiv@rem+1)^0,f,c
  3255   0024DE  3636               	rlcf	(___fldiv@rem+2)^0,f,c
  3256   0024E0  3637               	rlcf	(___fldiv@rem+3)^0,f,c
  3257   0024E2  90D8               	bcf	status,0,c
  3258   0024E4  3628               	rlcf	___fldiv@b^0,f,c
  3259   0024E6  3629               	rlcf	(___fldiv@b+1)^0,f,c
  3260   0024E8  362A               	rlcf	(___fldiv@b+2)^0,f,c
  3261   0024EA  362B               	rlcf	(___fldiv@b+3)^0,f,c
  3262   0024EC  AE3E               	btfss	(___fldiv@grs+3)^0,7,c
  3263   0024EE  EF7B  F012         	goto	u4071
  3264   0024F2  EF7D  F012         	goto	u4070
  3265   0024F6                     u4071:
  3266   0024F6  EF7E  F012         	goto	l1257
  3267   0024FA                     u4070:
  3268   0024FA  8028               	bsf	___fldiv@b^0,0,c
  3269   0024FC                     l1257:
  3270   0024FC  90D8               	bcf	status,0,c
  3271   0024FE  363B               	rlcf	___fldiv@grs^0,f,c
  3272   002500  363C               	rlcf	(___fldiv@grs+1)^0,f,c
  3273   002502  363D               	rlcf	(___fldiv@grs+2)^0,f,c
  3274   002504  363E               	rlcf	(___fldiv@grs+3)^0,f,c
  3275   002506                     l4290:
  3276   002506  502C               	movf	___fldiv@a^0,w,c
  3277   002508  5C34               	subwf	___fldiv@rem^0,w,c
  3278   00250A  502D               	movf	(___fldiv@a+1)^0,w,c
  3279   00250C  5835               	subwfb	(___fldiv@rem+1)^0,w,c
  3280   00250E  502E               	movf	(___fldiv@a+2)^0,w,c
  3281   002510  5836               	subwfb	(___fldiv@rem+2)^0,w,c
  3282   002512  502F               	movf	(___fldiv@a+3)^0,w,c
  3283   002514  5837               	subwfb	(___fldiv@rem+3)^0,w,c
  3284   002516  A0D8               	btfss	status,0,c
  3285   002518  EF90  F012         	goto	u4081
  3286   00251C  EF92  F012         	goto	u4080
  3287   002520                     u4081:
  3288   002520  EF9B  F012         	goto	l4296
  3289   002524                     u4080:
  3290   002524  8C3E               	bsf	(___fldiv@grs+3)^0,6,c
  3291   002526  502C               	movf	___fldiv@a^0,w,c
  3292   002528  5E34               	subwf	___fldiv@rem^0,f,c
  3293   00252A  502D               	movf	(___fldiv@a+1)^0,w,c
  3294   00252C  5A35               	subwfb	(___fldiv@rem+1)^0,f,c
  3295   00252E  502E               	movf	(___fldiv@a+2)^0,w,c
  3296   002530  5A36               	subwfb	(___fldiv@rem+2)^0,f,c
  3297   002532  502F               	movf	(___fldiv@a+3)^0,w,c
  3298   002534  5A37               	subwfb	(___fldiv@rem+3)^0,f,c
  3299   002536                     l4296:
  3300   002536  2A40               	incf	___fldiv@aexp^0,f,c
  3301   002538                     l1254:
  3302   002538  0E19               	movlw	25
  3303   00253A  6440               	cpfsgt	___fldiv@aexp^0,c
  3304   00253C  EFA2  F012         	goto	u4091
  3305   002540  EFA4  F012         	goto	u4090
  3306   002544                     u4091:
  3307   002544  EF64  F012         	goto	l4282
  3308   002548                     u4090:
  3309   002548  5034               	movf	___fldiv@rem^0,w,c
  3310   00254A  1035               	iorwf	(___fldiv@rem+1)^0,w,c
  3311   00254C  1036               	iorwf	(___fldiv@rem+2)^0,w,c
  3312   00254E  1037               	iorwf	(___fldiv@rem+3)^0,w,c
  3313   002550  B4D8               	btfsc	status,2,c
  3314   002552  EFAD  F012         	goto	u4101
  3315   002556  EFAF  F012         	goto	u4100
  3316   00255A                     u4101:
  3317   00255A  EFC7  F012         	goto	l4308
  3318   00255E                     u4100:
  3319   00255E  803B               	bsf	___fldiv@grs^0,0,c
  3320   002560  EFC7  F012         	goto	l4308
  3321   002564                     l4302:
  3322   002564  90D8               	bcf	status,0,c
  3323   002566  3628               	rlcf	___fldiv@b^0,f,c
  3324   002568  3629               	rlcf	(___fldiv@b+1)^0,f,c
  3325   00256A  362A               	rlcf	(___fldiv@b+2)^0,f,c
  3326   00256C  362B               	rlcf	(___fldiv@b+3)^0,f,c
  3327   00256E  AE3E               	btfss	(___fldiv@grs+3)^0,7,c
  3328   002570  EFBC  F012         	goto	u4111
  3329   002574  EFBE  F012         	goto	u4110
  3330   002578                     u4111:
  3331   002578  EFBF  F012         	goto	l1263
  3332   00257C                     u4110:
  3333   00257C  8028               	bsf	___fldiv@b^0,0,c
  3334   00257E                     l1263:
  3335   00257E  90D8               	bcf	status,0,c
  3336   002580  363B               	rlcf	___fldiv@grs^0,f,c
  3337   002582  363C               	rlcf	(___fldiv@grs+1)^0,f,c
  3338   002584  363D               	rlcf	(___fldiv@grs+2)^0,f,c
  3339   002586  363E               	rlcf	(___fldiv@grs+3)^0,f,c
  3340   002588  0639               	decf	___fldiv@new_exp^0,f,c
  3341   00258A  A0D8               	btfss	status,0,c
  3342   00258C  063A               	decf	(___fldiv@new_exp+1)^0,f,c
  3343   00258E                     l4308:
  3344   00258E  AE2A               	btfss	(___fldiv@b+2)^0,7,c
  3345   002590  EFCC  F012         	goto	u4121
  3346   002594  EFCE  F012         	goto	u4120
  3347   002598                     u4121:
  3348   002598  EFB2  F012         	goto	l4302
  3349   00259C                     u4120:
  3350   00259C  0E00               	movlw	0
  3351   00259E  6E40               	movwf	___fldiv@aexp^0,c
  3352   0025A0  AE3E               	btfss	(___fldiv@grs+3)^0,7,c
  3353   0025A2  EFD5  F012         	goto	u4131
  3354   0025A6  EFD7  F012         	goto	u4130
  3355   0025AA                     u4131:
  3356   0025AA  EFFB  F012         	goto	l1265
  3357   0025AE                     u4130:
  3358   0025AE  0EFF               	movlw	255
  3359   0025B0  143B               	andwf	___fldiv@grs^0,w,c
  3360   0025B2  6E30               	movwf	??___fldiv^0,c
  3361   0025B4  0EFF               	movlw	255
  3362   0025B6  143C               	andwf	(___fldiv@grs+1)^0,w,c
  3363   0025B8  6E31               	movwf	(??___fldiv+1)^0,c
  3364   0025BA  0EFF               	movlw	255
  3365   0025BC  143D               	andwf	(___fldiv@grs+2)^0,w,c
  3366   0025BE  6E32               	movwf	(??___fldiv+2)^0,c
  3367   0025C0  0E7F               	movlw	127
  3368   0025C2  143E               	andwf	(___fldiv@grs+3)^0,w,c
  3369   0025C4  6E33               	movwf	(??___fldiv+3)^0,c
  3370   0025C6  5030               	movf	??___fldiv^0,w,c
  3371   0025C8  1031               	iorwf	(??___fldiv+1)^0,w,c
  3372   0025CA  1032               	iorwf	(??___fldiv+2)^0,w,c
  3373   0025CC  1033               	iorwf	(??___fldiv+3)^0,w,c
  3374   0025CE  B4D8               	btfsc	status,2,c
  3375   0025D0  EFEC  F012         	goto	u4141
  3376   0025D4  EFEE  F012         	goto	u4140
  3377   0025D8                     u4141:
  3378   0025D8  EFF2  F012         	goto	l1266
  3379   0025DC                     u4140:
  3380   0025DC                     l4316:
  3381   0025DC  0E01               	movlw	1
  3382   0025DE  6E40               	movwf	___fldiv@aexp^0,c
  3383   0025E0  EFFB  F012         	goto	l1265
  3384   0025E4                     l1266:
  3385   0025E4  A028               	btfss	___fldiv@b^0,0,c
  3386   0025E6  EFF7  F012         	goto	u4151
  3387   0025EA  EFF9  F012         	goto	u4150
  3388   0025EE                     u4151:
  3389   0025EE  EFFB  F012         	goto	l1265
  3390   0025F2                     u4150:
  3391   0025F2  EFEE  F012         	goto	l4316
  3392   0025F6                     l1265:
  3393   0025F6  5040               	movf	___fldiv@aexp^0,w,c
  3394   0025F8  B4D8               	btfsc	status,2,c
  3395   0025FA  EF01  F013         	goto	u4161
  3396   0025FE  EF03  F013         	goto	u4160
  3397   002602                     u4161:
  3398   002602  EF27  F013         	goto	l4328
  3399   002606                     u4160:
  3400   002606  0E01               	movlw	1
  3401   002608  2628               	addwf	___fldiv@b^0,f,c
  3402   00260A  0E00               	movlw	0
  3403   00260C  2229               	addwfc	(___fldiv@b+1)^0,f,c
  3404   00260E  222A               	addwfc	(___fldiv@b+2)^0,f,c
  3405   002610  222B               	addwfc	(___fldiv@b+3)^0,f,c
  3406   002612  A02B               	btfss	(___fldiv@b+3)^0,0,c
  3407   002614  EF0E  F013         	goto	u4171
  3408   002618  EF10  F013         	goto	u4170
  3409   00261C                     u4171:
  3410   00261C  EF27  F013         	goto	l4328
  3411   002620                     u4170:
  3412   002620  C028  F030         	movff	___fldiv@b,??___fldiv
  3413   002624  C029  F031         	movff	___fldiv@b+1,??___fldiv+1
  3414   002628  C02A  F032         	movff	___fldiv@b+2,??___fldiv+2
  3415   00262C  C02B  F033         	movff	___fldiv@b+3,??___fldiv+3
  3416   002630  3433               	rlcf	(??___fldiv+3)^0,w,c
  3417   002632  3233               	rrcf	(??___fldiv+3)^0,f,c
  3418   002634  3232               	rrcf	(??___fldiv+2)^0,f,c
  3419   002636  3231               	rrcf	(??___fldiv+1)^0,f,c
  3420   002638  3230               	rrcf	??___fldiv^0,f,c
  3421   00263A  C030  F028         	movff	??___fldiv,___fldiv@b
  3422   00263E  C031  F029         	movff	??___fldiv+1,___fldiv@b+1
  3423   002642  C032  F02A         	movff	??___fldiv+2,___fldiv@b+2
  3424   002646  C033  F02B         	movff	??___fldiv+3,___fldiv@b+3
  3425   00264A  4A39               	infsnz	___fldiv@new_exp^0,f,c
  3426   00264C  2A3A               	incf	(___fldiv@new_exp+1)^0,f,c
  3427   00264E                     l4328:
  3428   00264E  BE3A               	btfsc	(___fldiv@new_exp+1)^0,7,c
  3429   002650  EF32  F013         	goto	u4181
  3430   002654  503A               	movf	(___fldiv@new_exp+1)^0,w,c
  3431   002656  E108               	bnz	u4180
  3432   002658  2839               	incf	___fldiv@new_exp^0,w,c
  3433   00265A  A0D8               	btfss	status,0,c
  3434   00265C  EF32  F013         	goto	u4181
  3435   002660  EF34  F013         	goto	u4180
  3436   002664                     u4181:
  3437   002664  EF3F  F013         	goto	l4332
  3438   002668                     u4180:
  3439   002668  0E00               	movlw	0
  3440   00266A  6E3A               	movwf	(___fldiv@new_exp+1)^0,c
  3441   00266C  6839               	setf	___fldiv@new_exp^0,c
  3442   00266E  0E00               	movlw	0
  3443   002670  6E28               	movwf	___fldiv@b^0,c
  3444   002672  0E00               	movlw	0
  3445   002674  6E29               	movwf	(___fldiv@b+1)^0,c
  3446   002676  0E00               	movlw	0
  3447   002678  6E2A               	movwf	(___fldiv@b+2)^0,c
  3448   00267A  0E00               	movlw	0
  3449   00267C  6E2B               	movwf	(___fldiv@b+3)^0,c
  3450   00267E                     l4332:
  3451   00267E  BE3A               	btfsc	(___fldiv@new_exp+1)^0,7,c
  3452   002680  EF4C  F013         	goto	u4190
  3453   002684  503A               	movf	(___fldiv@new_exp+1)^0,w,c
  3454   002686  E106               	bnz	u4191
  3455   002688  0439               	decf	___fldiv@new_exp^0,w,c
  3456   00268A  B0D8               	btfsc	status,0,c
  3457   00268C  EF4A  F013         	goto	u4191
  3458   002690  EF4C  F013         	goto	u4190
  3459   002694                     u4191:
  3460   002694  EF5A  F013         	goto	l4336
  3461   002698                     u4190:
  3462   002698  0E00               	movlw	0
  3463   00269A  6E3A               	movwf	(___fldiv@new_exp+1)^0,c
  3464   00269C  0E00               	movlw	0
  3465   00269E  6E39               	movwf	___fldiv@new_exp^0,c
  3466   0026A0  0E00               	movlw	0
  3467   0026A2  6E28               	movwf	___fldiv@b^0,c
  3468   0026A4  0E00               	movlw	0
  3469   0026A6  6E29               	movwf	(___fldiv@b+1)^0,c
  3470   0026A8  0E00               	movlw	0
  3471   0026AA  6E2A               	movwf	(___fldiv@b+2)^0,c
  3472   0026AC  0E00               	movlw	0
  3473   0026AE  6E2B               	movwf	(___fldiv@b+3)^0,c
  3474   0026B0  0E00               	movlw	0
  3475   0026B2  6E38               	movwf	___fldiv@sign^0,c
  3476   0026B4                     l4336:
  3477   0026B4  C039  F03F         	movff	___fldiv@new_exp,___fldiv@bexp
  3478   0026B8  A03F               	btfss	___fldiv@bexp^0,0,c
  3479   0026BA  EF61  F013         	goto	u4201
  3480   0026BE  EF63  F013         	goto	u4200
  3481   0026C2                     u4201:
  3482   0026C2  EF66  F013         	goto	l4342
  3483   0026C6                     u4200:
  3484   0026C6  8E2A               	bsf	(___fldiv@b+2)^0,7,c
  3485   0026C8  EF67  F013         	goto	l4344
  3486   0026CC                     l4342:
  3487   0026CC  9E2A               	bcf	(___fldiv@b+2)^0,7,c
  3488   0026CE                     l4344:
  3489   0026CE  90D8               	bcf	status,0,c
  3490   0026D0  303F               	rrcf	___fldiv@bexp^0,w,c
  3491   0026D2  6E2B               	movwf	(___fldiv@b+3)^0,c
  3492   0026D4  EF1D  F012         	goto	l4258
  3493   0026D8                     l1252:
  3494   0026D8  0012               	return		;funcret
  3495   0026DA                     __end_of___fldiv:
  3496                           	callstack 0
  3497                           
  3498 ;; *************** function ___fladd *****************
  3499 ;; Defined at:
  3500 ;;		line 10 in file "C:\Program Files\Microchip\xc8\v2.40\pic\sources\c99\common\sprcadd.c"
  3501 ;; Parameters:    Size  Location     Type
  3502 ;;  b               4   64[COMRAM] unsigned char 
  3503 ;;  a               4   68[COMRAM] unsigned char 
  3504 ;; Auto vars:     Size  Location     Type
  3505 ;;  grs             1   79[COMRAM] unsigned char 
  3506 ;;  bexp            1   78[COMRAM] unsigned char 
  3507 ;;  aexp            1   77[COMRAM] unsigned char 
  3508 ;;  signs           1   76[COMRAM] unsigned char 
  3509 ;; Return value:  Size  Location     Type
  3510 ;;                  4   64[COMRAM] unsigned char 
  3511 ;; Registers used:
  3512 ;;		wreg, status,2, status,0
  3513 ;; Tracked objects:
  3514 ;;		On entry : 0/0
  3515 ;;		On exit  : 0/0
  3516 ;;		Unchanged: 0/0
  3517 ;; Data sizes:     COMRAM   BANK0   BANK1   BANK2   BANK3   BANK4   BANK5   BANK6   BANK7
  3518 ;;      Params:         8       0       0       0       0       0       0       0       0
  3519 ;;      Locals:         4       0       0       0       0       0       0       0       0
  3520 ;;      Temps:          4       0       0       0       0       0       0       0       0
  3521 ;;      Totals:        16       0       0       0       0       0       0       0       0
  3522 ;;Total ram usage:       16 bytes
  3523 ;; Hardware stack levels used: 1
  3524 ;; Hardware stack levels required when called: 1
  3525 ;; This function calls:
  3526 ;;		Nothing
  3527 ;; This function is called by:
  3528 ;;		_USART_init
  3529 ;; This function uses a non-reentrant model
  3530 ;;
  3531                           
  3532                           	psect	text7
  3533   000DCA                     __ptext7:
  3534                           	callstack 0
  3535   000DCA                     ___fladd:
  3536                           	callstack 28
  3537   000DCA  5044               	movf	(___fladd@b+3)^0,w,c
  3538   000DCC  0B80               	andlw	128
  3539   000DCE  6E4D               	movwf	___fladd@signs^0,c
  3540   000DD0  5044               	movf	(___fladd@b+3)^0,w,c
  3541   000DD2  2444               	addwf	(___fladd@b+3)^0,w,c
  3542   000DD4  6E4F               	movwf	___fladd@bexp^0,c
  3543   000DD6  AE43               	btfss	(___fladd@b+2)^0,7,c
  3544   000DD8  EFF0  F006         	goto	u3591
  3545   000DDC  EFF2  F006         	goto	u3590
  3546   000DE0                     u3591:
  3547   000DE0  EFF3  F006         	goto	l4018
  3548   000DE4                     u3590:
  3549   000DE4  804F               	bsf	___fladd@bexp^0,0,c
  3550   000DE6                     l4018:
  3551   000DE6  504F               	movf	___fladd@bexp^0,w,c
  3552   000DE8  B4D8               	btfsc	status,2,c
  3553   000DEA  EFF9  F006         	goto	u3601
  3554   000DEE  EFFB  F006         	goto	u3600
  3555   000DF2                     u3601:
  3556   000DF2  EF10  F007         	goto	l4028
  3557   000DF6                     u3600:
  3558   000DF6  284F               	incf	___fladd@bexp^0,w,c
  3559   000DF8  A4D8               	btfss	status,2,c
  3560   000DFA  EF01  F007         	goto	u3611
  3561   000DFE  EF03  F007         	goto	u3610
  3562   000E02                     u3611:
  3563   000E02  EF0B  F007         	goto	l4024
  3564   000E06                     u3610:
  3565   000E06  0E00               	movlw	0
  3566   000E08  6E41               	movwf	___fladd@b^0,c
  3567   000E0A  0E00               	movlw	0
  3568   000E0C  6E42               	movwf	(___fladd@b+1)^0,c
  3569   000E0E  0E00               	movlw	0
  3570   000E10  6E43               	movwf	(___fladd@b+2)^0,c
  3571   000E12  0E00               	movlw	0
  3572   000E14  6E44               	movwf	(___fladd@b+3)^0,c
  3573   000E16                     l4024:
  3574   000E16  8E43               	bsf	(___fladd@b+2)^0,7,c
  3575   000E18  0E00               	movlw	0
  3576   000E1A  6E44               	movwf	(___fladd@b+3)^0,c
  3577   000E1C  EF18  F007         	goto	l4030
  3578   000E20                     l4028:
  3579   000E20  0E00               	movlw	0
  3580   000E22  6E41               	movwf	___fladd@b^0,c
  3581   000E24  0E00               	movlw	0
  3582   000E26  6E42               	movwf	(___fladd@b+1)^0,c
  3583   000E28  0E00               	movlw	0
  3584   000E2A  6E43               	movwf	(___fladd@b+2)^0,c
  3585   000E2C  0E00               	movlw	0
  3586   000E2E  6E44               	movwf	(___fladd@b+3)^0,c
  3587   000E30                     l4030:
  3588   000E30  5048               	movf	(___fladd@a+3)^0,w,c
  3589   000E32  0B80               	andlw	128
  3590   000E34  6E4E               	movwf	___fladd@aexp^0,c
  3591   000E36  504D               	movf	___fladd@signs^0,w,c
  3592   000E38  184E               	xorwf	___fladd@aexp^0,w,c
  3593   000E3A  B4D8               	btfsc	status,2,c
  3594   000E3C  EF22  F007         	goto	u3621
  3595   000E40  EF24  F007         	goto	u3620
  3596   000E44                     u3621:
  3597   000E44  EF25  F007         	goto	l4036
  3598   000E48                     u3620:
  3599   000E48  8C4D               	bsf	___fladd@signs^0,6,c
  3600   000E4A                     l4036:
  3601   000E4A  5048               	movf	(___fladd@a+3)^0,w,c
  3602   000E4C  2448               	addwf	(___fladd@a+3)^0,w,c
  3603   000E4E  6E4E               	movwf	___fladd@aexp^0,c
  3604   000E50  AE47               	btfss	(___fladd@a+2)^0,7,c
  3605   000E52  EF2D  F007         	goto	u3631
  3606   000E56  EF2F  F007         	goto	u3630
  3607   000E5A                     u3631:
  3608   000E5A  EF30  F007         	goto	l4042
  3609   000E5E                     u3630:
  3610   000E5E  804E               	bsf	___fladd@aexp^0,0,c
  3611   000E60                     l4042:
  3612   000E60  504E               	movf	___fladd@aexp^0,w,c
  3613   000E62  B4D8               	btfsc	status,2,c
  3614   000E64  EF36  F007         	goto	u3641
  3615   000E68  EF38  F007         	goto	u3640
  3616   000E6C                     u3641:
  3617   000E6C  EF4D  F007         	goto	l4052
  3618   000E70                     u3640:
  3619   000E70  284E               	incf	___fladd@aexp^0,w,c
  3620   000E72  A4D8               	btfss	status,2,c
  3621   000E74  EF3E  F007         	goto	u3651
  3622   000E78  EF40  F007         	goto	u3650
  3623   000E7C                     u3651:
  3624   000E7C  EF48  F007         	goto	l4048
  3625   000E80                     u3650:
  3626   000E80  0E00               	movlw	0
  3627   000E82  6E45               	movwf	___fladd@a^0,c
  3628   000E84  0E00               	movlw	0
  3629   000E86  6E46               	movwf	(___fladd@a+1)^0,c
  3630   000E88  0E00               	movlw	0
  3631   000E8A  6E47               	movwf	(___fladd@a+2)^0,c
  3632   000E8C  0E00               	movlw	0
  3633   000E8E  6E48               	movwf	(___fladd@a+3)^0,c
  3634   000E90                     l4048:
  3635   000E90  8E47               	bsf	(___fladd@a+2)^0,7,c
  3636   000E92  0E00               	movlw	0
  3637   000E94  6E48               	movwf	(___fladd@a+3)^0,c
  3638   000E96  EF55  F007         	goto	l4054
  3639   000E9A                     l4052:
  3640   000E9A  0E00               	movlw	0
  3641   000E9C  6E45               	movwf	___fladd@a^0,c
  3642   000E9E  0E00               	movlw	0
  3643   000EA0  6E46               	movwf	(___fladd@a+1)^0,c
  3644   000EA2  0E00               	movlw	0
  3645   000EA4  6E47               	movwf	(___fladd@a+2)^0,c
  3646   000EA6  0E00               	movlw	0
  3647   000EA8  6E48               	movwf	(___fladd@a+3)^0,c
  3648   000EAA                     l4054:
  3649   000EAA  504F               	movf	___fladd@bexp^0,w,c
  3650   000EAC  5C4E               	subwf	___fladd@aexp^0,w,c
  3651   000EAE  B0D8               	btfsc	status,0,c
  3652   000EB0  EF5C  F007         	goto	u3661
  3653   000EB4  EF5E  F007         	goto	u3660
  3654   000EB8                     u3661:
  3655   000EB8  EF85  F007         	goto	l4090
  3656   000EBC                     u3660:
  3657   000EBC  AC4D               	btfss	___fladd@signs^0,6,c
  3658   000EBE  EF63  F007         	goto	u3671
  3659   000EC2  EF65  F007         	goto	u3670
  3660   000EC6                     u3671:
  3661   000EC6  EF67  F007         	goto	l4060
  3662   000ECA                     u3670:
  3663   000ECA  0E80               	movlw	128
  3664   000ECC  1A4D               	xorwf	___fladd@signs^0,f,c
  3665   000ECE                     l4060:
  3666   000ECE  C04F  F050         	movff	___fladd@bexp,___fladd@grs
  3667   000ED2  C04E  F04F         	movff	___fladd@aexp,___fladd@bexp
  3668   000ED6  C050  F04E         	movff	___fladd@grs,___fladd@aexp
  3669   000EDA  C041  F050         	movff	___fladd@b,___fladd@grs
  3670   000EDE  C045  F041         	movff	___fladd@a,___fladd@b
  3671   000EE2  C050  F045         	movff	___fladd@grs,___fladd@a
  3672   000EE6  C042  F050         	movff	___fladd@b+1,___fladd@grs
  3673   000EEA  C046  F042         	movff	___fladd@a+1,___fladd@b+1
  3674   000EEE  C050  F046         	movff	___fladd@grs,___fladd@a+1
  3675   000EF2  C043  F050         	movff	___fladd@b+2,___fladd@grs
  3676   000EF6  C047  F043         	movff	___fladd@a+2,___fladd@b+2
  3677   000EFA  C050  F047         	movff	___fladd@grs,___fladd@a+2
  3678   000EFE  C044  F050         	movff	___fladd@b+3,___fladd@grs
  3679   000F02  C048  F044         	movff	___fladd@a+3,___fladd@b+3
  3680   000F06  C050  F048         	movff	___fladd@grs,___fladd@a+3
  3681   000F0A                     l4090:
  3682   000F0A  0E00               	movlw	0
  3683   000F0C  6E50               	movwf	___fladd@grs^0,c
  3684   000F0E  504F               	movf	___fladd@bexp^0,w,c
  3685   000F10  C04E  F049         	movff	___fladd@aexp,??___fladd
  3686   000F14  6A4A               	clrf	(??___fladd+1)^0,c
  3687   000F16  5E49               	subwf	??___fladd^0,f,c
  3688   000F18  0E00               	movlw	0
  3689   000F1A  5A4A               	subwfb	(??___fladd+1)^0,f,c
  3690   000F1C  BE4A               	btfsc	(??___fladd+1)^0,7,c
  3691   000F1E  EF9A  F007         	goto	u3681
  3692   000F22  504A               	movf	(??___fladd+1)^0,w,c
  3693   000F24  E109               	bnz	u3680
  3694   000F26  0E1A               	movlw	26
  3695   000F28  5C49               	subwf	??___fladd^0,w,c
  3696   000F2A  A0D8               	btfss	status,0,c
  3697   000F2C  EF9A  F007         	goto	u3681
  3698   000F30  EF9C  F007         	goto	u3680
  3699   000F34                     u3681:
  3700   000F34  EFD3  F007         	goto	l1199
  3701   000F38                     u3680:
  3702   000F38  5041               	movf	___fladd@b^0,w,c
  3703   000F3A  1042               	iorwf	(___fladd@b+1)^0,w,c
  3704   000F3C  1043               	iorwf	(___fladd@b+2)^0,w,c
  3705   000F3E  1044               	iorwf	(___fladd@b+3)^0,w,c
  3706   000F40  A4D8               	btfss	status,2,c
  3707   000F42  EFA5  F007         	goto	u3691
  3708   000F46  EFA8  F007         	goto	u3690
  3709   000F4A                     u3691:
  3710   000F4A  0E01               	movlw	1
  3711   000F4C  EFA9  F007         	goto	u3700
  3712   000F50                     u3690:
  3713   000F50  0E00               	movlw	0
  3714   000F52                     u3700:
  3715   000F52  6E50               	movwf	___fladd@grs^0,c
  3716   000F54  0E00               	movlw	0
  3717   000F56  6E41               	movwf	___fladd@b^0,c
  3718   000F58  0E00               	movlw	0
  3719   000F5A  6E42               	movwf	(___fladd@b+1)^0,c
  3720   000F5C  0E00               	movlw	0
  3721   000F5E  6E43               	movwf	(___fladd@b+2)^0,c
  3722   000F60  0E00               	movlw	0
  3723   000F62  6E44               	movwf	(___fladd@b+3)^0,c
  3724   000F64  C04E  F04F         	movff	___fladd@aexp,___fladd@bexp
  3725   000F68  EFDC  F007         	goto	l1198
  3726   000F6C                     l1200:
  3727   000F6C  A050               	btfss	___fladd@grs^0,0,c
  3728   000F6E  EFBB  F007         	goto	u3711
  3729   000F72  EFBD  F007         	goto	u3710
  3730   000F76                     u3711:
  3731   000F76  EFC3  F007         	goto	l4102
  3732   000F7A                     u3710:
  3733   000F7A  90D8               	bcf	status,0,c
  3734   000F7C  3050               	rrcf	___fladd@grs^0,w,c
  3735   000F7E  0901               	iorlw	1
  3736   000F80  6E50               	movwf	___fladd@grs^0,c
  3737   000F82  EFC5  F007         	goto	l4104
  3738   000F86                     l4102:
  3739   000F86  90D8               	bcf	status,0,c
  3740   000F88  3250               	rrcf	___fladd@grs^0,f,c
  3741   000F8A                     l4104:
  3742   000F8A  A041               	btfss	___fladd@b^0,0,c
  3743   000F8C  EFCA  F007         	goto	u3721
  3744   000F90  EFCC  F007         	goto	u3720
  3745   000F94                     u3721:
  3746   000F94  EFCD  F007         	goto	l4108
  3747   000F98                     u3720:
  3748   000F98  8E50               	bsf	___fladd@grs^0,7,c
  3749   000F9A                     l4108:
  3750   000F9A  3444               	rlcf	(___fladd@b+3)^0,w,c
  3751   000F9C  3244               	rrcf	(___fladd@b+3)^0,f,c
  3752   000F9E  3243               	rrcf	(___fladd@b+2)^0,f,c
  3753   000FA0  3242               	rrcf	(___fladd@b+1)^0,f,c
  3754   000FA2  3241               	rrcf	___fladd@b^0,f,c
  3755   000FA4  2A4F               	incf	___fladd@bexp^0,f,c
  3756   000FA6                     l1199:
  3757   000FA6  504E               	movf	___fladd@aexp^0,w,c
  3758   000FA8  5C4F               	subwf	___fladd@bexp^0,w,c
  3759   000FAA  A0D8               	btfss	status,0,c
  3760   000FAC  EFDA  F007         	goto	u3731
  3761   000FB0  EFDC  F007         	goto	u3730
  3762   000FB4                     u3731:
  3763   000FB4  EFB6  F007         	goto	l1200
  3764   000FB8                     u3730:
  3765   000FB8                     l1198:
  3766   000FB8  BC4D               	btfsc	___fladd@signs^0,6,c
  3767   000FBA  EFE1  F007         	goto	u3741
  3768   000FBE  EFE3  F007         	goto	u3740
  3769   000FC2                     u3741:
  3770   000FC2  EF23  F008         	goto	l4136
  3771   000FC6                     u3740:
  3772   000FC6  504F               	movf	___fladd@bexp^0,w,c
  3773   000FC8  A4D8               	btfss	status,2,c
  3774   000FCA  EFE9  F007         	goto	u3751
  3775   000FCE  EFEB  F007         	goto	u3750
  3776   000FD2                     u3751:
  3777   000FD2  EFF5  F007         	goto	l4118
  3778   000FD6                     u3750:
  3779   000FD6  0E00               	movlw	0
  3780   000FD8  6E41               	movwf	?___fladd^0,c
  3781   000FDA  0E00               	movlw	0
  3782   000FDC  6E42               	movwf	(?___fladd+1)^0,c
  3783   000FDE  0E00               	movlw	0
  3784   000FE0  6E43               	movwf	(?___fladd+2)^0,c
  3785   000FE2  0E00               	movlw	0
  3786   000FE4  6E44               	movwf	(?___fladd+3)^0,c
  3787   000FE6  EF44  F009         	goto	l1207
  3788   000FEA                     l4118:
  3789   000FEA  5045               	movf	___fladd@a^0,w,c
  3790   000FEC  2641               	addwf	___fladd@b^0,f,c
  3791   000FEE  5046               	movf	(___fladd@a+1)^0,w,c
  3792   000FF0  2242               	addwfc	(___fladd@b+1)^0,f,c
  3793   000FF2  5047               	movf	(___fladd@a+2)^0,w,c
  3794   000FF4  2243               	addwfc	(___fladd@b+2)^0,f,c
  3795   000FF6  5048               	movf	(___fladd@a+3)^0,w,c
  3796   000FF8  2244               	addwfc	(___fladd@b+3)^0,f,c
  3797   000FFA  A044               	btfss	(___fladd@b+3)^0,0,c
  3798   000FFC  EF02  F008         	goto	u3761
  3799   001000  EF04  F008         	goto	u3760
  3800   001004                     u3761:
  3801   001004  EFB0  F008         	goto	l4172
  3802   001008                     u3760:
  3803   001008  A050               	btfss	___fladd@grs^0,0,c
  3804   00100A  EF09  F008         	goto	u3771
  3805   00100E  EF0B  F008         	goto	u3770
  3806   001012                     u3771:
  3807   001012  EF11  F008         	goto	l4126
  3808   001016                     u3770:
  3809   001016  90D8               	bcf	status,0,c
  3810   001018  3050               	rrcf	___fladd@grs^0,w,c
  3811   00101A  0901               	iorlw	1
  3812   00101C  6E50               	movwf	___fladd@grs^0,c
  3813   00101E  EF13  F008         	goto	l4128
  3814   001022                     l4126:
  3815   001022  90D8               	bcf	status,0,c
  3816   001024  3250               	rrcf	___fladd@grs^0,f,c
  3817   001026                     l4128:
  3818   001026  A041               	btfss	___fladd@b^0,0,c
  3819   001028  EF18  F008         	goto	u3781
  3820   00102C  EF1A  F008         	goto	u3780
  3821   001030                     u3781:
  3822   001030  EF1B  F008         	goto	l4132
  3823   001034                     u3780:
  3824   001034  8E50               	bsf	___fladd@grs^0,7,c
  3825   001036                     l4132:
  3826   001036  3444               	rlcf	(___fladd@b+3)^0,w,c
  3827   001038  3244               	rrcf	(___fladd@b+3)^0,f,c
  3828   00103A  3243               	rrcf	(___fladd@b+2)^0,f,c
  3829   00103C  3242               	rrcf	(___fladd@b+1)^0,f,c
  3830   00103E  3241               	rrcf	___fladd@b^0,f,c
  3831   001040  2A4F               	incf	___fladd@bexp^0,f,c
  3832   001042  EFB0  F008         	goto	l4172
  3833   001046                     l4136:
  3834   001046  5045               	movf	___fladd@a^0,w,c
  3835   001048  5C41               	subwf	___fladd@b^0,w,c
  3836   00104A  5046               	movf	(___fladd@a+1)^0,w,c
  3837   00104C  5842               	subwfb	(___fladd@b+1)^0,w,c
  3838   00104E  5047               	movf	(___fladd@a+2)^0,w,c
  3839   001050  5843               	subwfb	(___fladd@b+2)^0,w,c
  3840   001052  5044               	movf	(___fladd@b+3)^0,w,c
  3841   001054  0A80               	xorlw	128
  3842   001056  6E49               	movwf	??___fladd^0,c
  3843   001058  5048               	movf	(___fladd@a+3)^0,w,c
  3844   00105A  0A80               	xorlw	128
  3845   00105C  5849               	subwfb	??___fladd^0,w,c
  3846   00105E  B0D8               	btfsc	status,0,c
  3847   001060  EF34  F008         	goto	u3791
  3848   001064  EF36  F008         	goto	u3790
  3849   001068                     u3791:
  3850   001068  EF61  F008         	goto	l4146
  3851   00106C                     u3790:
  3852   00106C  5041               	movf	___fladd@b^0,w,c
  3853   00106E  5C45               	subwf	___fladd@a^0,w,c
  3854   001070  6E49               	movwf	??___fladd^0,c
  3855   001072  5042               	movf	(___fladd@b+1)^0,w,c
  3856   001074  5846               	subwfb	(___fladd@a+1)^0,w,c
  3857   001076  6E4A               	movwf	(??___fladd+1)^0,c
  3858   001078  5043               	movf	(___fladd@b+2)^0,w,c
  3859   00107A  5847               	subwfb	(___fladd@a+2)^0,w,c
  3860   00107C  6E4B               	movwf	(??___fladd+2)^0,c
  3861   00107E  5044               	movf	(___fladd@b+3)^0,w,c
  3862   001080  5848               	subwfb	(___fladd@a+3)^0,w,c
  3863   001082  6E4C               	movwf	(??___fladd+3)^0,c
  3864   001084  0EFF               	movlw	255
  3865   001086  2449               	addwf	??___fladd^0,w,c
  3866   001088  6E41               	movwf	___fladd@b^0,c
  3867   00108A  0EFF               	movlw	255
  3868   00108C  204A               	addwfc	(??___fladd+1)^0,w,c
  3869   00108E  6E42               	movwf	(___fladd@b+1)^0,c
  3870   001090  0EFF               	movlw	255
  3871   001092  204B               	addwfc	(??___fladd+2)^0,w,c
  3872   001094  6E43               	movwf	(___fladd@b+2)^0,c
  3873   001096  0EFF               	movlw	255
  3874   001098  204C               	addwfc	(??___fladd+3)^0,w,c
  3875   00109A  6E44               	movwf	(___fladd@b+3)^0,c
  3876   00109C  0E80               	movlw	128
  3877   00109E  1A4D               	xorwf	___fladd@signs^0,f,c
  3878   0010A0  6C50               	negf	___fladd@grs^0,c
  3879   0010A2  5050               	movf	___fladd@grs^0,w,c
  3880   0010A4  A4D8               	btfss	status,2,c
  3881   0010A6  EF57  F008         	goto	u3801
  3882   0010AA  EF59  F008         	goto	u3800
  3883   0010AE                     u3801:
  3884   0010AE  EF69  F008         	goto	l1215
  3885   0010B2                     u3800:
  3886   0010B2  0E01               	movlw	1
  3887   0010B4  2641               	addwf	___fladd@b^0,f,c
  3888   0010B6  0E00               	movlw	0
  3889   0010B8  2242               	addwfc	(___fladd@b+1)^0,f,c
  3890   0010BA  2243               	addwfc	(___fladd@b+2)^0,f,c
  3891   0010BC  2244               	addwfc	(___fladd@b+3)^0,f,c
  3892   0010BE  EF69  F008         	goto	l1215
  3893   0010C2                     l4146:
  3894   0010C2  5045               	movf	___fladd@a^0,w,c
  3895   0010C4  5E41               	subwf	___fladd@b^0,f,c
  3896   0010C6  5046               	movf	(___fladd@a+1)^0,w,c
  3897   0010C8  5A42               	subwfb	(___fladd@b+1)^0,f,c
  3898   0010CA  5047               	movf	(___fladd@a+2)^0,w,c
  3899   0010CC  5A43               	subwfb	(___fladd@b+2)^0,f,c
  3900   0010CE  5048               	movf	(___fladd@a+3)^0,w,c
  3901   0010D0  5A44               	subwfb	(___fladd@b+3)^0,f,c
  3902   0010D2                     l1215:
  3903   0010D2  5041               	movf	___fladd@b^0,w,c
  3904   0010D4  1042               	iorwf	(___fladd@b+1)^0,w,c
  3905   0010D6  1043               	iorwf	(___fladd@b+2)^0,w,c
  3906   0010D8  1044               	iorwf	(___fladd@b+3)^0,w,c
  3907   0010DA  A4D8               	btfss	status,2,c
  3908   0010DC  EF72  F008         	goto	u3811
  3909   0010E0  EF74  F008         	goto	u3810
  3910   0010E4                     u3811:
  3911   0010E4  EFA9  F008         	goto	l4170
  3912   0010E8                     u3810:
  3913   0010E8  5050               	movf	___fladd@grs^0,w,c
  3914   0010EA  A4D8               	btfss	status,2,c
  3915   0010EC  EF7A  F008         	goto	u3821
  3916   0010F0  EF7C  F008         	goto	u3820
  3917   0010F4                     u3821:
  3918   0010F4  EFA9  F008         	goto	l4170
  3919   0010F8                     u3820:
  3920   0010F8  0E00               	movlw	0
  3921   0010FA  6E41               	movwf	?___fladd^0,c
  3922   0010FC  0E00               	movlw	0
  3923   0010FE  6E42               	movwf	(?___fladd+1)^0,c
  3924   001100  0E00               	movlw	0
  3925   001102  6E43               	movwf	(?___fladd+2)^0,c
  3926   001104  0E00               	movlw	0
  3927   001106  6E44               	movwf	(?___fladd+3)^0,c
  3928   001108  EF44  F009         	goto	l1207
  3929   00110C                     l4154:
  3930   00110C  90D8               	bcf	status,0,c
  3931   00110E  3641               	rlcf	___fladd@b^0,f,c
  3932   001110  3642               	rlcf	(___fladd@b+1)^0,f,c
  3933   001112  3643               	rlcf	(___fladd@b+2)^0,f,c
  3934   001114  3644               	rlcf	(___fladd@b+3)^0,f,c
  3935   001116  AE50               	btfss	___fladd@grs^0,7,c
  3936   001118  EF90  F008         	goto	u3831
  3937   00111C  EF92  F008         	goto	u3830
  3938   001120                     u3831:
  3939   001120  EF93  F008         	goto	l4160
  3940   001124                     u3830:
  3941   001124  8041               	bsf	___fladd@b^0,0,c
  3942   001126                     l4160:
  3943   001126  A050               	btfss	___fladd@grs^0,0,c
  3944   001128  EF98  F008         	goto	u3841
  3945   00112C  EF9A  F008         	goto	u3840
  3946   001130                     u3841:
  3947   001130  EF9E  F008         	goto	l4164
  3948   001134                     u3840:
  3949   001134  80D8               	bsf	status,0,c
  3950   001136  3650               	rlcf	___fladd@grs^0,f,c
  3951   001138  EFA0  F008         	goto	l4166
  3952   00113C                     l4164:
  3953   00113C  90D8               	bcf	status,0,c
  3954   00113E  3650               	rlcf	___fladd@grs^0,f,c
  3955   001140                     l4166:
  3956   001140  504F               	movf	___fladd@bexp^0,w,c
  3957   001142  B4D8               	btfsc	status,2,c
  3958   001144  EFA6  F008         	goto	u3851
  3959   001148  EFA8  F008         	goto	u3850
  3960   00114C                     u3851:
  3961   00114C  EFA9  F008         	goto	l4170
  3962   001150                     u3850:
  3963   001150  064F               	decf	___fladd@bexp^0,f,c
  3964   001152                     l4170:
  3965   001152  AE43               	btfss	(___fladd@b+2)^0,7,c
  3966   001154  EFAE  F008         	goto	u3861
  3967   001158  EFB0  F008         	goto	u3860
  3968   00115C                     u3861:
  3969   00115C  EF86  F008         	goto	l4154
  3970   001160                     u3860:
  3971   001160                     l4172:
  3972   001160  0E00               	movlw	0
  3973   001162  6E4E               	movwf	___fladd@aexp^0,c
  3974   001164  AE50               	btfss	___fladd@grs^0,7,c
  3975   001166  EFB7  F008         	goto	u3871
  3976   00116A  EFB9  F008         	goto	u3870
  3977   00116E                     u3871:
  3978   00116E  EFD1  F008         	goto	l1224
  3979   001172                     u3870:
  3980   001172  C050  F049         	movff	___fladd@grs,??___fladd
  3981   001176  0E7F               	movlw	127
  3982   001178  1649               	andwf	??___fladd^0,f,c
  3983   00117A  B4D8               	btfsc	status,2,c
  3984   00117C  EFC2  F008         	goto	u3881
  3985   001180  EFC4  F008         	goto	u3880
  3986   001184                     u3881:
  3987   001184  EFC8  F008         	goto	l1225
  3988   001188                     u3880:
  3989   001188                     l4178:
  3990   001188  0E01               	movlw	1
  3991   00118A  6E4E               	movwf	___fladd@aexp^0,c
  3992   00118C  EFD1  F008         	goto	l1224
  3993   001190                     l1225:
  3994   001190  A041               	btfss	___fladd@b^0,0,c
  3995   001192  EFCD  F008         	goto	u3891
  3996   001196  EFCF  F008         	goto	u3890
  3997   00119A                     u3891:
  3998   00119A  EFD1  F008         	goto	l1224
  3999   00119E                     u3890:
  4000   00119E  EFC4  F008         	goto	l4178
  4001   0011A2                     l1224:
  4002   0011A2  504E               	movf	___fladd@aexp^0,w,c
  4003   0011A4  B4D8               	btfsc	status,2,c
  4004   0011A6  EFD7  F008         	goto	u3901
  4005   0011AA  EFD9  F008         	goto	u3900
  4006   0011AE                     u3901:
  4007   0011AE  EF04  F009         	goto	l4190
  4008   0011B2                     u3900:
  4009   0011B2  0E01               	movlw	1
  4010   0011B4  2641               	addwf	___fladd@b^0,f,c
  4011   0011B6  0E00               	movlw	0
  4012   0011B8  2242               	addwfc	(___fladd@b+1)^0,f,c
  4013   0011BA  2243               	addwfc	(___fladd@b+2)^0,f,c
  4014   0011BC  2244               	addwfc	(___fladd@b+3)^0,f,c
  4015   0011BE  A044               	btfss	(___fladd@b+3)^0,0,c
  4016   0011C0  EFE4  F008         	goto	u3911
  4017   0011C4  EFE6  F008         	goto	u3910
  4018   0011C8                     u3911:
  4019   0011C8  EF04  F009         	goto	l4190
  4020   0011CC                     u3910:
  4021   0011CC  C041  F049         	movff	___fladd@b,??___fladd
  4022   0011D0  C042  F04A         	movff	___fladd@b+1,??___fladd+1
  4023   0011D4  C043  F04B         	movff	___fladd@b+2,??___fladd+2
  4024   0011D8  C044  F04C         	movff	___fladd@b+3,??___fladd+3
  4025   0011DC  344C               	rlcf	(??___fladd+3)^0,w,c
  4026   0011DE  324C               	rrcf	(??___fladd+3)^0,f,c
  4027   0011E0  324B               	rrcf	(??___fladd+2)^0,f,c
  4028   0011E2  324A               	rrcf	(??___fladd+1)^0,f,c
  4029   0011E4  3249               	rrcf	??___fladd^0,f,c
  4030   0011E6  C049  F041         	movff	??___fladd,___fladd@b
  4031   0011EA  C04A  F042         	movff	??___fladd+1,___fladd@b+1
  4032   0011EE  C04B  F043         	movff	??___fladd+2,___fladd@b+2
  4033   0011F2  C04C  F044         	movff	??___fladd+3,___fladd@b+3
  4034   0011F6  284F               	incf	___fladd@bexp^0,w,c
  4035   0011F8  B4D8               	btfsc	status,2,c
  4036   0011FA  EF01  F009         	goto	u3921
  4037   0011FE  EF03  F009         	goto	u3920
  4038   001202                     u3921:
  4039   001202  EF04  F009         	goto	l4190
  4040   001206                     u3920:
  4041   001206  2A4F               	incf	___fladd@bexp^0,f,c
  4042   001208                     l4190:
  4043   001208  284F               	incf	___fladd@bexp^0,w,c
  4044   00120A  B4D8               	btfsc	status,2,c
  4045   00120C  EF0A  F009         	goto	u3931
  4046   001210  EF0C  F009         	goto	u3930
  4047   001214                     u3931:
  4048   001214  EF14  F009         	goto	l4194
  4049   001218                     u3930:
  4050   001218  504F               	movf	___fladd@bexp^0,w,c
  4051   00121A  A4D8               	btfss	status,2,c
  4052   00121C  EF12  F009         	goto	u3941
  4053   001220  EF14  F009         	goto	u3940
  4054   001224                     u3941:
  4055   001224  EF26  F009         	goto	l4198
  4056   001228                     u3940:
  4057   001228                     l4194:
  4058   001228  0E00               	movlw	0
  4059   00122A  6E41               	movwf	___fladd@b^0,c
  4060   00122C  0E00               	movlw	0
  4061   00122E  6E42               	movwf	(___fladd@b+1)^0,c
  4062   001230  0E00               	movlw	0
  4063   001232  6E43               	movwf	(___fladd@b+2)^0,c
  4064   001234  0E00               	movlw	0
  4065   001236  6E44               	movwf	(___fladd@b+3)^0,c
  4066   001238  504F               	movf	___fladd@bexp^0,w,c
  4067   00123A  A4D8               	btfss	status,2,c
  4068   00123C  EF22  F009         	goto	u3951
  4069   001240  EF24  F009         	goto	u3950
  4070   001244                     u3951:
  4071   001244  EF26  F009         	goto	l4198
  4072   001248                     u3950:
  4073   001248  0E00               	movlw	0
  4074   00124A  6E4D               	movwf	___fladd@signs^0,c
  4075   00124C                     l4198:
  4076   00124C  A04F               	btfss	___fladd@bexp^0,0,c
  4077   00124E  EF2B  F009         	goto	u3961
  4078   001252  EF2D  F009         	goto	u3960
  4079   001256                     u3961:
  4080   001256  EF30  F009         	goto	l4202
  4081   00125A                     u3960:
  4082   00125A  8E43               	bsf	(___fladd@b+2)^0,7,c
  4083   00125C  EF31  F009         	goto	l4204
  4084   001260                     l4202:
  4085   001260  9E43               	bcf	(___fladd@b+2)^0,7,c
  4086   001262                     l4204:
  4087   001262  90D8               	bcf	status,0,c
  4088   001264  304F               	rrcf	___fladd@bexp^0,w,c
  4089   001266  6E44               	movwf	(___fladd@b+3)^0,c
  4090   001268  AE4D               	btfss	___fladd@signs^0,7,c
  4091   00126A  EF39  F009         	goto	u3971
  4092   00126E  EF3B  F009         	goto	u3970
  4093   001272                     u3971:
  4094   001272  EF3C  F009         	goto	l4210
  4095   001276                     u3970:
  4096   001276  8E44               	bsf	(___fladd@b+3)^0,7,c
  4097   001278                     l4210:
  4098   001278  C041  F041         	movff	___fladd@b,?___fladd
  4099   00127C  C042  F042         	movff	___fladd@b+1,?___fladd+1
  4100   001280  C043  F043         	movff	___fladd@b+2,?___fladd+2
  4101   001284  C044  F044         	movff	___fladd@b+3,?___fladd+3
  4102   001288                     l1207:
  4103   001288  0012               	return		;funcret
  4104   00128A                     __end_of___fladd:
  4105                           	callstack 0
  4106                           
  4107 ;; *************** function _Screen_Device_2 *****************
  4108 ;; Defined at:
  4109 ;;		line 135 in file "LCD_Screens.c"
  4110 ;; Parameters:    Size  Location     Type
  4111 ;;		None
  4112 ;; Auto vars:     Size  Location     Type
  4113 ;;  i               2   19[COMRAM] int 
  4114 ;;  i               2   17[COMRAM] int 
  4115 ;; Return value:  Size  Location     Type
  4116 ;;                  1    wreg      void 
  4117 ;; Registers used:
  4118 ;;		wreg, fsr1l, fsr1h, fsr2l, fsr2h, status,2, status,0, tblptrl, tblptrh, tblptru, cstack
  4119 ;; Tracked objects:
  4120 ;;		On entry : 0/0
  4121 ;;		On exit  : 0/0
  4122 ;;		Unchanged: 0/0
  4123 ;; Data sizes:     COMRAM   BANK0   BANK1   BANK2   BANK3   BANK4   BANK5   BANK6   BANK7
  4124 ;;      Params:         0       0       0       0       0       0       0       0       0
  4125 ;;      Locals:         4       0       0       0       0       0       0       0       0
  4126 ;;      Temps:          2       0       0       0       0       0       0       0       0
  4127 ;;      Totals:         6       0       0       0       0       0       0       0       0
  4128 ;;Total ram usage:        6 bytes
  4129 ;; Hardware stack levels used: 1
  4130 ;; Hardware stack levels required when called: 4
  4131 ;; This function calls:
  4132 ;;		_Flash
  4133 ;;		_LCD_goto_xy
  4134 ;;		_LCD_write
  4135 ;;		_LCD_write_string
  4136 ;;		_Set_Time
  4137 ;; This function is called by:
  4138 ;;		_main
  4139 ;; This function uses a non-reentrant model
  4140 ;;
  4141                           
  4142                           	psect	text8
  4143   001B2C                     __ptext8:
  4144                           	callstack 0
  4145   001B2C                     _Screen_Device_2:
  4146                           	callstack 26
  4147   001B2C                     
  4148                           ;LCD_Screens.c: 137:     LCD_goto_xy(0, 0);
  4149   001B2C  0E00               	movlw	0
  4150   001B2E  6E03               	movwf	(LCD_goto_xy@x+1)^0,c
  4151   001B30  0E00               	movlw	0
  4152   001B32  6E02               	movwf	LCD_goto_xy@x^0,c
  4153   001B34  0E00               	movlw	0
  4154   001B36  6E05               	movwf	(LCD_goto_xy@y+1)^0,c
  4155   001B38  0E00               	movlw	0
  4156   001B3A  6E04               	movwf	LCD_goto_xy@y^0,c
  4157   001B3C  ECAF  F01E         	call	_LCD_goto_xy	;wreg free
  4158   001B40                     
  4159                           ;LCD_Screens.c: 138:     LCD_write_string("Start2: ");
  4160   001B40  0E34               	movlw	low STR_14
  4161   001B42  6E03               	movwf	LCD_write_string@str^0,c
  4162   001B44  0E08               	movlw	high STR_14
  4163   001B46  6E04               	movwf	(LCD_write_string@str+1)^0,c
  4164   001B48  EC39  F020         	call	_LCD_write_string	;wreg free
  4165   001B4C                     
  4166                           ;LCD_Screens.c: 140:     for (int i = 0; i < 8; i++)
  4167   001B4C  0E00               	movlw	0
  4168   001B4E  6E13               	movwf	(Screen_Device_2@i+1)^0,c
  4169   001B50  0E00               	movlw	0
  4170   001B52  6E12               	movwf	Screen_Device_2@i^0,c
  4171   001B54                     l4864:
  4172                           
  4173                           ;LCD_Screens.c: 141:     {;LCD_Screens.c: 142:         LCD_write(time1[2][i]);
  4174   001B54  0ECF               	movlw	low (_time1+16)
  4175   001B56  2412               	addwf	Screen_Device_2@i^0,w,c
  4176   001B58  6ED9               	movwf	fsr2l,c
  4177   001B5A  0E00               	movlw	high (_time1+16)
  4178   001B5C  2013               	addwfc	(Screen_Device_2@i+1)^0,w,c
  4179   001B5E  6EDA               	movwf	fsr2h,c
  4180   001B60  50DF               	movf	indf2,w,c
  4181   001B62  EC29  F022         	call	_LCD_write
  4182   001B66                     
  4183                           ;LCD_Screens.c: 143:     }
  4184   001B66  4A12               	infsnz	Screen_Device_2@i^0,f,c
  4185   001B68  2A13               	incf	(Screen_Device_2@i+1)^0,f,c
  4186   001B6A  BE13               	btfsc	(Screen_Device_2@i+1)^0,7,c
  4187   001B6C  EFC1  F00D         	goto	u4931
  4188   001B70  5013               	movf	(Screen_Device_2@i+1)^0,w,c
  4189   001B72  E109               	bnz	u4930
  4190   001B74  0E08               	movlw	8
  4191   001B76  5C12               	subwf	Screen_Device_2@i^0,w,c
  4192   001B78  A0D8               	btfss	status,0,c
  4193   001B7A  EFC1  F00D         	goto	u4931
  4194   001B7E  EFC3  F00D         	goto	u4930
  4195   001B82                     u4931:
  4196   001B82  EFAA  F00D         	goto	l4864
  4197   001B86                     u4930:
  4198   001B86                     
  4199                           ;LCD_Screens.c: 145:     LCD_goto_xy(1, 0);
  4200   001B86  0E00               	movlw	0
  4201   001B88  6E03               	movwf	(LCD_goto_xy@x+1)^0,c
  4202   001B8A  0E01               	movlw	1
  4203   001B8C  6E02               	movwf	LCD_goto_xy@x^0,c
  4204   001B8E  0E00               	movlw	0
  4205   001B90  6E05               	movwf	(LCD_goto_xy@y+1)^0,c
  4206   001B92  0E00               	movlw	0
  4207   001B94  6E04               	movwf	LCD_goto_xy@y^0,c
  4208   001B96  ECAF  F01E         	call	_LCD_goto_xy	;wreg free
  4209   001B9A                     
  4210                           ;LCD_Screens.c: 146:     LCD_write_string("Finish: ");
  4211   001B9A  0E3D               	movlw	low STR_13
  4212   001B9C  6E03               	movwf	LCD_write_string@str^0,c
  4213   001B9E  0E08               	movlw	high STR_13
  4214   001BA0  6E04               	movwf	(LCD_write_string@str+1)^0,c
  4215   001BA2  EC39  F020         	call	_LCD_write_string	;wreg free
  4216   001BA6                     
  4217                           ;LCD_Screens.c: 148:     for (int i = 0; i < 8; i++)
  4218   001BA6  0E00               	movlw	0
  4219   001BA8  6E15               	movwf	(Screen_Device_2@i_157+1)^0,c
  4220   001BAA  0E00               	movlw	0
  4221   001BAC  6E14               	movwf	Screen_Device_2@i_157^0,c
  4222   001BAE                     l4880:
  4223                           
  4224                           ;LCD_Screens.c: 149:     {;LCD_Screens.c: 150:         LCD_write(time1[3][i]);
  4225   001BAE  0ED7               	movlw	low (_time1+24)
  4226   001BB0  2414               	addwf	Screen_Device_2@i_157^0,w,c
  4227   001BB2  6ED9               	movwf	fsr2l,c
  4228   001BB4  0E00               	movlw	high (_time1+24)
  4229   001BB6  2015               	addwfc	(Screen_Device_2@i_157+1)^0,w,c
  4230   001BB8  6EDA               	movwf	fsr2h,c
  4231   001BBA  50DF               	movf	indf2,w,c
  4232   001BBC  EC29  F022         	call	_LCD_write
  4233   001BC0                     
  4234                           ;LCD_Screens.c: 151:     }
  4235   001BC0  4A14               	infsnz	Screen_Device_2@i_157^0,f,c
  4236   001BC2  2A15               	incf	(Screen_Device_2@i_157+1)^0,f,c
  4237   001BC4  BE15               	btfsc	(Screen_Device_2@i_157+1)^0,7,c
  4238   001BC6  EFEE  F00D         	goto	u4941
  4239   001BCA  5015               	movf	(Screen_Device_2@i_157+1)^0,w,c
  4240   001BCC  E109               	bnz	u4940
  4241   001BCE  0E08               	movlw	8
  4242   001BD0  5C14               	subwf	Screen_Device_2@i_157^0,w,c
  4243   001BD2  A0D8               	btfss	status,0,c
  4244   001BD4  EFEE  F00D         	goto	u4941
  4245   001BD8  EFF0  F00D         	goto	u4940
  4246   001BDC                     u4941:
  4247   001BDC  EFD7  F00D         	goto	l4880
  4248   001BE0                     u4940:
  4249   001BE0                     
  4250                           ;LCD_Screens.c: 152:     _delay((unsigned long)((50)*(8000000UL/4000.0)));
  4251   001BE0  0E82               	movlw	130
  4252   001BE2  6E10               	movwf	??_Screen_Device_2^0,c
  4253   001BE4  0EDE               	movlw	222
  4254   001BE6                     u5297:
  4255   001BE6  2EE8               	decfsz	wreg,f,c
  4256   001BE8  D7FE               	bra	u5297
  4257   001BEA  2E10               	decfsz	??_Screen_Device_2^0,f,c
  4258   001BEC  D7FC               	bra	u5297
  4259   001BEE                     
  4260                           ;LCD_Screens.c: 154:     if(((PORTB & (1<<3))? 1:0))
  4261   001BEE  A681               	btfss	129,3,c	;volatile
  4262   001BF0  EFFC  F00D         	goto	u4951
  4263   001BF4  EFFE  F00D         	goto	u4950
  4264   001BF8                     u4951:
  4265   001BF8  EF6F  F00E         	goto	l4918
  4266   001BFC                     u4950:
  4267   001BFC                     
  4268                           ;LCD_Screens.c: 155:     {;LCD_Screens.c: 156:         _delay((unsigned long)((5)*(80000
      +                          00UL/4000.0)));
  4269   001BFC  0E0D               	movlw	13
  4270   001BFE  6E10               	movwf	??_Screen_Device_2^0,c
  4271   001C00  0EFC               	movlw	252
  4272   001C02                     u5307:
  4273   001C02  2EE8               	decfsz	wreg,f,c
  4274   001C04  D7FE               	bra	u5307
  4275   001C06  2E10               	decfsz	??_Screen_Device_2^0,f,c
  4276   001C08  D7FC               	bra	u5307
  4277   001C0A                     l169:
  4278   001C0A  B681               	btfsc	129,3,c	;volatile
  4279   001C0C  EF0A  F00E         	goto	u4961
  4280   001C10  EF0C  F00E         	goto	u4960
  4281   001C14                     u4961:
  4282   001C14  EF05  F00E         	goto	l169
  4283   001C18                     u4960:
  4284   001C18                     
  4285                           ;LCD_Screens.c: 159:         if(Place3<9)
  4286   001C18  0100               	movlb	0	; () banked
  4287   001C1A  BF97               	btfsc	(_Place3+1)& (0+255),7,b
  4288   001C1C  EF1B  F00E         	goto	u4970
  4289   001C20  5197               	movf	(_Place3+1)& (0+255),w,b
  4290   001C22  E107               	bnz	u4971
  4291   001C24  0E09               	movlw	9
  4292   001C26  5D96               	subwf	_Place3& (0+255),w,b
  4293   001C28  B0D8               	btfsc	status,0,c
  4294   001C2A  EF19  F00E         	goto	u4971
  4295   001C2E  EF1B  F00E         	goto	u4970
  4296   001C32                     u4971:
  4297   001C32  EF1F  F00E         	goto	l4896
  4298   001C36                     u4970:
  4299   001C36                     
  4300                           ; BSR set to: 0
  4301                           ;LCD_Screens.c: 160:         {;LCD_Screens.c: 161:             Place3++;
  4302   001C36  4B96               	infsnz	_Place3& (0+255),f,b
  4303   001C38  2B97               	incf	(_Place3+1)& (0+255),f,b
  4304                           
  4305                           ;LCD_Screens.c: 162:         }
  4306   001C3A  EF21  F00E         	goto	l4898
  4307   001C3E                     l4896:
  4308                           
  4309                           ; BSR set to: 0
  4310   001C3E  4B94               	infsnz	_Place4& (0+255),f,b
  4311   001C40  2B95               	incf	(_Place4+1)& (0+255),f,b
  4312   001C42                     l4898:
  4313                           
  4314                           ; BSR set to: 0
  4315                           ;LCD_Screens.c: 165:         if(Place3==3) Place3=4;
  4316   001C42  0E03               	movlw	3
  4317   001C44  1996               	xorwf	_Place3& (0+255),w,b
  4318   001C46  1197               	iorwf	(_Place3+1)& (0+255),w,b
  4319   001C48  A4D8               	btfss	status,2,c
  4320   001C4A  EF29  F00E         	goto	u4981
  4321   001C4E  EF2B  F00E         	goto	u4980
  4322   001C52                     u4981:
  4323   001C52  EF2F  F00E         	goto	l4902
  4324   001C56                     u4980:
  4325   001C56                     
  4326                           ; BSR set to: 0
  4327   001C56  0E00               	movlw	0
  4328   001C58  6F97               	movwf	(_Place3+1)& (0+255),b
  4329   001C5A  0E04               	movlw	4
  4330   001C5C  6F96               	movwf	_Place3& (0+255),b
  4331   001C5E                     l4902:
  4332                           
  4333                           ; BSR set to: 0
  4334                           ;LCD_Screens.c: 166:         if(Place3==6) Place3=7;
  4335   001C5E  0E06               	movlw	6
  4336   001C60  1996               	xorwf	_Place3& (0+255),w,b
  4337   001C62  1197               	iorwf	(_Place3+1)& (0+255),w,b
  4338   001C64  A4D8               	btfss	status,2,c
  4339   001C66  EF37  F00E         	goto	u4991
  4340   001C6A  EF39  F00E         	goto	u4990
  4341   001C6E                     u4991:
  4342   001C6E  EF3D  F00E         	goto	l4906
  4343   001C72                     u4990:
  4344   001C72                     
  4345                           ; BSR set to: 0
  4346   001C72  0E00               	movlw	0
  4347   001C74  6F97               	movwf	(_Place3+1)& (0+255),b
  4348   001C76  0E07               	movlw	7
  4349   001C78  6F96               	movwf	_Place3& (0+255),b
  4350   001C7A                     l4906:
  4351                           
  4352                           ; BSR set to: 0
  4353                           ;LCD_Screens.c: 167:         if(Place4==3) Place4=4;
  4354   001C7A  0E03               	movlw	3
  4355   001C7C  1994               	xorwf	_Place4& (0+255),w,b
  4356   001C7E  1195               	iorwf	(_Place4+1)& (0+255),w,b
  4357   001C80  A4D8               	btfss	status,2,c
  4358   001C82  EF45  F00E         	goto	u5001
  4359   001C86  EF47  F00E         	goto	u5000
  4360   001C8A                     u5001:
  4361   001C8A  EF4B  F00E         	goto	l4910
  4362   001C8E                     u5000:
  4363   001C8E                     
  4364                           ; BSR set to: 0
  4365   001C8E  0E00               	movlw	0
  4366   001C90  6F95               	movwf	(_Place4+1)& (0+255),b
  4367   001C92  0E04               	movlw	4
  4368   001C94  6F94               	movwf	_Place4& (0+255),b
  4369   001C96                     l4910:
  4370                           
  4371                           ; BSR set to: 0
  4372                           ;LCD_Screens.c: 168:         if(Place4==6) Place4=7;
  4373   001C96  0E06               	movlw	6
  4374   001C98  1994               	xorwf	_Place4& (0+255),w,b
  4375   001C9A  1195               	iorwf	(_Place4+1)& (0+255),w,b
  4376   001C9C  A4D8               	btfss	status,2,c
  4377   001C9E  EF53  F00E         	goto	u5011
  4378   001CA2  EF55  F00E         	goto	u5010
  4379   001CA6                     u5011:
  4380   001CA6  EF59  F00E         	goto	l4914
  4381   001CAA                     u5010:
  4382   001CAA                     
  4383                           ; BSR set to: 0
  4384   001CAA  0E00               	movlw	0
  4385   001CAC  6F95               	movwf	(_Place4+1)& (0+255),b
  4386   001CAE  0E07               	movlw	7
  4387   001CB0  6F94               	movwf	_Place4& (0+255),b
  4388   001CB2                     l4914:
  4389                           
  4390                           ; BSR set to: 0
  4391                           ;LCD_Screens.c: 170:         if(Place4>8)
  4392   001CB2  BF95               	btfsc	(_Place4+1)& (0+255),7,b
  4393   001CB4  EF65  F00E         	goto	u5021
  4394   001CB8  5195               	movf	(_Place4+1)& (0+255),w,b
  4395   001CBA  E109               	bnz	u5020
  4396   001CBC  0E09               	movlw	9
  4397   001CBE  5D94               	subwf	_Place4& (0+255),w,b
  4398   001CC0  A0D8               	btfss	status,0,c
  4399   001CC2  EF65  F00E         	goto	u5021
  4400   001CC6  EF67  F00E         	goto	u5020
  4401   001CCA                     u5021:
  4402   001CCA  EF6F  F00E         	goto	l4918
  4403   001CCE                     u5020:
  4404   001CCE                     
  4405                           ; BSR set to: 0
  4406                           ;LCD_Screens.c: 171:         {;LCD_Screens.c: 172:             Place3=0;
  4407   001CCE  0E00               	movlw	0
  4408   001CD0  6F97               	movwf	(_Place3+1)& (0+255),b
  4409   001CD2  0E00               	movlw	0
  4410   001CD4  6F96               	movwf	_Place3& (0+255),b
  4411                           
  4412                           ;LCD_Screens.c: 173:             Place4=0;
  4413   001CD6  0E00               	movlw	0
  4414   001CD8  6F95               	movwf	(_Place4+1)& (0+255),b
  4415   001CDA  0E00               	movlw	0
  4416   001CDC  6F94               	movwf	_Place4& (0+255),b
  4417   001CDE                     l4918:
  4418                           
  4419                           ;LCD_Screens.c: 177:         if (Place3 > 0 && Place3 < 9) {
  4420   001CDE  0100               	movlb	0	; () banked
  4421   001CE0  BF97               	btfsc	(_Place3+1)& (0+255),7,b
  4422   001CE2  EF7B  F00E         	goto	u5031
  4423   001CE6  5197               	movf	(_Place3+1)& (0+255),w,b
  4424   001CE8  E108               	bnz	u5030
  4425   001CEA  0596               	decf	_Place3& (0+255),w,b
  4426   001CEC  A0D8               	btfss	status,0,c
  4427   001CEE  EF7B  F00E         	goto	u5031
  4428   001CF2  EF7D  F00E         	goto	u5030
  4429   001CF6                     u5031:
  4430   001CF6  EF97  F00E         	goto	l4924
  4431   001CFA                     u5030:
  4432   001CFA                     
  4433                           ; BSR set to: 0
  4434   001CFA  BF97               	btfsc	(_Place3+1)& (0+255),7,b
  4435   001CFC  EF8B  F00E         	goto	u5040
  4436   001D00  5197               	movf	(_Place3+1)& (0+255),w,b
  4437   001D02  E107               	bnz	u5041
  4438   001D04  0E09               	movlw	9
  4439   001D06  5D96               	subwf	_Place3& (0+255),w,b
  4440   001D08  B0D8               	btfsc	status,0,c
  4441   001D0A  EF89  F00E         	goto	u5041
  4442   001D0E  EF8B  F00E         	goto	u5040
  4443   001D12                     u5041:
  4444   001D12  EF97  F00E         	goto	l4924
  4445   001D16                     u5040:
  4446   001D16                     
  4447                           ; BSR set to: 0
  4448                           ;LCD_Screens.c: 178:         Set_Time(2, Place3);
  4449   001D16  0E00               	movlw	0
  4450   001D18  6E02               	movwf	(Set_Time@Num+1)^0,c
  4451   001D1A  0E02               	movlw	2
  4452   001D1C  6E01               	movwf	Set_Time@Num^0,c
  4453   001D1E  C096  F003         	movff	_Place3,Set_Time@Place
  4454   001D22  C097  F004         	movff	_Place3+1,Set_Time@Place+1
  4455   001D26  EC28  F004         	call	_Set_Time	;wreg free
  4456                           
  4457                           ;LCD_Screens.c: 179:     }
  4458   001D2A  EF06  F00F         	goto	l4944
  4459   001D2E                     l4924:
  4460                           
  4461                           ; BSR set to: 0
  4462   001D2E  BF95               	btfsc	(_Place4+1)& (0+255),7,b
  4463   001D30  EFA2  F00E         	goto	u5051
  4464   001D34  5195               	movf	(_Place4+1)& (0+255),w,b
  4465   001D36  E108               	bnz	u5050
  4466   001D38  0594               	decf	_Place4& (0+255),w,b
  4467   001D3A  A0D8               	btfss	status,0,c
  4468   001D3C  EFA2  F00E         	goto	u5051
  4469   001D40  EFA4  F00E         	goto	u5050
  4470   001D44                     u5051:
  4471   001D44  EF06  F00F         	goto	l4944
  4472   001D48                     u5050:
  4473   001D48                     
  4474                           ; BSR set to: 0
  4475   001D48  BF95               	btfsc	(_Place4+1)& (0+255),7,b
  4476   001D4A  EFB2  F00E         	goto	u5060
  4477   001D4E  5195               	movf	(_Place4+1)& (0+255),w,b
  4478   001D50  E107               	bnz	u5061
  4479   001D52  0E09               	movlw	9
  4480   001D54  5D94               	subwf	_Place4& (0+255),w,b
  4481   001D56  B0D8               	btfsc	status,0,c
  4482   001D58  EFB0  F00E         	goto	u5061
  4483   001D5C  EFB2  F00E         	goto	u5060
  4484   001D60                     u5061:
  4485   001D60  EF06  F00F         	goto	l4944
  4486   001D64                     u5060:
  4487   001D64                     
  4488                           ; BSR set to: 0
  4489                           ;LCD_Screens.c: 181:         Set_Time(3, Place4);
  4490   001D64  0E00               	movlw	0
  4491   001D66  6E02               	movwf	(Set_Time@Num+1)^0,c
  4492   001D68  0E03               	movlw	3
  4493   001D6A  6E01               	movwf	Set_Time@Num^0,c
  4494   001D6C  C094  F003         	movff	_Place4,Set_Time@Place
  4495   001D70  C095  F004         	movff	_Place4+1,Set_Time@Place+1
  4496   001D74  EC28  F004         	call	_Set_Time	;wreg free
  4497   001D78  EF06  F00F         	goto	l4944
  4498   001D7C                     l4930:
  4499   001D7C  0E00               	movlw	0
  4500   001D7E  6E0C               	movwf	(Flash@inc+1)^0,c
  4501   001D80  0E01               	movlw	1
  4502   001D82  6E0B               	movwf	Flash@inc^0,c
  4503   001D84  C096  F00D         	movff	_Place3,Flash@PlaceN
  4504   001D88  C097  F00E         	movff	_Place3+1,Flash@PlaceN+1
  4505   001D8C  EC5A  F021         	call	_Flash	;wreg free
  4506                           
  4507                           ;LCD_Screens.c: 186:             break;
  4508   001D90  EF74  F00F         	goto	l4960
  4509   001D94                     l4932:
  4510   001D94  0E00               	movlw	0
  4511   001D96  6E0C               	movwf	(Flash@inc+1)^0,c
  4512   001D98  0E02               	movlw	2
  4513   001D9A  6E0B               	movwf	Flash@inc^0,c
  4514   001D9C  C096  F00D         	movff	_Place3,Flash@PlaceN
  4515   001DA0  C097  F00E         	movff	_Place3+1,Flash@PlaceN+1
  4516   001DA4  EC5A  F021         	call	_Flash	;wreg free
  4517                           
  4518                           ;LCD_Screens.c: 188:             break;
  4519   001DA8  EF74  F00F         	goto	l4960
  4520   001DAC                     l4934:
  4521   001DAC  0E00               	movlw	0
  4522   001DAE  6E0C               	movwf	(Flash@inc+1)^0,c
  4523   001DB0  0E04               	movlw	4
  4524   001DB2  6E0B               	movwf	Flash@inc^0,c
  4525   001DB4  C096  F00D         	movff	_Place3,Flash@PlaceN
  4526   001DB8  C097  F00E         	movff	_Place3+1,Flash@PlaceN+1
  4527   001DBC  EC5A  F021         	call	_Flash	;wreg free
  4528                           
  4529                           ;LCD_Screens.c: 190:             break;
  4530   001DC0  EF74  F00F         	goto	l4960
  4531   001DC4                     l4936:
  4532   001DC4  0E00               	movlw	0
  4533   001DC6  6E0C               	movwf	(Flash@inc+1)^0,c
  4534   001DC8  0E05               	movlw	5
  4535   001DCA  6E0B               	movwf	Flash@inc^0,c
  4536   001DCC  C096  F00D         	movff	_Place3,Flash@PlaceN
  4537   001DD0  C097  F00E         	movff	_Place3+1,Flash@PlaceN+1
  4538   001DD4  EC5A  F021         	call	_Flash	;wreg free
  4539                           
  4540                           ;LCD_Screens.c: 192:             break;
  4541   001DD8  EF74  F00F         	goto	l4960
  4542   001DDC                     l4938:
  4543   001DDC  0E00               	movlw	0
  4544   001DDE  6E0C               	movwf	(Flash@inc+1)^0,c
  4545   001DE0  0E07               	movlw	7
  4546   001DE2  6E0B               	movwf	Flash@inc^0,c
  4547   001DE4  C096  F00D         	movff	_Place3,Flash@PlaceN
  4548   001DE8  C097  F00E         	movff	_Place3+1,Flash@PlaceN+1
  4549   001DEC  EC5A  F021         	call	_Flash	;wreg free
  4550                           
  4551                           ;LCD_Screens.c: 194:             break;
  4552   001DF0  EF74  F00F         	goto	l4960
  4553   001DF4                     l4940:
  4554   001DF4  0E00               	movlw	0
  4555   001DF6  6E0C               	movwf	(Flash@inc+1)^0,c
  4556   001DF8  0E08               	movlw	8
  4557   001DFA  6E0B               	movwf	Flash@inc^0,c
  4558   001DFC  C096  F00D         	movff	_Place3,Flash@PlaceN
  4559   001E00  C097  F00E         	movff	_Place3+1,Flash@PlaceN+1
  4560   001E04  EC5A  F021         	call	_Flash	;wreg free
  4561                           
  4562                           ;LCD_Screens.c: 196:             break;
  4563   001E08  EF74  F00F         	goto	l4960
  4564   001E0C                     l4944:
  4565   001E0C  C096  F010         	movff	_Place3,??_Screen_Device_2
  4566   001E10  C097  F011         	movff	_Place3+1,??_Screen_Device_2+1
  4567                           
  4568                           ; Switch on 2 bytes has been partitioned into a top level switch of size 1, and 1 sub-sw
      +                          itches
  4569                           ; Switch size 1, requested type "simple"
  4570                           ; Number of cases is 1, Range of values is 0 to 0
  4571                           ; switch strategies available:
  4572                           ; Name         Instructions Cycles
  4573                           ; simple_byte            4     3 (average)
  4574                           ;	Chosen strategy is simple_byte
  4575   001E14  5011               	movf	(??_Screen_Device_2+1)^0,w,c
  4576   001E16  0A00               	xorlw	0	; case 0
  4577   001E18  B4D8               	btfsc	status,2,c
  4578   001E1A  EF11  F00F         	goto	l5488
  4579   001E1E  EF74  F00F         	goto	l4960
  4580   001E22                     l5488:
  4581                           
  4582                           ; Switch size 1, requested type "simple"
  4583                           ; Number of cases is 6, Range of values is 1 to 8
  4584                           ; switch strategies available:
  4585                           ; Name         Instructions Cycles
  4586                           ; simple_byte           19    10 (average)
  4587                           ;	Chosen strategy is simple_byte
  4588   001E22  5010               	movf	??_Screen_Device_2^0,w,c
  4589   001E24  0A01               	xorlw	1	; case 1
  4590   001E26  B4D8               	btfsc	status,2,c
  4591   001E28  EFBE  F00E         	goto	l4930
  4592   001E2C  0A03               	xorlw	3	; case 2
  4593   001E2E  B4D8               	btfsc	status,2,c
  4594   001E30  EFCA  F00E         	goto	l4932
  4595   001E34  0A06               	xorlw	6	; case 4
  4596   001E36  B4D8               	btfsc	status,2,c
  4597   001E38  EFD6  F00E         	goto	l4934
  4598   001E3C  0A01               	xorlw	1	; case 5
  4599   001E3E  B4D8               	btfsc	status,2,c
  4600   001E40  EFE2  F00E         	goto	l4936
  4601   001E44  0A02               	xorlw	2	; case 7
  4602   001E46  B4D8               	btfsc	status,2,c
  4603   001E48  EFEE  F00E         	goto	l4938
  4604   001E4C  0A0F               	xorlw	15	; case 8
  4605   001E4E  B4D8               	btfsc	status,2,c
  4606   001E50  EFFA  F00E         	goto	l4940
  4607   001E54  EF74  F00F         	goto	l4960
  4608   001E58                     l4946:
  4609   001E58  0E00               	movlw	0
  4610   001E5A  6E0C               	movwf	(Flash@inc+1)^0,c
  4611   001E5C  0E01               	movlw	1
  4612   001E5E  6E0B               	movwf	Flash@inc^0,c
  4613   001E60  C096  F00D         	movff	_Place3,Flash@PlaceN
  4614   001E64  C097  F00E         	movff	_Place3+1,Flash@PlaceN+1
  4615   001E68  EC5A  F021         	call	_Flash	;wreg free
  4616                           
  4617                           ;LCD_Screens.c: 201:             break;
  4618   001E6C  EF9A  F00F         	goto	l198
  4619   001E70                     l4948:
  4620   001E70  0E00               	movlw	0
  4621   001E72  6E0C               	movwf	(Flash@inc+1)^0,c
  4622   001E74  0E02               	movlw	2
  4623   001E76  6E0B               	movwf	Flash@inc^0,c
  4624   001E78  C096  F00D         	movff	_Place3,Flash@PlaceN
  4625   001E7C  C097  F00E         	movff	_Place3+1,Flash@PlaceN+1
  4626   001E80  EC5A  F021         	call	_Flash	;wreg free
  4627                           
  4628                           ;LCD_Screens.c: 203:             break;
  4629   001E84  EF9A  F00F         	goto	l198
  4630   001E88                     l4950:
  4631   001E88  0E00               	movlw	0
  4632   001E8A  6E0C               	movwf	(Flash@inc+1)^0,c
  4633   001E8C  0E04               	movlw	4
  4634   001E8E  6E0B               	movwf	Flash@inc^0,c
  4635   001E90  C096  F00D         	movff	_Place3,Flash@PlaceN
  4636   001E94  C097  F00E         	movff	_Place3+1,Flash@PlaceN+1
  4637   001E98  EC5A  F021         	call	_Flash	;wreg free
  4638                           
  4639                           ;LCD_Screens.c: 205:             break;
  4640   001E9C  EF9A  F00F         	goto	l198
  4641   001EA0                     l4952:
  4642   001EA0  0E00               	movlw	0
  4643   001EA2  6E0C               	movwf	(Flash@inc+1)^0,c
  4644   001EA4  0E05               	movlw	5
  4645   001EA6  6E0B               	movwf	Flash@inc^0,c
  4646   001EA8  C096  F00D         	movff	_Place3,Flash@PlaceN
  4647   001EAC  C097  F00E         	movff	_Place3+1,Flash@PlaceN+1
  4648   001EB0  EC5A  F021         	call	_Flash	;wreg free
  4649                           
  4650                           ;LCD_Screens.c: 207:             break;
  4651   001EB4  EF9A  F00F         	goto	l198
  4652   001EB8                     l4954:
  4653   001EB8  0E00               	movlw	0
  4654   001EBA  6E0C               	movwf	(Flash@inc+1)^0,c
  4655   001EBC  0E07               	movlw	7
  4656   001EBE  6E0B               	movwf	Flash@inc^0,c
  4657   001EC0  C096  F00D         	movff	_Place3,Flash@PlaceN
  4658   001EC4  C097  F00E         	movff	_Place3+1,Flash@PlaceN+1
  4659   001EC8  EC5A  F021         	call	_Flash	;wreg free
  4660                           
  4661                           ;LCD_Screens.c: 209:             break;
  4662   001ECC  EF9A  F00F         	goto	l198
  4663   001ED0                     l4956:
  4664   001ED0  0E00               	movlw	0
  4665   001ED2  6E0C               	movwf	(Flash@inc+1)^0,c
  4666   001ED4  0E08               	movlw	8
  4667   001ED6  6E0B               	movwf	Flash@inc^0,c
  4668   001ED8  C096  F00D         	movff	_Place3,Flash@PlaceN
  4669   001EDC  C097  F00E         	movff	_Place3+1,Flash@PlaceN+1
  4670   001EE0  EC5A  F021         	call	_Flash	;wreg free
  4671                           
  4672                           ;LCD_Screens.c: 211:             break;
  4673   001EE4  EF9A  F00F         	goto	l198
  4674   001EE8                     l4960:
  4675   001EE8  C094  F010         	movff	_Place4,??_Screen_Device_2
  4676   001EEC  C095  F011         	movff	_Place4+1,??_Screen_Device_2+1
  4677                           
  4678                           ; Switch on 2 bytes has been partitioned into a top level switch of size 1, and 1 sub-sw
      +                          itches
  4679                           ; Switch size 1, requested type "simple"
  4680                           ; Number of cases is 1, Range of values is 0 to 0
  4681                           ; switch strategies available:
  4682                           ; Name         Instructions Cycles
  4683                           ; simple_byte            4     3 (average)
  4684                           ;	Chosen strategy is simple_byte
  4685   001EF0  5011               	movf	(??_Screen_Device_2+1)^0,w,c
  4686   001EF2  0A00               	xorlw	0	; case 0
  4687   001EF4  B4D8               	btfsc	status,2,c
  4688   001EF6  EF7F  F00F         	goto	l5490
  4689   001EFA  EF9A  F00F         	goto	l198
  4690   001EFE                     l5490:
  4691                           
  4692                           ; Switch size 1, requested type "simple"
  4693                           ; Number of cases is 6, Range of values is 1 to 8
  4694                           ; switch strategies available:
  4695                           ; Name         Instructions Cycles
  4696                           ; simple_byte           19    10 (average)
  4697                           ;	Chosen strategy is simple_byte
  4698   001EFE  5010               	movf	??_Screen_Device_2^0,w,c
  4699   001F00  0A01               	xorlw	1	; case 1
  4700   001F02  B4D8               	btfsc	status,2,c
  4701   001F04  EF2C  F00F         	goto	l4946
  4702   001F08  0A03               	xorlw	3	; case 2
  4703   001F0A  B4D8               	btfsc	status,2,c
  4704   001F0C  EF38  F00F         	goto	l4948
  4705   001F10  0A06               	xorlw	6	; case 4
  4706   001F12  B4D8               	btfsc	status,2,c
  4707   001F14  EF44  F00F         	goto	l4950
  4708   001F18  0A01               	xorlw	1	; case 5
  4709   001F1A  B4D8               	btfsc	status,2,c
  4710   001F1C  EF50  F00F         	goto	l4952
  4711   001F20  0A02               	xorlw	2	; case 7
  4712   001F22  B4D8               	btfsc	status,2,c
  4713   001F24  EF5C  F00F         	goto	l4954
  4714   001F28  0A0F               	xorlw	15	; case 8
  4715   001F2A  B4D8               	btfsc	status,2,c
  4716   001F2C  EF68  F00F         	goto	l4956
  4717   001F30  EF9A  F00F         	goto	l198
  4718   001F34                     l198:
  4719   001F34  0012               	return		;funcret
  4720   001F36                     __end_of_Screen_Device_2:
  4721                           	callstack 0
  4722                           
  4723 ;; *************** function _Screen_Device_1 *****************
  4724 ;; Defined at:
  4725 ;;		line 54 in file "LCD_Screens.c"
  4726 ;; Parameters:    Size  Location     Type
  4727 ;;		None
  4728 ;; Auto vars:     Size  Location     Type
  4729 ;;  i               2   19[COMRAM] int 
  4730 ;;  i               2   17[COMRAM] int 
  4731 ;; Return value:  Size  Location     Type
  4732 ;;                  1    wreg      void 
  4733 ;; Registers used:
  4734 ;;		wreg, fsr1l, fsr1h, fsr2l, fsr2h, status,2, status,0, tblptrl, tblptrh, tblptru, cstack
  4735 ;; Tracked objects:
  4736 ;;		On entry : 0/0
  4737 ;;		On exit  : 0/0
  4738 ;;		Unchanged: 0/0
  4739 ;; Data sizes:     COMRAM   BANK0   BANK1   BANK2   BANK3   BANK4   BANK5   BANK6   BANK7
  4740 ;;      Params:         0       0       0       0       0       0       0       0       0
  4741 ;;      Locals:         4       0       0       0       0       0       0       0       0
  4742 ;;      Temps:          2       0       0       0       0       0       0       0       0
  4743 ;;      Totals:         6       0       0       0       0       0       0       0       0
  4744 ;;Total ram usage:        6 bytes
  4745 ;; Hardware stack levels used: 1
  4746 ;; Hardware stack levels required when called: 4
  4747 ;; This function calls:
  4748 ;;		_Flash
  4749 ;;		_LCD_goto_xy
  4750 ;;		_LCD_write
  4751 ;;		_LCD_write_string
  4752 ;;		_Set_Time
  4753 ;; This function is called by:
  4754 ;;		_main
  4755 ;; This function uses a non-reentrant model
  4756 ;;
  4757                           
  4758                           	psect	text9
  4759   001F36                     __ptext9:
  4760                           	callstack 0
  4761   001F36                     _Screen_Device_1:
  4762                           	callstack 26
  4763   001F36                     
  4764                           ;LCD_Screens.c: 56:     LCD_goto_xy(0, 0);
  4765   001F36  0E00               	movlw	0
  4766   001F38  6E03               	movwf	(LCD_goto_xy@x+1)^0,c
  4767   001F3A  0E00               	movlw	0
  4768   001F3C  6E02               	movwf	LCD_goto_xy@x^0,c
  4769   001F3E  0E00               	movlw	0
  4770   001F40  6E05               	movwf	(LCD_goto_xy@y+1)^0,c
  4771   001F42  0E00               	movlw	0
  4772   001F44  6E04               	movwf	LCD_goto_xy@y^0,c
  4773   001F46  ECAF  F01E         	call	_LCD_goto_xy	;wreg free
  4774   001F4A                     
  4775                           ;LCD_Screens.c: 57:     LCD_write_string("Start1: ");
  4776   001F4A  0E2B               	movlw	low STR_12
  4777   001F4C  6E03               	movwf	LCD_write_string@str^0,c
  4778   001F4E  0E08               	movlw	high STR_12
  4779   001F50  6E04               	movwf	(LCD_write_string@str+1)^0,c
  4780   001F52  EC39  F020         	call	_LCD_write_string	;wreg free
  4781   001F56                     
  4782                           ;LCD_Screens.c: 59:     for (int i = 0; i < 8; i++)
  4783   001F56  0E00               	movlw	0
  4784   001F58  6E13               	movwf	(Screen_Device_1@i+1)^0,c
  4785   001F5A  0E00               	movlw	0
  4786   001F5C  6E12               	movwf	Screen_Device_1@i^0,c
  4787   001F5E                     l4748:
  4788                           
  4789                           ;LCD_Screens.c: 60:     {;LCD_Screens.c: 61:         LCD_write(time1[0][i]);
  4790   001F5E  0EBF               	movlw	low _time1
  4791   001F60  2412               	addwf	Screen_Device_1@i^0,w,c
  4792   001F62  6ED9               	movwf	fsr2l,c
  4793   001F64  0E00               	movlw	high _time1
  4794   001F66  2013               	addwfc	(Screen_Device_1@i+1)^0,w,c
  4795   001F68  6EDA               	movwf	fsr2h,c
  4796   001F6A  50DF               	movf	indf2,w,c
  4797   001F6C  EC29  F022         	call	_LCD_write
  4798   001F70                     
  4799                           ;LCD_Screens.c: 62:     }
  4800   001F70  4A12               	infsnz	Screen_Device_1@i^0,f,c
  4801   001F72  2A13               	incf	(Screen_Device_1@i+1)^0,f,c
  4802   001F74  BE13               	btfsc	(Screen_Device_1@i+1)^0,7,c
  4803   001F76  EFC6  F00F         	goto	u4791
  4804   001F7A  5013               	movf	(Screen_Device_1@i+1)^0,w,c
  4805   001F7C  E109               	bnz	u4790
  4806   001F7E  0E08               	movlw	8
  4807   001F80  5C12               	subwf	Screen_Device_1@i^0,w,c
  4808   001F82  A0D8               	btfss	status,0,c
  4809   001F84  EFC6  F00F         	goto	u4791
  4810   001F88  EFC8  F00F         	goto	u4790
  4811   001F8C                     u4791:
  4812   001F8C  EFAF  F00F         	goto	l4748
  4813   001F90                     u4790:
  4814   001F90                     
  4815                           ;LCD_Screens.c: 64:     LCD_goto_xy(1, 0);
  4816   001F90  0E00               	movlw	0
  4817   001F92  6E03               	movwf	(LCD_goto_xy@x+1)^0,c
  4818   001F94  0E01               	movlw	1
  4819   001F96  6E02               	movwf	LCD_goto_xy@x^0,c
  4820   001F98  0E00               	movlw	0
  4821   001F9A  6E05               	movwf	(LCD_goto_xy@y+1)^0,c
  4822   001F9C  0E00               	movlw	0
  4823   001F9E  6E04               	movwf	LCD_goto_xy@y^0,c
  4824   001FA0  ECAF  F01E         	call	_LCD_goto_xy	;wreg free
  4825   001FA4                     
  4826                           ;LCD_Screens.c: 65:     LCD_write_string("Finish: ");
  4827   001FA4  0E3D               	movlw	low STR_13
  4828   001FA6  6E03               	movwf	LCD_write_string@str^0,c
  4829   001FA8  0E08               	movlw	high STR_13
  4830   001FAA  6E04               	movwf	(LCD_write_string@str+1)^0,c
  4831   001FAC  EC39  F020         	call	_LCD_write_string	;wreg free
  4832   001FB0                     
  4833                           ;LCD_Screens.c: 67:     for (int i = 0; i < 8; i++)
  4834   001FB0  0E00               	movlw	0
  4835   001FB2  6E15               	movwf	(Screen_Device_1@i_152+1)^0,c
  4836   001FB4  0E00               	movlw	0
  4837   001FB6  6E14               	movwf	Screen_Device_1@i_152^0,c
  4838   001FB8                     l4764:
  4839                           
  4840                           ;LCD_Screens.c: 68:     {;LCD_Screens.c: 69:         LCD_write(time1[1][i]);
  4841   001FB8  0EC7               	movlw	low (_time1+8)
  4842   001FBA  2414               	addwf	Screen_Device_1@i_152^0,w,c
  4843   001FBC  6ED9               	movwf	fsr2l,c
  4844   001FBE  0E00               	movlw	high (_time1+8)
  4845   001FC0  2015               	addwfc	(Screen_Device_1@i_152+1)^0,w,c
  4846   001FC2  6EDA               	movwf	fsr2h,c
  4847   001FC4  50DF               	movf	indf2,w,c
  4848   001FC6  EC29  F022         	call	_LCD_write
  4849   001FCA                     
  4850                           ;LCD_Screens.c: 70:     }
  4851   001FCA  4A14               	infsnz	Screen_Device_1@i_152^0,f,c
  4852   001FCC  2A15               	incf	(Screen_Device_1@i_152+1)^0,f,c
  4853   001FCE  BE15               	btfsc	(Screen_Device_1@i_152+1)^0,7,c
  4854   001FD0  EFF3  F00F         	goto	u4801
  4855   001FD4  5015               	movf	(Screen_Device_1@i_152+1)^0,w,c
  4856   001FD6  E109               	bnz	u4800
  4857   001FD8  0E08               	movlw	8
  4858   001FDA  5C14               	subwf	Screen_Device_1@i_152^0,w,c
  4859   001FDC  A0D8               	btfss	status,0,c
  4860   001FDE  EFF3  F00F         	goto	u4801
  4861   001FE2  EFF5  F00F         	goto	u4800
  4862   001FE6                     u4801:
  4863   001FE6  EFDC  F00F         	goto	l4764
  4864   001FEA                     u4800:
  4865   001FEA                     
  4866                           ;LCD_Screens.c: 71:     _delay((unsigned long)((50)*(8000000UL/4000.0)));
  4867   001FEA  0E82               	movlw	130
  4868   001FEC  6E10               	movwf	??_Screen_Device_1^0,c
  4869   001FEE  0EDE               	movlw	222
  4870   001FF0                     u5317:
  4871   001FF0  2EE8               	decfsz	wreg,f,c
  4872   001FF2  D7FE               	bra	u5317
  4873   001FF4  2E10               	decfsz	??_Screen_Device_1^0,f,c
  4874   001FF6  D7FC               	bra	u5317
  4875   001FF8                     
  4876                           ;LCD_Screens.c: 73:     if(((PORTB & (1<<3))? 1:0))
  4877   001FF8  A681               	btfss	129,3,c	;volatile
  4878   001FFA  EF01  F010         	goto	u4811
  4879   001FFE  EF03  F010         	goto	u4810
  4880   002002                     u4811:
  4881   002002  EF74  F010         	goto	l4802
  4882   002006                     u4810:
  4883   002006                     
  4884                           ;LCD_Screens.c: 74:     {;LCD_Screens.c: 75:         _delay((unsigned long)((5)*(8000000
      +                          UL/4000.0)));
  4885   002006  0E0D               	movlw	13
  4886   002008  6E10               	movwf	??_Screen_Device_1^0,c
  4887   00200A  0EFC               	movlw	252
  4888   00200C                     u5327:
  4889   00200C  2EE8               	decfsz	wreg,f,c
  4890   00200E  D7FE               	bra	u5327
  4891   002010  2E10               	decfsz	??_Screen_Device_1^0,f,c
  4892   002012  D7FC               	bra	u5327
  4893   002014                     l132:
  4894   002014  B681               	btfsc	129,3,c	;volatile
  4895   002016  EF0F  F010         	goto	u4821
  4896   00201A  EF11  F010         	goto	u4820
  4897   00201E                     u4821:
  4898   00201E  EF0A  F010         	goto	l132
  4899   002022                     u4820:
  4900   002022                     
  4901                           ;LCD_Screens.c: 78:         if(Place1<9)
  4902   002022  0100               	movlb	0	; () banked
  4903   002024  BF9B               	btfsc	(_Place1+1)& (0+255),7,b
  4904   002026  EF20  F010         	goto	u4830
  4905   00202A  519B               	movf	(_Place1+1)& (0+255),w,b
  4906   00202C  E107               	bnz	u4831
  4907   00202E  0E09               	movlw	9
  4908   002030  5D9A               	subwf	_Place1& (0+255),w,b
  4909   002032  B0D8               	btfsc	status,0,c
  4910   002034  EF1E  F010         	goto	u4831
  4911   002038  EF20  F010         	goto	u4830
  4912   00203C                     u4831:
  4913   00203C  EF24  F010         	goto	l4780
  4914   002040                     u4830:
  4915   002040                     
  4916                           ; BSR set to: 0
  4917                           ;LCD_Screens.c: 79:         {;LCD_Screens.c: 80:             Place1++;
  4918   002040  4B9A               	infsnz	_Place1& (0+255),f,b
  4919   002042  2B9B               	incf	(_Place1+1)& (0+255),f,b
  4920                           
  4921                           ;LCD_Screens.c: 81:         }
  4922   002044  EF26  F010         	goto	l4782
  4923   002048                     l4780:
  4924                           
  4925                           ; BSR set to: 0
  4926   002048  4B98               	infsnz	_Place2& (0+255),f,b
  4927   00204A  2B99               	incf	(_Place2+1)& (0+255),f,b
  4928   00204C                     l4782:
  4929                           
  4930                           ; BSR set to: 0
  4931                           ;LCD_Screens.c: 84:         if(Place1==3) Place1=4;
  4932   00204C  0E03               	movlw	3
  4933   00204E  199A               	xorwf	_Place1& (0+255),w,b
  4934   002050  119B               	iorwf	(_Place1+1)& (0+255),w,b
  4935   002052  A4D8               	btfss	status,2,c
  4936   002054  EF2E  F010         	goto	u4841
  4937   002058  EF30  F010         	goto	u4840
  4938   00205C                     u4841:
  4939   00205C  EF34  F010         	goto	l4786
  4940   002060                     u4840:
  4941   002060                     
  4942                           ; BSR set to: 0
  4943   002060  0E00               	movlw	0
  4944   002062  6F9B               	movwf	(_Place1+1)& (0+255),b
  4945   002064  0E04               	movlw	4
  4946   002066  6F9A               	movwf	_Place1& (0+255),b
  4947   002068                     l4786:
  4948                           
  4949                           ; BSR set to: 0
  4950                           ;LCD_Screens.c: 85:         if(Place1==6) Place1=7;
  4951   002068  0E06               	movlw	6
  4952   00206A  199A               	xorwf	_Place1& (0+255),w,b
  4953   00206C  119B               	iorwf	(_Place1+1)& (0+255),w,b
  4954   00206E  A4D8               	btfss	status,2,c
  4955   002070  EF3C  F010         	goto	u4851
  4956   002074  EF3E  F010         	goto	u4850
  4957   002078                     u4851:
  4958   002078  EF42  F010         	goto	l4790
  4959   00207C                     u4850:
  4960   00207C                     
  4961                           ; BSR set to: 0
  4962   00207C  0E00               	movlw	0
  4963   00207E  6F9B               	movwf	(_Place1+1)& (0+255),b
  4964   002080  0E07               	movlw	7
  4965   002082  6F9A               	movwf	_Place1& (0+255),b
  4966   002084                     l4790:
  4967                           
  4968                           ; BSR set to: 0
  4969                           ;LCD_Screens.c: 86:         if(Place2==3) Place2=4;
  4970   002084  0E03               	movlw	3
  4971   002086  1998               	xorwf	_Place2& (0+255),w,b
  4972   002088  1199               	iorwf	(_Place2+1)& (0+255),w,b
  4973   00208A  A4D8               	btfss	status,2,c
  4974   00208C  EF4A  F010         	goto	u4861
  4975   002090  EF4C  F010         	goto	u4860
  4976   002094                     u4861:
  4977   002094  EF50  F010         	goto	l4794
  4978   002098                     u4860:
  4979   002098                     
  4980                           ; BSR set to: 0
  4981   002098  0E00               	movlw	0
  4982   00209A  6F99               	movwf	(_Place2+1)& (0+255),b
  4983   00209C  0E04               	movlw	4
  4984   00209E  6F98               	movwf	_Place2& (0+255),b
  4985   0020A0                     l4794:
  4986                           
  4987                           ; BSR set to: 0
  4988                           ;LCD_Screens.c: 87:         if(Place2==6) Place2=7;
  4989   0020A0  0E06               	movlw	6
  4990   0020A2  1998               	xorwf	_Place2& (0+255),w,b
  4991   0020A4  1199               	iorwf	(_Place2+1)& (0+255),w,b
  4992   0020A6  A4D8               	btfss	status,2,c
  4993   0020A8  EF58  F010         	goto	u4871
  4994   0020AC  EF5A  F010         	goto	u4870
  4995   0020B0                     u4871:
  4996   0020B0  EF5E  F010         	goto	l4798
  4997   0020B4                     u4870:
  4998   0020B4                     
  4999                           ; BSR set to: 0
  5000   0020B4  0E00               	movlw	0
  5001   0020B6  6F99               	movwf	(_Place2+1)& (0+255),b
  5002   0020B8  0E07               	movlw	7
  5003   0020BA  6F98               	movwf	_Place2& (0+255),b
  5004   0020BC                     l4798:
  5005                           
  5006                           ; BSR set to: 0
  5007                           ;LCD_Screens.c: 89:         if(Place2>8)
  5008   0020BC  BF99               	btfsc	(_Place2+1)& (0+255),7,b
  5009   0020BE  EF6A  F010         	goto	u4881
  5010   0020C2  5199               	movf	(_Place2+1)& (0+255),w,b
  5011   0020C4  E109               	bnz	u4880
  5012   0020C6  0E09               	movlw	9
  5013   0020C8  5D98               	subwf	_Place2& (0+255),w,b
  5014   0020CA  A0D8               	btfss	status,0,c
  5015   0020CC  EF6A  F010         	goto	u4881
  5016   0020D0  EF6C  F010         	goto	u4880
  5017   0020D4                     u4881:
  5018   0020D4  EF74  F010         	goto	l4802
  5019   0020D8                     u4880:
  5020   0020D8                     
  5021                           ; BSR set to: 0
  5022                           ;LCD_Screens.c: 90:         {;LCD_Screens.c: 91:             Place1=0;
  5023   0020D8  0E00               	movlw	0
  5024   0020DA  6F9B               	movwf	(_Place1+1)& (0+255),b
  5025   0020DC  0E00               	movlw	0
  5026   0020DE  6F9A               	movwf	_Place1& (0+255),b
  5027                           
  5028                           ;LCD_Screens.c: 92:             Place2=0;
  5029   0020E0  0E00               	movlw	0
  5030   0020E2  6F99               	movwf	(_Place2+1)& (0+255),b
  5031   0020E4  0E00               	movlw	0
  5032   0020E6  6F98               	movwf	_Place2& (0+255),b
  5033   0020E8                     l4802:
  5034                           
  5035                           ;LCD_Screens.c: 96:         if (Place1 > 0 && Place1 < 9) {
  5036   0020E8  0100               	movlb	0	; () banked
  5037   0020EA  BF9B               	btfsc	(_Place1+1)& (0+255),7,b
  5038   0020EC  EF80  F010         	goto	u4891
  5039   0020F0  519B               	movf	(_Place1+1)& (0+255),w,b
  5040   0020F2  E108               	bnz	u4890
  5041   0020F4  059A               	decf	_Place1& (0+255),w,b
  5042   0020F6  A0D8               	btfss	status,0,c
  5043   0020F8  EF80  F010         	goto	u4891
  5044   0020FC  EF82  F010         	goto	u4890
  5045   002100                     u4891:
  5046   002100  EF9C  F010         	goto	l4808
  5047   002104                     u4890:
  5048   002104                     
  5049                           ; BSR set to: 0
  5050   002104  BF9B               	btfsc	(_Place1+1)& (0+255),7,b
  5051   002106  EF90  F010         	goto	u4900
  5052   00210A  519B               	movf	(_Place1+1)& (0+255),w,b
  5053   00210C  E107               	bnz	u4901
  5054   00210E  0E09               	movlw	9
  5055   002110  5D9A               	subwf	_Place1& (0+255),w,b
  5056   002112  B0D8               	btfsc	status,0,c
  5057   002114  EF8E  F010         	goto	u4901
  5058   002118  EF90  F010         	goto	u4900
  5059   00211C                     u4901:
  5060   00211C  EF9C  F010         	goto	l4808
  5061   002120                     u4900:
  5062   002120                     
  5063                           ; BSR set to: 0
  5064                           ;LCD_Screens.c: 97:         Set_Time(0, Place1);
  5065   002120  0E00               	movlw	0
  5066   002122  6E02               	movwf	(Set_Time@Num+1)^0,c
  5067   002124  0E00               	movlw	0
  5068   002126  6E01               	movwf	Set_Time@Num^0,c
  5069   002128  C09A  F003         	movff	_Place1,Set_Time@Place
  5070   00212C  C09B  F004         	movff	_Place1+1,Set_Time@Place+1
  5071   002130  EC28  F004         	call	_Set_Time	;wreg free
  5072                           
  5073                           ;LCD_Screens.c: 98:     }
  5074   002134  EF0B  F011         	goto	l4828
  5075   002138                     l4808:
  5076                           
  5077                           ; BSR set to: 0
  5078   002138  BF99               	btfsc	(_Place2+1)& (0+255),7,b
  5079   00213A  EFA7  F010         	goto	u4911
  5080   00213E  5199               	movf	(_Place2+1)& (0+255),w,b
  5081   002140  E108               	bnz	u4910
  5082   002142  0598               	decf	_Place2& (0+255),w,b
  5083   002144  A0D8               	btfss	status,0,c
  5084   002146  EFA7  F010         	goto	u4911
  5085   00214A  EFA9  F010         	goto	u4910
  5086   00214E                     u4911:
  5087   00214E  EF0B  F011         	goto	l4828
  5088   002152                     u4910:
  5089   002152                     
  5090                           ; BSR set to: 0
  5091   002152  BF99               	btfsc	(_Place2+1)& (0+255),7,b
  5092   002154  EFB7  F010         	goto	u4920
  5093   002158  5199               	movf	(_Place2+1)& (0+255),w,b
  5094   00215A  E107               	bnz	u4921
  5095   00215C  0E09               	movlw	9
  5096   00215E  5D98               	subwf	_Place2& (0+255),w,b
  5097   002160  B0D8               	btfsc	status,0,c
  5098   002162  EFB5  F010         	goto	u4921
  5099   002166  EFB7  F010         	goto	u4920
  5100   00216A                     u4921:
  5101   00216A  EF0B  F011         	goto	l4828
  5102   00216E                     u4920:
  5103   00216E                     
  5104                           ; BSR set to: 0
  5105                           ;LCD_Screens.c: 100:         Set_Time(1, Place2);
  5106   00216E  0E00               	movlw	0
  5107   002170  6E02               	movwf	(Set_Time@Num+1)^0,c
  5108   002172  0E01               	movlw	1
  5109   002174  6E01               	movwf	Set_Time@Num^0,c
  5110   002176  C098  F003         	movff	_Place2,Set_Time@Place
  5111   00217A  C099  F004         	movff	_Place2+1,Set_Time@Place+1
  5112   00217E  EC28  F004         	call	_Set_Time	;wreg free
  5113   002182  EF0B  F011         	goto	l4828
  5114   002186                     l4814:
  5115   002186  0E00               	movlw	0
  5116   002188  6E0C               	movwf	(Flash@inc+1)^0,c
  5117   00218A  0E01               	movlw	1
  5118   00218C  6E0B               	movwf	Flash@inc^0,c
  5119   00218E  C09A  F00D         	movff	_Place1,Flash@PlaceN
  5120   002192  C09B  F00E         	movff	_Place1+1,Flash@PlaceN+1
  5121   002196  EC5A  F021         	call	_Flash	;wreg free
  5122                           
  5123                           ;LCD_Screens.c: 105:             break;
  5124   00219A  EF79  F011         	goto	l4844
  5125   00219E                     l4816:
  5126   00219E  0E00               	movlw	0
  5127   0021A0  6E0C               	movwf	(Flash@inc+1)^0,c
  5128   0021A2  0E02               	movlw	2
  5129   0021A4  6E0B               	movwf	Flash@inc^0,c
  5130   0021A6  C09A  F00D         	movff	_Place1,Flash@PlaceN
  5131   0021AA  C09B  F00E         	movff	_Place1+1,Flash@PlaceN+1
  5132   0021AE  EC5A  F021         	call	_Flash	;wreg free
  5133                           
  5134                           ;LCD_Screens.c: 107:             break;
  5135   0021B2  EF79  F011         	goto	l4844
  5136   0021B6                     l4818:
  5137   0021B6  0E00               	movlw	0
  5138   0021B8  6E0C               	movwf	(Flash@inc+1)^0,c
  5139   0021BA  0E04               	movlw	4
  5140   0021BC  6E0B               	movwf	Flash@inc^0,c
  5141   0021BE  C09A  F00D         	movff	_Place1,Flash@PlaceN
  5142   0021C2  C09B  F00E         	movff	_Place1+1,Flash@PlaceN+1
  5143   0021C6  EC5A  F021         	call	_Flash	;wreg free
  5144                           
  5145                           ;LCD_Screens.c: 109:             break;
  5146   0021CA  EF79  F011         	goto	l4844
  5147   0021CE                     l4820:
  5148   0021CE  0E00               	movlw	0
  5149   0021D0  6E0C               	movwf	(Flash@inc+1)^0,c
  5150   0021D2  0E05               	movlw	5
  5151   0021D4  6E0B               	movwf	Flash@inc^0,c
  5152   0021D6  C09A  F00D         	movff	_Place1,Flash@PlaceN
  5153   0021DA  C09B  F00E         	movff	_Place1+1,Flash@PlaceN+1
  5154   0021DE  EC5A  F021         	call	_Flash	;wreg free
  5155                           
  5156                           ;LCD_Screens.c: 111:             break;
  5157   0021E2  EF79  F011         	goto	l4844
  5158   0021E6                     l4822:
  5159   0021E6  0E00               	movlw	0
  5160   0021E8  6E0C               	movwf	(Flash@inc+1)^0,c
  5161   0021EA  0E07               	movlw	7
  5162   0021EC  6E0B               	movwf	Flash@inc^0,c
  5163   0021EE  C09A  F00D         	movff	_Place1,Flash@PlaceN
  5164   0021F2  C09B  F00E         	movff	_Place1+1,Flash@PlaceN+1
  5165   0021F6  EC5A  F021         	call	_Flash	;wreg free
  5166                           
  5167                           ;LCD_Screens.c: 113:             break;
  5168   0021FA  EF79  F011         	goto	l4844
  5169   0021FE                     l4824:
  5170   0021FE  0E00               	movlw	0
  5171   002200  6E0C               	movwf	(Flash@inc+1)^0,c
  5172   002202  0E08               	movlw	8
  5173   002204  6E0B               	movwf	Flash@inc^0,c
  5174   002206  C09A  F00D         	movff	_Place1,Flash@PlaceN
  5175   00220A  C09B  F00E         	movff	_Place1+1,Flash@PlaceN+1
  5176   00220E  EC5A  F021         	call	_Flash	;wreg free
  5177                           
  5178                           ;LCD_Screens.c: 115:             break;
  5179   002212  EF79  F011         	goto	l4844
  5180   002216                     l4828:
  5181   002216  C09A  F010         	movff	_Place1,??_Screen_Device_1
  5182   00221A  C09B  F011         	movff	_Place1+1,??_Screen_Device_1+1
  5183                           
  5184                           ; Switch on 2 bytes has been partitioned into a top level switch of size 1, and 1 sub-sw
      +                          itches
  5185                           ; Switch size 1, requested type "simple"
  5186                           ; Number of cases is 1, Range of values is 0 to 0
  5187                           ; switch strategies available:
  5188                           ; Name         Instructions Cycles
  5189                           ; simple_byte            4     3 (average)
  5190                           ;	Chosen strategy is simple_byte
  5191   00221E  5011               	movf	(??_Screen_Device_1+1)^0,w,c
  5192   002220  0A00               	xorlw	0	; case 0
  5193   002222  B4D8               	btfsc	status,2,c
  5194   002224  EF16  F011         	goto	l5492
  5195   002228  EF79  F011         	goto	l4844
  5196   00222C                     l5492:
  5197                           
  5198                           ; Switch size 1, requested type "simple"
  5199                           ; Number of cases is 6, Range of values is 1 to 8
  5200                           ; switch strategies available:
  5201                           ; Name         Instructions Cycles
  5202                           ; simple_byte           19    10 (average)
  5203                           ;	Chosen strategy is simple_byte
  5204   00222C  5010               	movf	??_Screen_Device_1^0,w,c
  5205   00222E  0A01               	xorlw	1	; case 1
  5206   002230  B4D8               	btfsc	status,2,c
  5207   002232  EFC3  F010         	goto	l4814
  5208   002236  0A03               	xorlw	3	; case 2
  5209   002238  B4D8               	btfsc	status,2,c
  5210   00223A  EFCF  F010         	goto	l4816
  5211   00223E  0A06               	xorlw	6	; case 4
  5212   002240  B4D8               	btfsc	status,2,c
  5213   002242  EFDB  F010         	goto	l4818
  5214   002246  0A01               	xorlw	1	; case 5
  5215   002248  B4D8               	btfsc	status,2,c
  5216   00224A  EFE7  F010         	goto	l4820
  5217   00224E  0A02               	xorlw	2	; case 7
  5218   002250  B4D8               	btfsc	status,2,c
  5219   002252  EFF3  F010         	goto	l4822
  5220   002256  0A0F               	xorlw	15	; case 8
  5221   002258  B4D8               	btfsc	status,2,c
  5222   00225A  EFFF  F010         	goto	l4824
  5223   00225E  EF79  F011         	goto	l4844
  5224   002262                     l4830:
  5225   002262  0E00               	movlw	0
  5226   002264  6E0C               	movwf	(Flash@inc+1)^0,c
  5227   002266  0E01               	movlw	1
  5228   002268  6E0B               	movwf	Flash@inc^0,c
  5229   00226A  C09A  F00D         	movff	_Place1,Flash@PlaceN
  5230   00226E  C09B  F00E         	movff	_Place1+1,Flash@PlaceN+1
  5231   002272  EC5A  F021         	call	_Flash	;wreg free
  5232                           
  5233                           ;LCD_Screens.c: 120:             break;
  5234   002276  EF9F  F011         	goto	l161
  5235   00227A                     l4832:
  5236   00227A  0E00               	movlw	0
  5237   00227C  6E0C               	movwf	(Flash@inc+1)^0,c
  5238   00227E  0E02               	movlw	2
  5239   002280  6E0B               	movwf	Flash@inc^0,c
  5240   002282  C09A  F00D         	movff	_Place1,Flash@PlaceN
  5241   002286  C09B  F00E         	movff	_Place1+1,Flash@PlaceN+1
  5242   00228A  EC5A  F021         	call	_Flash	;wreg free
  5243                           
  5244                           ;LCD_Screens.c: 122:             break;
  5245   00228E  EF9F  F011         	goto	l161
  5246   002292                     l4834:
  5247   002292  0E00               	movlw	0
  5248   002294  6E0C               	movwf	(Flash@inc+1)^0,c
  5249   002296  0E04               	movlw	4
  5250   002298  6E0B               	movwf	Flash@inc^0,c
  5251   00229A  C09A  F00D         	movff	_Place1,Flash@PlaceN
  5252   00229E  C09B  F00E         	movff	_Place1+1,Flash@PlaceN+1
  5253   0022A2  EC5A  F021         	call	_Flash	;wreg free
  5254                           
  5255                           ;LCD_Screens.c: 124:             break;
  5256   0022A6  EF9F  F011         	goto	l161
  5257   0022AA                     l4836:
  5258   0022AA  0E00               	movlw	0
  5259   0022AC  6E0C               	movwf	(Flash@inc+1)^0,c
  5260   0022AE  0E05               	movlw	5
  5261   0022B0  6E0B               	movwf	Flash@inc^0,c
  5262   0022B2  C09A  F00D         	movff	_Place1,Flash@PlaceN
  5263   0022B6  C09B  F00E         	movff	_Place1+1,Flash@PlaceN+1
  5264   0022BA  EC5A  F021         	call	_Flash	;wreg free
  5265                           
  5266                           ;LCD_Screens.c: 126:             break;
  5267   0022BE  EF9F  F011         	goto	l161
  5268   0022C2                     l4838:
  5269   0022C2  0E00               	movlw	0
  5270   0022C4  6E0C               	movwf	(Flash@inc+1)^0,c
  5271   0022C6  0E07               	movlw	7
  5272   0022C8  6E0B               	movwf	Flash@inc^0,c
  5273   0022CA  C09A  F00D         	movff	_Place1,Flash@PlaceN
  5274   0022CE  C09B  F00E         	movff	_Place1+1,Flash@PlaceN+1
  5275   0022D2  EC5A  F021         	call	_Flash	;wreg free
  5276                           
  5277                           ;LCD_Screens.c: 128:             break;
  5278   0022D6  EF9F  F011         	goto	l161
  5279   0022DA                     l4840:
  5280   0022DA  0E00               	movlw	0
  5281   0022DC  6E0C               	movwf	(Flash@inc+1)^0,c
  5282   0022DE  0E08               	movlw	8
  5283   0022E0  6E0B               	movwf	Flash@inc^0,c
  5284   0022E2  C09A  F00D         	movff	_Place1,Flash@PlaceN
  5285   0022E6  C09B  F00E         	movff	_Place1+1,Flash@PlaceN+1
  5286   0022EA  EC5A  F021         	call	_Flash	;wreg free
  5287                           
  5288                           ;LCD_Screens.c: 130:             break;
  5289   0022EE  EF9F  F011         	goto	l161
  5290   0022F2                     l4844:
  5291   0022F2  C098  F010         	movff	_Place2,??_Screen_Device_1
  5292   0022F6  C099  F011         	movff	_Place2+1,??_Screen_Device_1+1
  5293                           
  5294                           ; Switch on 2 bytes has been partitioned into a top level switch of size 1, and 1 sub-sw
      +                          itches
  5295                           ; Switch size 1, requested type "simple"
  5296                           ; Number of cases is 1, Range of values is 0 to 0
  5297                           ; switch strategies available:
  5298                           ; Name         Instructions Cycles
  5299                           ; simple_byte            4     3 (average)
  5300                           ;	Chosen strategy is simple_byte
  5301   0022FA  5011               	movf	(??_Screen_Device_1+1)^0,w,c
  5302   0022FC  0A00               	xorlw	0	; case 0
  5303   0022FE  B4D8               	btfsc	status,2,c
  5304   002300  EF84  F011         	goto	l5494
  5305   002304  EF9F  F011         	goto	l161
  5306   002308                     l5494:
  5307                           
  5308                           ; Switch size 1, requested type "simple"
  5309                           ; Number of cases is 6, Range of values is 1 to 8
  5310                           ; switch strategies available:
  5311                           ; Name         Instructions Cycles
  5312                           ; simple_byte           19    10 (average)
  5313                           ;	Chosen strategy is simple_byte
  5314   002308  5010               	movf	??_Screen_Device_1^0,w,c
  5315   00230A  0A01               	xorlw	1	; case 1
  5316   00230C  B4D8               	btfsc	status,2,c
  5317   00230E  EF31  F011         	goto	l4830
  5318   002312  0A03               	xorlw	3	; case 2
  5319   002314  B4D8               	btfsc	status,2,c
  5320   002316  EF3D  F011         	goto	l4832
  5321   00231A  0A06               	xorlw	6	; case 4
  5322   00231C  B4D8               	btfsc	status,2,c
  5323   00231E  EF49  F011         	goto	l4834
  5324   002322  0A01               	xorlw	1	; case 5
  5325   002324  B4D8               	btfsc	status,2,c
  5326   002326  EF55  F011         	goto	l4836
  5327   00232A  0A02               	xorlw	2	; case 7
  5328   00232C  B4D8               	btfsc	status,2,c
  5329   00232E  EF61  F011         	goto	l4838
  5330   002332  0A0F               	xorlw	15	; case 8
  5331   002334  B4D8               	btfsc	status,2,c
  5332   002336  EF6D  F011         	goto	l4840
  5333   00233A  EF9F  F011         	goto	l161
  5334   00233E                     l161:
  5335   00233E  0012               	return		;funcret
  5336   002340                     __end_of_Screen_Device_1:
  5337                           	callstack 0
  5338                           
  5339 ;; *************** function _Set_Time *****************
  5340 ;; Defined at:
  5341 ;;		line 13 in file "App_Functions.c"
  5342 ;; Parameters:    Size  Location     Type
  5343 ;;  Num             2    0[COMRAM] int 
  5344 ;;  Place           2    2[COMRAM] int 
  5345 ;; Auto vars:     Size  Location     Type
  5346 ;;		None
  5347 ;; Return value:  Size  Location     Type
  5348 ;;                  1    wreg      void 
  5349 ;; Registers used:
  5350 ;;		wreg, fsr1l, fsr1h, fsr2l, fsr2h, status,2, status,0
  5351 ;; Tracked objects:
  5352 ;;		On entry : 0/0
  5353 ;;		On exit  : 0/0
  5354 ;;		Unchanged: 0/0
  5355 ;; Data sizes:     COMRAM   BANK0   BANK1   BANK2   BANK3   BANK4   BANK5   BANK6   BANK7
  5356 ;;      Params:         4       0       0       0       0       0       0       0       0
  5357 ;;      Locals:         0       0       0       0       0       0       0       0       0
  5358 ;;      Temps:          9       0       0       0       0       0       0       0       0
  5359 ;;      Totals:        13       0       0       0       0       0       0       0       0
  5360 ;;Total ram usage:       13 bytes
  5361 ;; Hardware stack levels used: 1
  5362 ;; Hardware stack levels required when called: 1
  5363 ;; This function calls:
  5364 ;;		Nothing
  5365 ;; This function is called by:
  5366 ;;		_Screen_Device_1
  5367 ;;		_Screen_Device_2
  5368 ;; This function uses a non-reentrant model
  5369 ;;
  5370                           
  5371                           	psect	text10
  5372   000850                     __ptext10:
  5373                           	callstack 0
  5374   000850                     _Set_Time:
  5375                           	callstack 28
  5376   000850                     
  5377                           ;App_Functions.c: 13: void Set_Time(int Num, int Place);App_Functions.c: 14: {;App_Funct
      +                          ions.c: 15:     if(((PORTB & (1<<4))? 1:0) && Place > 0)
  5378   000850  A881               	btfss	129,4,c	;volatile
  5379   000852  EF2D  F004         	goto	u3291
  5380   000856  EF2F  F004         	goto	u3290
  5381   00085A                     u3291:
  5382   00085A  EFC2  F004         	goto	l3926
  5383   00085E                     u3290:
  5384   00085E  BE04               	btfsc	(Set_Time@Place+1)^0,7,c
  5385   000860  EF3A  F004         	goto	u3301
  5386   000864  5004               	movf	(Set_Time@Place+1)^0,w,c
  5387   000866  E108               	bnz	u3300
  5388   000868  0403               	decf	Set_Time@Place^0,w,c
  5389   00086A  A0D8               	btfss	status,0,c
  5390   00086C  EF3A  F004         	goto	u3301
  5391   000870  EF3C  F004         	goto	u3300
  5392   000874                     u3301:
  5393   000874  EFC2  F004         	goto	l3926
  5394   000878                     u3300:
  5395   000878                     
  5396                           ;App_Functions.c: 16:     {;App_Functions.c: 17:         _delay((unsigned long)((5)*(800
      +                          0000UL/4000.0)));
  5397   000878  0E0D               	movlw	13
  5398   00087A  6E05               	movwf	??_Set_Time^0,c
  5399   00087C  0EFC               	movlw	252
  5400   00087E                     u5337:
  5401   00087E  2EE8               	decfsz	wreg,f,c
  5402   000880  D7FE               	bra	u5337
  5403   000882  2E05               	decfsz	??_Set_Time^0,f,c
  5404   000884  D7FC               	bra	u5337
  5405   000886                     l544:
  5406   000886  B881               	btfsc	129,4,c	;volatile
  5407   000888  EF48  F004         	goto	u3311
  5408   00088C  EF4A  F004         	goto	u3310
  5409   000890                     u3311:
  5410   000890  EF43  F004         	goto	l544
  5411   000894                     u3310:
  5412   000894                     
  5413                           ;App_Functions.c: 20:         if (time1[Num][Place - 1] >= '0' && time1[Num][Place - 1] 
      +                          < '9')
  5414   000894  C001  F005         	movff	Set_Time@Num,??_Set_Time
  5415   000898  C002  F006         	movff	Set_Time@Num+1,??_Set_Time+1
  5416   00089C  90D8               	bcf	status,0,c
  5417   00089E  3605               	rlcf	??_Set_Time^0,f,c
  5418   0008A0  3606               	rlcf	(??_Set_Time+1)^0,f,c
  5419   0008A2  90D8               	bcf	status,0,c
  5420   0008A4  3605               	rlcf	??_Set_Time^0,f,c
  5421   0008A6  3606               	rlcf	(??_Set_Time+1)^0,f,c
  5422   0008A8  90D8               	bcf	status,0,c
  5423   0008AA  3605               	rlcf	??_Set_Time^0,f,c
  5424   0008AC  3606               	rlcf	(??_Set_Time+1)^0,f,c
  5425   0008AE  0EBE               	movlw	low (_time1+65535)
  5426   0008B0  2405               	addwf	??_Set_Time^0,w,c
  5427   0008B2  6E07               	movwf	(??_Set_Time+2)^0,c
  5428   0008B4  0E00               	movlw	high (_time1+65535)
  5429   0008B6  2006               	addwfc	(??_Set_Time+1)^0,w,c
  5430   0008B8  6E08               	movwf	(??_Set_Time+3)^0,c
  5431   0008BA  5003               	movf	Set_Time@Place^0,w,c
  5432   0008BC  2407               	addwf	(??_Set_Time+2)^0,w,c
  5433   0008BE  6ED9               	movwf	fsr2l,c
  5434   0008C0  5004               	movf	(Set_Time@Place+1)^0,w,c
  5435   0008C2  2008               	addwfc	(??_Set_Time+3)^0,w,c
  5436   0008C4  6EDA               	movwf	fsr2h,c
  5437   0008C6  0E2F               	movlw	47
  5438   0008C8  64DF               	cpfsgt	indf2,c
  5439   0008CA  EF69  F004         	goto	u3321
  5440   0008CE  EF6B  F004         	goto	u3320
  5441   0008D2                     u3321:
  5442   0008D2  EFC2  F004         	goto	l3926
  5443   0008D6                     u3320:
  5444   0008D6  C001  F005         	movff	Set_Time@Num,??_Set_Time
  5445   0008DA  C002  F006         	movff	Set_Time@Num+1,??_Set_Time+1
  5446   0008DE  90D8               	bcf	status,0,c
  5447   0008E0  3605               	rlcf	??_Set_Time^0,f,c
  5448   0008E2  3606               	rlcf	(??_Set_Time+1)^0,f,c
  5449   0008E4  90D8               	bcf	status,0,c
  5450   0008E6  3605               	rlcf	??_Set_Time^0,f,c
  5451   0008E8  3606               	rlcf	(??_Set_Time+1)^0,f,c
  5452   0008EA  90D8               	bcf	status,0,c
  5453   0008EC  3605               	rlcf	??_Set_Time^0,f,c
  5454   0008EE  3606               	rlcf	(??_Set_Time+1)^0,f,c
  5455   0008F0  0EBE               	movlw	low (_time1+65535)
  5456   0008F2  2405               	addwf	??_Set_Time^0,w,c
  5457   0008F4  6E07               	movwf	(??_Set_Time+2)^0,c
  5458   0008F6  0E00               	movlw	high (_time1+65535)
  5459   0008F8  2006               	addwfc	(??_Set_Time+1)^0,w,c
  5460   0008FA  6E08               	movwf	(??_Set_Time+3)^0,c
  5461   0008FC  5003               	movf	Set_Time@Place^0,w,c
  5462   0008FE  2407               	addwf	(??_Set_Time+2)^0,w,c
  5463   000900  6ED9               	movwf	fsr2l,c
  5464   000902  5004               	movf	(Set_Time@Place+1)^0,w,c
  5465   000904  2008               	addwfc	(??_Set_Time+3)^0,w,c
  5466   000906  6EDA               	movwf	fsr2h,c
  5467   000908  0E39               	movlw	57
  5468   00090A  60DF               	cpfslt	indf2,c
  5469   00090C  EF8A  F004         	goto	u3331
  5470   000910  EF8C  F004         	goto	u3330
  5471   000914                     u3331:
  5472   000914  EFC2  F004         	goto	l3926
  5473   000918                     u3330:
  5474   000918                     
  5475                           ;App_Functions.c: 21:         {;App_Functions.c: 22:             time1[Num][Place - 1] =
      +                           time1[Num][Place - 1] + 1;
  5476   000918  C001  F005         	movff	Set_Time@Num,??_Set_Time
  5477   00091C  C002  F006         	movff	Set_Time@Num+1,??_Set_Time+1
  5478   000920  90D8               	bcf	status,0,c
  5479   000922  3605               	rlcf	??_Set_Time^0,f,c
  5480   000924  3606               	rlcf	(??_Set_Time+1)^0,f,c
  5481   000926  90D8               	bcf	status,0,c
  5482   000928  3605               	rlcf	??_Set_Time^0,f,c
  5483   00092A  3606               	rlcf	(??_Set_Time+1)^0,f,c
  5484   00092C  90D8               	bcf	status,0,c
  5485   00092E  3605               	rlcf	??_Set_Time^0,f,c
  5486   000930  3606               	rlcf	(??_Set_Time+1)^0,f,c
  5487   000932  0EBE               	movlw	low (_time1+65535)
  5488   000934  2405               	addwf	??_Set_Time^0,w,c
  5489   000936  6E07               	movwf	(??_Set_Time+2)^0,c
  5490   000938  0E00               	movlw	high (_time1+65535)
  5491   00093A  2006               	addwfc	(??_Set_Time+1)^0,w,c
  5492   00093C  6E08               	movwf	(??_Set_Time+3)^0,c
  5493   00093E  5003               	movf	Set_Time@Place^0,w,c
  5494   000940  2407               	addwf	(??_Set_Time+2)^0,w,c
  5495   000942  6ED9               	movwf	fsr2l,c
  5496   000944  5004               	movf	(Set_Time@Place+1)^0,w,c
  5497   000946  2008               	addwfc	(??_Set_Time+3)^0,w,c
  5498   000948  6EDA               	movwf	fsr2h,c
  5499   00094A  C001  F009         	movff	Set_Time@Num,??_Set_Time+4
  5500   00094E  C002  F00A         	movff	Set_Time@Num+1,??_Set_Time+5
  5501   000952  90D8               	bcf	status,0,c
  5502   000954  3609               	rlcf	(??_Set_Time+4)^0,f,c
  5503   000956  360A               	rlcf	(??_Set_Time+5)^0,f,c
  5504   000958  90D8               	bcf	status,0,c
  5505   00095A  3609               	rlcf	(??_Set_Time+4)^0,f,c
  5506   00095C  360A               	rlcf	(??_Set_Time+5)^0,f,c
  5507   00095E  90D8               	bcf	status,0,c
  5508   000960  3609               	rlcf	(??_Set_Time+4)^0,f,c
  5509   000962  360A               	rlcf	(??_Set_Time+5)^0,f,c
  5510   000964  0EBE               	movlw	low (_time1+65535)
  5511   000966  2409               	addwf	(??_Set_Time+4)^0,w,c
  5512   000968  6E0B               	movwf	(??_Set_Time+6)^0,c
  5513   00096A  0E00               	movlw	high (_time1+65535)
  5514   00096C  200A               	addwfc	(??_Set_Time+5)^0,w,c
  5515   00096E  6E0C               	movwf	(??_Set_Time+7)^0,c
  5516   000970  5003               	movf	Set_Time@Place^0,w,c
  5517   000972  240B               	addwf	(??_Set_Time+6)^0,w,c
  5518   000974  6EE1               	movwf	fsr1l,c
  5519   000976  5004               	movf	(Set_Time@Place+1)^0,w,c
  5520   000978  200C               	addwfc	(??_Set_Time+7)^0,w,c
  5521   00097A  6EE2               	movwf	fsr1h,c
  5522   00097C  50E7               	movf	indf1,w,c
  5523   00097E  6E0D               	movwf	(??_Set_Time+8)^0,c
  5524   000980  280D               	incf	(??_Set_Time+8)^0,w,c
  5525   000982  6EDF               	movwf	indf2,c
  5526   000984                     l3926:
  5527                           
  5528                           ;App_Functions.c: 26:     if(((PORTB & (1<<5))? 1:0) && Place > 0)
  5529   000984  AA81               	btfss	129,5,c	;volatile
  5530   000986  EFC7  F004         	goto	u3341
  5531   00098A  EFC9  F004         	goto	u3340
  5532   00098E                     u3341:
  5533   00098E  EF5C  F005         	goto	l3938
  5534   000992                     u3340:
  5535   000992  BE04               	btfsc	(Set_Time@Place+1)^0,7,c
  5536   000994  EFD4  F004         	goto	u3351
  5537   000998  5004               	movf	(Set_Time@Place+1)^0,w,c
  5538   00099A  E108               	bnz	u3350
  5539   00099C  0403               	decf	Set_Time@Place^0,w,c
  5540   00099E  A0D8               	btfss	status,0,c
  5541   0009A0  EFD4  F004         	goto	u3351
  5542   0009A4  EFD6  F004         	goto	u3350
  5543   0009A8                     u3351:
  5544   0009A8  EF5C  F005         	goto	l3938
  5545   0009AC                     u3350:
  5546   0009AC                     
  5547                           ;App_Functions.c: 27:     {;App_Functions.c: 28:         _delay((unsigned long)((5)*(800
      +                          0000UL/4000.0)));
  5548   0009AC  0E0D               	movlw	13
  5549   0009AE  6E05               	movwf	??_Set_Time^0,c
  5550   0009B0  0EFC               	movlw	252
  5551   0009B2                     u5347:
  5552   0009B2  2EE8               	decfsz	wreg,f,c
  5553   0009B4  D7FE               	bra	u5347
  5554   0009B6  2E05               	decfsz	??_Set_Time^0,f,c
  5555   0009B8  D7FC               	bra	u5347
  5556   0009BA                     l549:
  5557   0009BA  BA81               	btfsc	129,5,c	;volatile
  5558   0009BC  EFE2  F004         	goto	u3361
  5559   0009C0  EFE4  F004         	goto	u3360
  5560   0009C4                     u3361:
  5561   0009C4  EFDD  F004         	goto	l549
  5562   0009C8                     u3360:
  5563   0009C8                     
  5564                           ;App_Functions.c: 31:         if (time1[Num][Place - 1] > '0' && time1[Num][Place - 1] <
      +                          = '9')
  5565   0009C8  C001  F005         	movff	Set_Time@Num,??_Set_Time
  5566   0009CC  C002  F006         	movff	Set_Time@Num+1,??_Set_Time+1
  5567   0009D0  90D8               	bcf	status,0,c
  5568   0009D2  3605               	rlcf	??_Set_Time^0,f,c
  5569   0009D4  3606               	rlcf	(??_Set_Time+1)^0,f,c
  5570   0009D6  90D8               	bcf	status,0,c
  5571   0009D8  3605               	rlcf	??_Set_Time^0,f,c
  5572   0009DA  3606               	rlcf	(??_Set_Time+1)^0,f,c
  5573   0009DC  90D8               	bcf	status,0,c
  5574   0009DE  3605               	rlcf	??_Set_Time^0,f,c
  5575   0009E0  3606               	rlcf	(??_Set_Time+1)^0,f,c
  5576   0009E2  0EBE               	movlw	low (_time1+65535)
  5577   0009E4  2405               	addwf	??_Set_Time^0,w,c
  5578   0009E6  6E07               	movwf	(??_Set_Time+2)^0,c
  5579   0009E8  0E00               	movlw	high (_time1+65535)
  5580   0009EA  2006               	addwfc	(??_Set_Time+1)^0,w,c
  5581   0009EC  6E08               	movwf	(??_Set_Time+3)^0,c
  5582   0009EE  5003               	movf	Set_Time@Place^0,w,c
  5583   0009F0  2407               	addwf	(??_Set_Time+2)^0,w,c
  5584   0009F2  6ED9               	movwf	fsr2l,c
  5585   0009F4  5004               	movf	(Set_Time@Place+1)^0,w,c
  5586   0009F6  2008               	addwfc	(??_Set_Time+3)^0,w,c
  5587   0009F8  6EDA               	movwf	fsr2h,c
  5588   0009FA  0E30               	movlw	48
  5589   0009FC  64DF               	cpfsgt	indf2,c
  5590   0009FE  EF03  F005         	goto	u3371
  5591   000A02  EF05  F005         	goto	u3370
  5592   000A06                     u3371:
  5593   000A06  EF5C  F005         	goto	l3938
  5594   000A0A                     u3370:
  5595   000A0A  C001  F005         	movff	Set_Time@Num,??_Set_Time
  5596   000A0E  C002  F006         	movff	Set_Time@Num+1,??_Set_Time+1
  5597   000A12  90D8               	bcf	status,0,c
  5598   000A14  3605               	rlcf	??_Set_Time^0,f,c
  5599   000A16  3606               	rlcf	(??_Set_Time+1)^0,f,c
  5600   000A18  90D8               	bcf	status,0,c
  5601   000A1A  3605               	rlcf	??_Set_Time^0,f,c
  5602   000A1C  3606               	rlcf	(??_Set_Time+1)^0,f,c
  5603   000A1E  90D8               	bcf	status,0,c
  5604   000A20  3605               	rlcf	??_Set_Time^0,f,c
  5605   000A22  3606               	rlcf	(??_Set_Time+1)^0,f,c
  5606   000A24  0EBE               	movlw	low (_time1+65535)
  5607   000A26  2405               	addwf	??_Set_Time^0,w,c
  5608   000A28  6E07               	movwf	(??_Set_Time+2)^0,c
  5609   000A2A  0E00               	movlw	high (_time1+65535)
  5610   000A2C  2006               	addwfc	(??_Set_Time+1)^0,w,c
  5611   000A2E  6E08               	movwf	(??_Set_Time+3)^0,c
  5612   000A30  5003               	movf	Set_Time@Place^0,w,c
  5613   000A32  2407               	addwf	(??_Set_Time+2)^0,w,c
  5614   000A34  6ED9               	movwf	fsr2l,c
  5615   000A36  5004               	movf	(Set_Time@Place+1)^0,w,c
  5616   000A38  2008               	addwfc	(??_Set_Time+3)^0,w,c
  5617   000A3A  6EDA               	movwf	fsr2h,c
  5618   000A3C  0E3A               	movlw	58
  5619   000A3E  60DF               	cpfslt	indf2,c
  5620   000A40  EF24  F005         	goto	u3381
  5621   000A44  EF26  F005         	goto	u3380
  5622   000A48                     u3381:
  5623   000A48  EF5C  F005         	goto	l3938
  5624   000A4C                     u3380:
  5625   000A4C                     
  5626                           ;App_Functions.c: 32:         {;App_Functions.c: 33:             time1[Num][Place - 1] =
      +                           time1[Num][Place - 1] - 1;
  5627   000A4C  C001  F005         	movff	Set_Time@Num,??_Set_Time
  5628   000A50  C002  F006         	movff	Set_Time@Num+1,??_Set_Time+1
  5629   000A54  90D8               	bcf	status,0,c
  5630   000A56  3605               	rlcf	??_Set_Time^0,f,c
  5631   000A58  3606               	rlcf	(??_Set_Time+1)^0,f,c
  5632   000A5A  90D8               	bcf	status,0,c
  5633   000A5C  3605               	rlcf	??_Set_Time^0,f,c
  5634   000A5E  3606               	rlcf	(??_Set_Time+1)^0,f,c
  5635   000A60  90D8               	bcf	status,0,c
  5636   000A62  3605               	rlcf	??_Set_Time^0,f,c
  5637   000A64  3606               	rlcf	(??_Set_Time+1)^0,f,c
  5638   000A66  0EBE               	movlw	low (_time1+65535)
  5639   000A68  2405               	addwf	??_Set_Time^0,w,c
  5640   000A6A  6E07               	movwf	(??_Set_Time+2)^0,c
  5641   000A6C  0E00               	movlw	high (_time1+65535)
  5642   000A6E  2006               	addwfc	(??_Set_Time+1)^0,w,c
  5643   000A70  6E08               	movwf	(??_Set_Time+3)^0,c
  5644   000A72  5003               	movf	Set_Time@Place^0,w,c
  5645   000A74  2407               	addwf	(??_Set_Time+2)^0,w,c
  5646   000A76  6ED9               	movwf	fsr2l,c
  5647   000A78  5004               	movf	(Set_Time@Place+1)^0,w,c
  5648   000A7A  2008               	addwfc	(??_Set_Time+3)^0,w,c
  5649   000A7C  6EDA               	movwf	fsr2h,c
  5650   000A7E  C001  F009         	movff	Set_Time@Num,??_Set_Time+4
  5651   000A82  C002  F00A         	movff	Set_Time@Num+1,??_Set_Time+5
  5652   000A86  90D8               	bcf	status,0,c
  5653   000A88  3609               	rlcf	(??_Set_Time+4)^0,f,c
  5654   000A8A  360A               	rlcf	(??_Set_Time+5)^0,f,c
  5655   000A8C  90D8               	bcf	status,0,c
  5656   000A8E  3609               	rlcf	(??_Set_Time+4)^0,f,c
  5657   000A90  360A               	rlcf	(??_Set_Time+5)^0,f,c
  5658   000A92  90D8               	bcf	status,0,c
  5659   000A94  3609               	rlcf	(??_Set_Time+4)^0,f,c
  5660   000A96  360A               	rlcf	(??_Set_Time+5)^0,f,c
  5661   000A98  0EBE               	movlw	low (_time1+65535)
  5662   000A9A  2409               	addwf	(??_Set_Time+4)^0,w,c
  5663   000A9C  6E0B               	movwf	(??_Set_Time+6)^0,c
  5664   000A9E  0E00               	movlw	high (_time1+65535)
  5665   000AA0  200A               	addwfc	(??_Set_Time+5)^0,w,c
  5666   000AA2  6E0C               	movwf	(??_Set_Time+7)^0,c
  5667   000AA4  5003               	movf	Set_Time@Place^0,w,c
  5668   000AA6  240B               	addwf	(??_Set_Time+6)^0,w,c
  5669   000AA8  6EE1               	movwf	fsr1l,c
  5670   000AAA  5004               	movf	(Set_Time@Place+1)^0,w,c
  5671   000AAC  200C               	addwfc	(??_Set_Time+7)^0,w,c
  5672   000AAE  6EE2               	movwf	fsr1h,c
  5673   000AB0  50E7               	movf	indf1,w,c
  5674   000AB2  6E0D               	movwf	(??_Set_Time+8)^0,c
  5675   000AB4  040D               	decf	(??_Set_Time+8)^0,w,c
  5676   000AB6  6EDF               	movwf	indf2,c
  5677   000AB8                     l3938:
  5678                           
  5679                           ;App_Functions.c: 36:     if (time1[Num][0] > '2')
  5680   000AB8  C001  F005         	movff	Set_Time@Num,??_Set_Time
  5681   000ABC  C002  F006         	movff	Set_Time@Num+1,??_Set_Time+1
  5682   000AC0  90D8               	bcf	status,0,c
  5683   000AC2  3605               	rlcf	??_Set_Time^0,f,c
  5684   000AC4  3606               	rlcf	(??_Set_Time+1)^0,f,c
  5685   000AC6  90D8               	bcf	status,0,c
  5686   000AC8  3605               	rlcf	??_Set_Time^0,f,c
  5687   000ACA  3606               	rlcf	(??_Set_Time+1)^0,f,c
  5688   000ACC  90D8               	bcf	status,0,c
  5689   000ACE  3605               	rlcf	??_Set_Time^0,f,c
  5690   000AD0  3606               	rlcf	(??_Set_Time+1)^0,f,c
  5691   000AD2  0EBF               	movlw	low _time1
  5692   000AD4  2405               	addwf	??_Set_Time^0,w,c
  5693   000AD6  6ED9               	movwf	fsr2l,c
  5694   000AD8  0E00               	movlw	high _time1
  5695   000ADA  2006               	addwfc	(??_Set_Time+1)^0,w,c
  5696   000ADC  6EDA               	movwf	fsr2h,c
  5697   000ADE  0E32               	movlw	50
  5698   000AE0  64DF               	cpfsgt	indf2,c
  5699   000AE2  EF75  F005         	goto	u3391
  5700   000AE6  EF77  F005         	goto	u3390
  5701   000AEA                     u3391:
  5702   000AEA  EF8C  F005         	goto	l553
  5703   000AEE                     u3390:
  5704   000AEE                     
  5705                           ;App_Functions.c: 37:     {;App_Functions.c: 38:         time1[Num][0] = '2';
  5706   000AEE  C001  F005         	movff	Set_Time@Num,??_Set_Time
  5707   000AF2  C002  F006         	movff	Set_Time@Num+1,??_Set_Time+1
  5708   000AF6  90D8               	bcf	status,0,c
  5709   000AF8  3605               	rlcf	??_Set_Time^0,f,c
  5710   000AFA  3606               	rlcf	(??_Set_Time+1)^0,f,c
  5711   000AFC  90D8               	bcf	status,0,c
  5712   000AFE  3605               	rlcf	??_Set_Time^0,f,c
  5713   000B00  3606               	rlcf	(??_Set_Time+1)^0,f,c
  5714   000B02  90D8               	bcf	status,0,c
  5715   000B04  3605               	rlcf	??_Set_Time^0,f,c
  5716   000B06  3606               	rlcf	(??_Set_Time+1)^0,f,c
  5717   000B08  0EBF               	movlw	low _time1
  5718   000B0A  2405               	addwf	??_Set_Time^0,w,c
  5719   000B0C  6ED9               	movwf	fsr2l,c
  5720   000B0E  0E00               	movlw	high _time1
  5721   000B10  2006               	addwfc	(??_Set_Time+1)^0,w,c
  5722   000B12  6EDA               	movwf	fsr2h,c
  5723   000B14  0E32               	movlw	50
  5724   000B16  6EDF               	movwf	indf2,c
  5725   000B18                     l553:
  5726                           
  5727                           ;App_Functions.c: 40:     if (time1[Num][0] == '2' && time1[Num][1] > '3')
  5728   000B18  C001  F005         	movff	Set_Time@Num,??_Set_Time
  5729   000B1C  C002  F006         	movff	Set_Time@Num+1,??_Set_Time+1
  5730   000B20  90D8               	bcf	status,0,c
  5731   000B22  3605               	rlcf	??_Set_Time^0,f,c
  5732   000B24  3606               	rlcf	(??_Set_Time+1)^0,f,c
  5733   000B26  90D8               	bcf	status,0,c
  5734   000B28  3605               	rlcf	??_Set_Time^0,f,c
  5735   000B2A  3606               	rlcf	(??_Set_Time+1)^0,f,c
  5736   000B2C  90D8               	bcf	status,0,c
  5737   000B2E  3605               	rlcf	??_Set_Time^0,f,c
  5738   000B30  3606               	rlcf	(??_Set_Time+1)^0,f,c
  5739   000B32  0EBF               	movlw	low _time1
  5740   000B34  2405               	addwf	??_Set_Time^0,w,c
  5741   000B36  6ED9               	movwf	fsr2l,c
  5742   000B38  0E00               	movlw	high _time1
  5743   000B3A  2006               	addwfc	(??_Set_Time+1)^0,w,c
  5744   000B3C  6EDA               	movwf	fsr2h,c
  5745   000B3E  0E32               	movlw	50
  5746   000B40  18DE               	xorwf	postinc2,w,c
  5747   000B42  A4D8               	btfss	status,2,c
  5748   000B44  EFA6  F005         	goto	u3401
  5749   000B48  EFA8  F005         	goto	u3400
  5750   000B4C                     u3401:
  5751   000B4C  EFD8  F005         	goto	l554
  5752   000B50                     u3400:
  5753   000B50  C001  F005         	movff	Set_Time@Num,??_Set_Time
  5754   000B54  C002  F006         	movff	Set_Time@Num+1,??_Set_Time+1
  5755   000B58  90D8               	bcf	status,0,c
  5756   000B5A  3605               	rlcf	??_Set_Time^0,f,c
  5757   000B5C  3606               	rlcf	(??_Set_Time+1)^0,f,c
  5758   000B5E  90D8               	bcf	status,0,c
  5759   000B60  3605               	rlcf	??_Set_Time^0,f,c
  5760   000B62  3606               	rlcf	(??_Set_Time+1)^0,f,c
  5761   000B64  90D8               	bcf	status,0,c
  5762   000B66  3605               	rlcf	??_Set_Time^0,f,c
  5763   000B68  3606               	rlcf	(??_Set_Time+1)^0,f,c
  5764   000B6A  0EC0               	movlw	low (_time1+1)
  5765   000B6C  2405               	addwf	??_Set_Time^0,w,c
  5766   000B6E  6ED9               	movwf	fsr2l,c
  5767   000B70  0E00               	movlw	high (_time1+1)
  5768   000B72  2006               	addwfc	(??_Set_Time+1)^0,w,c
  5769   000B74  6EDA               	movwf	fsr2h,c
  5770   000B76  0E33               	movlw	51
  5771   000B78  64DF               	cpfsgt	indf2,c
  5772   000B7A  EFC1  F005         	goto	u3411
  5773   000B7E  EFC3  F005         	goto	u3410
  5774   000B82                     u3411:
  5775   000B82  EFD8  F005         	goto	l554
  5776   000B86                     u3410:
  5777   000B86                     
  5778                           ;App_Functions.c: 41:     {;App_Functions.c: 42:         time1[Num][1] = '3';
  5779   000B86  C001  F005         	movff	Set_Time@Num,??_Set_Time
  5780   000B8A  C002  F006         	movff	Set_Time@Num+1,??_Set_Time+1
  5781   000B8E  90D8               	bcf	status,0,c
  5782   000B90  3605               	rlcf	??_Set_Time^0,f,c
  5783   000B92  3606               	rlcf	(??_Set_Time+1)^0,f,c
  5784   000B94  90D8               	bcf	status,0,c
  5785   000B96  3605               	rlcf	??_Set_Time^0,f,c
  5786   000B98  3606               	rlcf	(??_Set_Time+1)^0,f,c
  5787   000B9A  90D8               	bcf	status,0,c
  5788   000B9C  3605               	rlcf	??_Set_Time^0,f,c
  5789   000B9E  3606               	rlcf	(??_Set_Time+1)^0,f,c
  5790   000BA0  0EC0               	movlw	low (_time1+1)
  5791   000BA2  2405               	addwf	??_Set_Time^0,w,c
  5792   000BA4  6ED9               	movwf	fsr2l,c
  5793   000BA6  0E00               	movlw	high (_time1+1)
  5794   000BA8  2006               	addwfc	(??_Set_Time+1)^0,w,c
  5795   000BAA  6EDA               	movwf	fsr2h,c
  5796   000BAC  0E33               	movlw	51
  5797   000BAE  6EDF               	movwf	indf2,c
  5798   000BB0                     l554:
  5799                           
  5800                           ;App_Functions.c: 44:     if (time1[Num][0] == '0' && time1[Num][1] > '9')
  5801   000BB0  C001  F005         	movff	Set_Time@Num,??_Set_Time
  5802   000BB4  C002  F006         	movff	Set_Time@Num+1,??_Set_Time+1
  5803   000BB8  90D8               	bcf	status,0,c
  5804   000BBA  3605               	rlcf	??_Set_Time^0,f,c
  5805   000BBC  3606               	rlcf	(??_Set_Time+1)^0,f,c
  5806   000BBE  90D8               	bcf	status,0,c
  5807   000BC0  3605               	rlcf	??_Set_Time^0,f,c
  5808   000BC2  3606               	rlcf	(??_Set_Time+1)^0,f,c
  5809   000BC4  90D8               	bcf	status,0,c
  5810   000BC6  3605               	rlcf	??_Set_Time^0,f,c
  5811   000BC8  3606               	rlcf	(??_Set_Time+1)^0,f,c
  5812   000BCA  0EBF               	movlw	low _time1
  5813   000BCC  2405               	addwf	??_Set_Time^0,w,c
  5814   000BCE  6ED9               	movwf	fsr2l,c
  5815   000BD0  0E00               	movlw	high _time1
  5816   000BD2  2006               	addwfc	(??_Set_Time+1)^0,w,c
  5817   000BD4  6EDA               	movwf	fsr2h,c
  5818   000BD6  0E30               	movlw	48
  5819   000BD8  18DE               	xorwf	postinc2,w,c
  5820   000BDA  A4D8               	btfss	status,2,c
  5821   000BDC  EFF2  F005         	goto	u3421
  5822   000BE0  EFF4  F005         	goto	u3420
  5823   000BE4                     u3421:
  5824   000BE4  EF24  F006         	goto	l555
  5825   000BE8                     u3420:
  5826   000BE8  C001  F005         	movff	Set_Time@Num,??_Set_Time
  5827   000BEC  C002  F006         	movff	Set_Time@Num+1,??_Set_Time+1
  5828   000BF0  90D8               	bcf	status,0,c
  5829   000BF2  3605               	rlcf	??_Set_Time^0,f,c
  5830   000BF4  3606               	rlcf	(??_Set_Time+1)^0,f,c
  5831   000BF6  90D8               	bcf	status,0,c
  5832   000BF8  3605               	rlcf	??_Set_Time^0,f,c
  5833   000BFA  3606               	rlcf	(??_Set_Time+1)^0,f,c
  5834   000BFC  90D8               	bcf	status,0,c
  5835   000BFE  3605               	rlcf	??_Set_Time^0,f,c
  5836   000C00  3606               	rlcf	(??_Set_Time+1)^0,f,c
  5837   000C02  0EC0               	movlw	low (_time1+1)
  5838   000C04  2405               	addwf	??_Set_Time^0,w,c
  5839   000C06  6ED9               	movwf	fsr2l,c
  5840   000C08  0E00               	movlw	high (_time1+1)
  5841   000C0A  2006               	addwfc	(??_Set_Time+1)^0,w,c
  5842   000C0C  6EDA               	movwf	fsr2h,c
  5843   000C0E  0E39               	movlw	57
  5844   000C10  64DF               	cpfsgt	indf2,c
  5845   000C12  EF0D  F006         	goto	u3431
  5846   000C16  EF0F  F006         	goto	u3430
  5847   000C1A                     u3431:
  5848   000C1A  EF24  F006         	goto	l555
  5849   000C1E                     u3430:
  5850   000C1E                     
  5851                           ;App_Functions.c: 45:     {;App_Functions.c: 46:         time1[Num][1] = '9';
  5852   000C1E  C001  F005         	movff	Set_Time@Num,??_Set_Time
  5853   000C22  C002  F006         	movff	Set_Time@Num+1,??_Set_Time+1
  5854   000C26  90D8               	bcf	status,0,c
  5855   000C28  3605               	rlcf	??_Set_Time^0,f,c
  5856   000C2A  3606               	rlcf	(??_Set_Time+1)^0,f,c
  5857   000C2C  90D8               	bcf	status,0,c
  5858   000C2E  3605               	rlcf	??_Set_Time^0,f,c
  5859   000C30  3606               	rlcf	(??_Set_Time+1)^0,f,c
  5860   000C32  90D8               	bcf	status,0,c
  5861   000C34  3605               	rlcf	??_Set_Time^0,f,c
  5862   000C36  3606               	rlcf	(??_Set_Time+1)^0,f,c
  5863   000C38  0EC0               	movlw	low (_time1+1)
  5864   000C3A  2405               	addwf	??_Set_Time^0,w,c
  5865   000C3C  6ED9               	movwf	fsr2l,c
  5866   000C3E  0E00               	movlw	high (_time1+1)
  5867   000C40  2006               	addwfc	(??_Set_Time+1)^0,w,c
  5868   000C42  6EDA               	movwf	fsr2h,c
  5869   000C44  0E39               	movlw	57
  5870   000C46  6EDF               	movwf	indf2,c
  5871   000C48                     l555:
  5872                           
  5873                           ;App_Functions.c: 49:     if (time1[Num][3] > '5')
  5874   000C48  C001  F005         	movff	Set_Time@Num,??_Set_Time
  5875   000C4C  C002  F006         	movff	Set_Time@Num+1,??_Set_Time+1
  5876   000C50  90D8               	bcf	status,0,c
  5877   000C52  3605               	rlcf	??_Set_Time^0,f,c
  5878   000C54  3606               	rlcf	(??_Set_Time+1)^0,f,c
  5879   000C56  90D8               	bcf	status,0,c
  5880   000C58  3605               	rlcf	??_Set_Time^0,f,c
  5881   000C5A  3606               	rlcf	(??_Set_Time+1)^0,f,c
  5882   000C5C  90D8               	bcf	status,0,c
  5883   000C5E  3605               	rlcf	??_Set_Time^0,f,c
  5884   000C60  3606               	rlcf	(??_Set_Time+1)^0,f,c
  5885   000C62  0EC2               	movlw	low (_time1+3)
  5886   000C64  2405               	addwf	??_Set_Time^0,w,c
  5887   000C66  6ED9               	movwf	fsr2l,c
  5888   000C68  0E00               	movlw	high (_time1+3)
  5889   000C6A  2006               	addwfc	(??_Set_Time+1)^0,w,c
  5890   000C6C  6EDA               	movwf	fsr2h,c
  5891   000C6E  0E35               	movlw	53
  5892   000C70  64DF               	cpfsgt	indf2,c
  5893   000C72  EF3D  F006         	goto	u3441
  5894   000C76  EF3F  F006         	goto	u3440
  5895   000C7A                     u3441:
  5896   000C7A  EF54  F006         	goto	l556
  5897   000C7E                     u3440:
  5898   000C7E                     
  5899                           ;App_Functions.c: 50:     {;App_Functions.c: 51:         time1[Num][3] = '5';
  5900   000C7E  C001  F005         	movff	Set_Time@Num,??_Set_Time
  5901   000C82  C002  F006         	movff	Set_Time@Num+1,??_Set_Time+1
  5902   000C86  90D8               	bcf	status,0,c
  5903   000C88  3605               	rlcf	??_Set_Time^0,f,c
  5904   000C8A  3606               	rlcf	(??_Set_Time+1)^0,f,c
  5905   000C8C  90D8               	bcf	status,0,c
  5906   000C8E  3605               	rlcf	??_Set_Time^0,f,c
  5907   000C90  3606               	rlcf	(??_Set_Time+1)^0,f,c
  5908   000C92  90D8               	bcf	status,0,c
  5909   000C94  3605               	rlcf	??_Set_Time^0,f,c
  5910   000C96  3606               	rlcf	(??_Set_Time+1)^0,f,c
  5911   000C98  0EC2               	movlw	low (_time1+3)
  5912   000C9A  2405               	addwf	??_Set_Time^0,w,c
  5913   000C9C  6ED9               	movwf	fsr2l,c
  5914   000C9E  0E00               	movlw	high (_time1+3)
  5915   000CA0  2006               	addwfc	(??_Set_Time+1)^0,w,c
  5916   000CA2  6EDA               	movwf	fsr2h,c
  5917   000CA4  0E35               	movlw	53
  5918   000CA6  6EDF               	movwf	indf2,c
  5919   000CA8                     l556:
  5920                           
  5921                           ;App_Functions.c: 53:     if (time1[Num][4] > '9')
  5922   000CA8  C001  F005         	movff	Set_Time@Num,??_Set_Time
  5923   000CAC  C002  F006         	movff	Set_Time@Num+1,??_Set_Time+1
  5924   000CB0  90D8               	bcf	status,0,c
  5925   000CB2  3605               	rlcf	??_Set_Time^0,f,c
  5926   000CB4  3606               	rlcf	(??_Set_Time+1)^0,f,c
  5927   000CB6  90D8               	bcf	status,0,c
  5928   000CB8  3605               	rlcf	??_Set_Time^0,f,c
  5929   000CBA  3606               	rlcf	(??_Set_Time+1)^0,f,c
  5930   000CBC  90D8               	bcf	status,0,c
  5931   000CBE  3605               	rlcf	??_Set_Time^0,f,c
  5932   000CC0  3606               	rlcf	(??_Set_Time+1)^0,f,c
  5933   000CC2  0EC3               	movlw	low (_time1+4)
  5934   000CC4  2405               	addwf	??_Set_Time^0,w,c
  5935   000CC6  6ED9               	movwf	fsr2l,c
  5936   000CC8  0E00               	movlw	high (_time1+4)
  5937   000CCA  2006               	addwfc	(??_Set_Time+1)^0,w,c
  5938   000CCC  6EDA               	movwf	fsr2h,c
  5939   000CCE  0E39               	movlw	57
  5940   000CD0  64DF               	cpfsgt	indf2,c
  5941   000CD2  EF6D  F006         	goto	u3451
  5942   000CD6  EF6F  F006         	goto	u3450
  5943   000CDA                     u3451:
  5944   000CDA  EF84  F006         	goto	l557
  5945   000CDE                     u3450:
  5946   000CDE                     
  5947                           ;App_Functions.c: 54:     {;App_Functions.c: 55:         time1[Num][4] = '9';
  5948   000CDE  C001  F005         	movff	Set_Time@Num,??_Set_Time
  5949   000CE2  C002  F006         	movff	Set_Time@Num+1,??_Set_Time+1
  5950   000CE6  90D8               	bcf	status,0,c
  5951   000CE8  3605               	rlcf	??_Set_Time^0,f,c
  5952   000CEA  3606               	rlcf	(??_Set_Time+1)^0,f,c
  5953   000CEC  90D8               	bcf	status,0,c
  5954   000CEE  3605               	rlcf	??_Set_Time^0,f,c
  5955   000CF0  3606               	rlcf	(??_Set_Time+1)^0,f,c
  5956   000CF2  90D8               	bcf	status,0,c
  5957   000CF4  3605               	rlcf	??_Set_Time^0,f,c
  5958   000CF6  3606               	rlcf	(??_Set_Time+1)^0,f,c
  5959   000CF8  0EC3               	movlw	low (_time1+4)
  5960   000CFA  2405               	addwf	??_Set_Time^0,w,c
  5961   000CFC  6ED9               	movwf	fsr2l,c
  5962   000CFE  0E00               	movlw	high (_time1+4)
  5963   000D00  2006               	addwfc	(??_Set_Time+1)^0,w,c
  5964   000D02  6EDA               	movwf	fsr2h,c
  5965   000D04  0E39               	movlw	57
  5966   000D06  6EDF               	movwf	indf2,c
  5967   000D08                     l557:
  5968                           
  5969                           ;App_Functions.c: 57:     if (time1[Num][6] > '5')
  5970   000D08  C001  F005         	movff	Set_Time@Num,??_Set_Time
  5971   000D0C  C002  F006         	movff	Set_Time@Num+1,??_Set_Time+1
  5972   000D10  90D8               	bcf	status,0,c
  5973   000D12  3605               	rlcf	??_Set_Time^0,f,c
  5974   000D14  3606               	rlcf	(??_Set_Time+1)^0,f,c
  5975   000D16  90D8               	bcf	status,0,c
  5976   000D18  3605               	rlcf	??_Set_Time^0,f,c
  5977   000D1A  3606               	rlcf	(??_Set_Time+1)^0,f,c
  5978   000D1C  90D8               	bcf	status,0,c
  5979   000D1E  3605               	rlcf	??_Set_Time^0,f,c
  5980   000D20  3606               	rlcf	(??_Set_Time+1)^0,f,c
  5981   000D22  0EC5               	movlw	low (_time1+6)
  5982   000D24  2405               	addwf	??_Set_Time^0,w,c
  5983   000D26  6ED9               	movwf	fsr2l,c
  5984   000D28  0E00               	movlw	high (_time1+6)
  5985   000D2A  2006               	addwfc	(??_Set_Time+1)^0,w,c
  5986   000D2C  6EDA               	movwf	fsr2h,c
  5987   000D2E  0E35               	movlw	53
  5988   000D30  64DF               	cpfsgt	indf2,c
  5989   000D32  EF9D  F006         	goto	u3461
  5990   000D36  EF9F  F006         	goto	u3460
  5991   000D3A                     u3461:
  5992   000D3A  EFB4  F006         	goto	l558
  5993   000D3E                     u3460:
  5994   000D3E                     
  5995                           ;App_Functions.c: 58:     {;App_Functions.c: 59:         time1[Num][6] = '5';
  5996   000D3E  C001  F005         	movff	Set_Time@Num,??_Set_Time
  5997   000D42  C002  F006         	movff	Set_Time@Num+1,??_Set_Time+1
  5998   000D46  90D8               	bcf	status,0,c
  5999   000D48  3605               	rlcf	??_Set_Time^0,f,c
  6000   000D4A  3606               	rlcf	(??_Set_Time+1)^0,f,c
  6001   000D4C  90D8               	bcf	status,0,c
  6002   000D4E  3605               	rlcf	??_Set_Time^0,f,c
  6003   000D50  3606               	rlcf	(??_Set_Time+1)^0,f,c
  6004   000D52  90D8               	bcf	status,0,c
  6005   000D54  3605               	rlcf	??_Set_Time^0,f,c
  6006   000D56  3606               	rlcf	(??_Set_Time+1)^0,f,c
  6007   000D58  0EC5               	movlw	low (_time1+6)
  6008   000D5A  2405               	addwf	??_Set_Time^0,w,c
  6009   000D5C  6ED9               	movwf	fsr2l,c
  6010   000D5E  0E00               	movlw	high (_time1+6)
  6011   000D60  2006               	addwfc	(??_Set_Time+1)^0,w,c
  6012   000D62  6EDA               	movwf	fsr2h,c
  6013   000D64  0E35               	movlw	53
  6014   000D66  6EDF               	movwf	indf2,c
  6015   000D68                     l558:
  6016                           
  6017                           ;App_Functions.c: 61:     if (time1[Num][7] > '9')
  6018   000D68  C001  F005         	movff	Set_Time@Num,??_Set_Time
  6019   000D6C  C002  F006         	movff	Set_Time@Num+1,??_Set_Time+1
  6020   000D70  90D8               	bcf	status,0,c
  6021   000D72  3605               	rlcf	??_Set_Time^0,f,c
  6022   000D74  3606               	rlcf	(??_Set_Time+1)^0,f,c
  6023   000D76  90D8               	bcf	status,0,c
  6024   000D78  3605               	rlcf	??_Set_Time^0,f,c
  6025   000D7A  3606               	rlcf	(??_Set_Time+1)^0,f,c
  6026   000D7C  90D8               	bcf	status,0,c
  6027   000D7E  3605               	rlcf	??_Set_Time^0,f,c
  6028   000D80  3606               	rlcf	(??_Set_Time+1)^0,f,c
  6029   000D82  0EC6               	movlw	low (_time1+7)
  6030   000D84  2405               	addwf	??_Set_Time^0,w,c
  6031   000D86  6ED9               	movwf	fsr2l,c
  6032   000D88  0E00               	movlw	high (_time1+7)
  6033   000D8A  2006               	addwfc	(??_Set_Time+1)^0,w,c
  6034   000D8C  6EDA               	movwf	fsr2h,c
  6035   000D8E  0E39               	movlw	57
  6036   000D90  64DF               	cpfsgt	indf2,c
  6037   000D92  EFCD  F006         	goto	u3471
  6038   000D96  EFCF  F006         	goto	u3470
  6039   000D9A                     u3471:
  6040   000D9A  EFE4  F006         	goto	l560
  6041   000D9E                     u3470:
  6042   000D9E                     
  6043                           ;App_Functions.c: 62:     {;App_Functions.c: 63:         time1[Num][7] = '9';
  6044   000D9E  C001  F005         	movff	Set_Time@Num,??_Set_Time
  6045   000DA2  C002  F006         	movff	Set_Time@Num+1,??_Set_Time+1
  6046   000DA6  90D8               	bcf	status,0,c
  6047   000DA8  3605               	rlcf	??_Set_Time^0,f,c
  6048   000DAA  3606               	rlcf	(??_Set_Time+1)^0,f,c
  6049   000DAC  90D8               	bcf	status,0,c
  6050   000DAE  3605               	rlcf	??_Set_Time^0,f,c
  6051   000DB0  3606               	rlcf	(??_Set_Time+1)^0,f,c
  6052   000DB2  90D8               	bcf	status,0,c
  6053   000DB4  3605               	rlcf	??_Set_Time^0,f,c
  6054   000DB6  3606               	rlcf	(??_Set_Time+1)^0,f,c
  6055   000DB8  0EC6               	movlw	low (_time1+7)
  6056   000DBA  2405               	addwf	??_Set_Time^0,w,c
  6057   000DBC  6ED9               	movwf	fsr2l,c
  6058   000DBE  0E00               	movlw	high (_time1+7)
  6059   000DC0  2006               	addwfc	(??_Set_Time+1)^0,w,c
  6060   000DC2  6EDA               	movwf	fsr2h,c
  6061   000DC4  0E39               	movlw	57
  6062   000DC6  6EDF               	movwf	indf2,c
  6063   000DC8                     l560:
  6064   000DC8  0012               	return		;funcret
  6065   000DCA                     __end_of_Set_Time:
  6066                           	callstack 0
  6067                           
  6068 ;; *************** function _Flash *****************
  6069 ;; Defined at:
  6070 ;;		line 134 in file "App_Functions.c"
  6071 ;; Parameters:    Size  Location     Type
  6072 ;;  inc             2   10[COMRAM] int 
  6073 ;;  PlaceN          2   12[COMRAM] int 
  6074 ;; Auto vars:     Size  Location     Type
  6075 ;;		None
  6076 ;; Return value:  Size  Location     Type
  6077 ;;                  1    wreg      void 
  6078 ;; Registers used:
  6079 ;;		wreg, status,2, status,0, cstack
  6080 ;; Tracked objects:
  6081 ;;		On entry : 0/0
  6082 ;;		On exit  : 0/0
  6083 ;;		Unchanged: 0/0
  6084 ;; Data sizes:     COMRAM   BANK0   BANK1   BANK2   BANK3   BANK4   BANK5   BANK6   BANK7
  6085 ;;      Params:         4       0       0       0       0       0       0       0       0
  6086 ;;      Locals:         0       0       0       0       0       0       0       0       0
  6087 ;;      Temps:          1       0       0       0       0       0       0       0       0
  6088 ;;      Totals:         5       0       0       0       0       0       0       0       0
  6089 ;;Total ram usage:        5 bytes
  6090 ;; Hardware stack levels used: 1
  6091 ;; Hardware stack levels required when called: 3
  6092 ;; This function calls:
  6093 ;;		_LCD_goto_xy
  6094 ;;		_LCD_write
  6095 ;; This function is called by:
  6096 ;;		_Screen_Device_1
  6097 ;;		_Screen_Device_2
  6098 ;; This function uses a non-reentrant model
  6099 ;;
  6100                           
  6101                           	psect	text11
  6102   0042B4                     __ptext11:
  6103                           	callstack 0
  6104   0042B4                     _Flash:
  6105                           	callstack 26
  6106   0042B4                     
  6107                           ;App_Functions.c: 134: void Flash(int inc, int PlaceN);App_Functions.c: 135: {;App_Funct
      +                          ions.c: 136:   if(PlaceN>=9)
  6108   0042B4  BE0E               	btfsc	(Flash@PlaceN+1)^0,7,c
  6109   0042B6  EF66  F021         	goto	u3481
  6110   0042BA  500E               	movf	(Flash@PlaceN+1)^0,w,c
  6111   0042BC  E109               	bnz	u3480
  6112   0042BE  0E09               	movlw	9
  6113   0042C0  5C0D               	subwf	Flash@PlaceN^0,w,c
  6114   0042C2  A0D8               	btfss	status,0,c
  6115   0042C4  EF66  F021         	goto	u3481
  6116   0042C8  EF68  F021         	goto	u3480
  6117   0042CC                     u3481:
  6118   0042CC  EF76  F021         	goto	l3962
  6119   0042D0                     u3480:
  6120   0042D0                     
  6121                           ;App_Functions.c: 137:   {;App_Functions.c: 138:       LCD_goto_xy(1, inc+7);
  6122   0042D0  0E00               	movlw	0
  6123   0042D2  6E03               	movwf	(LCD_goto_xy@x+1)^0,c
  6124   0042D4  0E01               	movlw	1
  6125   0042D6  6E02               	movwf	LCD_goto_xy@x^0,c
  6126   0042D8  0E07               	movlw	7
  6127   0042DA  240B               	addwf	Flash@inc^0,w,c
  6128   0042DC  6E04               	movwf	LCD_goto_xy@y^0,c
  6129   0042DE  0E00               	movlw	0
  6130   0042E0  200C               	addwfc	(Flash@inc+1)^0,w,c
  6131   0042E2  6E05               	movwf	(LCD_goto_xy@y+1)^0,c
  6132   0042E4  ECAF  F01E         	call	_LCD_goto_xy	;wreg free
  6133                           
  6134                           ;App_Functions.c: 139:   }
  6135   0042E8  EF82  F021         	goto	l581
  6136   0042EC                     l3962:
  6137                           
  6138                           ;App_Functions.c: 141:   {;App_Functions.c: 142:       LCD_goto_xy(0, inc+7);
  6139   0042EC  0E00               	movlw	0
  6140   0042EE  6E03               	movwf	(LCD_goto_xy@x+1)^0,c
  6141   0042F0  0E00               	movlw	0
  6142   0042F2  6E02               	movwf	LCD_goto_xy@x^0,c
  6143   0042F4  0E07               	movlw	7
  6144   0042F6  240B               	addwf	Flash@inc^0,w,c
  6145   0042F8  6E04               	movwf	LCD_goto_xy@y^0,c
  6146   0042FA  0E00               	movlw	0
  6147   0042FC  200C               	addwfc	(Flash@inc+1)^0,w,c
  6148   0042FE  6E05               	movwf	(LCD_goto_xy@y+1)^0,c
  6149   004300  ECAF  F01E         	call	_LCD_goto_xy	;wreg free
  6150   004304                     l581:
  6151                           
  6152                           ;App_Functions.c: 145:   LCD_write(' ');
  6153   004304  0E20               	movlw	32
  6154   004306  EC29  F022         	call	_LCD_write
  6155   00430A                     
  6156                           ;App_Functions.c: 146:   _delay((unsigned long)((50)*(8000000UL/4000.0)));
  6157   00430A  0E82               	movlw	130
  6158   00430C  6E0F               	movwf	??_Flash^0,c
  6159   00430E  0EDE               	movlw	222
  6160   004310                     u5357:
  6161   004310  2EE8               	decfsz	wreg,f,c
  6162   004312  D7FE               	bra	u5357
  6163   004314  2E0F               	decfsz	??_Flash^0,f,c
  6164   004316  D7FC               	bra	u5357
  6165   004318  0012               	return		;funcret
  6166   00431A                     __end_of_Flash:
  6167                           	callstack 0
  6168                           
  6169 ;; *************** function _Screen_Date_Time *****************
  6170 ;; Defined at:
  6171 ;;		line 10 in file "LCD_Screens.c"
  6172 ;; Parameters:    Size  Location     Type
  6173 ;;		None
  6174 ;; Auto vars:     Size  Location     Type
  6175 ;;		None
  6176 ;; Return value:  Size  Location     Type
  6177 ;;                  1    wreg      void 
  6178 ;; Registers used:
  6179 ;;		wreg, fsr1l, fsr1h, fsr2l, fsr2h, status,2, status,0, tblptrl, tblptrh, tblptru, prodl, prodh, cstack
  6180 ;; Tracked objects:
  6181 ;;		On entry : 0/0
  6182 ;;		On exit  : 0/0
  6183 ;;		Unchanged: 0/0
  6184 ;; Data sizes:     COMRAM   BANK0   BANK1   BANK2   BANK3   BANK4   BANK5   BANK6   BANK7
  6185 ;;      Params:         0       0       0       0       0       0       0       0       0
  6186 ;;      Locals:         0       0       0       0       0       0       0       0       0
  6187 ;;      Temps:          1       0       0       0       0       0       0       0       0
  6188 ;;      Totals:         1       0       0       0       0       0       0       0       0
  6189 ;;Total ram usage:        1 bytes
  6190 ;; Hardware stack levels used: 1
  6191 ;; Hardware stack levels required when called: 9
  6192 ;; This function calls:
  6193 ;;		_LCD_goto_xy
  6194 ;;		_LCD_write_string
  6195 ;;		_RTC_Get_Date
  6196 ;;		_RTC_Get_Time
  6197 ;;		_sprintf
  6198 ;; This function is called by:
  6199 ;;		_main
  6200 ;; This function uses a non-reentrant model
  6201 ;;
  6202                           
  6203                           	psect	text12
  6204   002958                     __ptext12:
  6205                           	callstack 0
  6206   002958                     _Screen_Date_Time:
  6207                           	callstack 21
  6208   002958                     
  6209                           ;LCD_Screens.c: 12:     RTC_Get_Time(RTC);
  6210   002958  0EB2               	movlw	low _rtc
  6211   00295A  6E04               	movwf	RTC_Get_Time@RTC^0,c
  6212   00295C  0E00               	movlw	high _rtc
  6213   00295E  6E05               	movwf	(RTC_Get_Time@RTC+1)^0,c
  6214   002960  ECB6  F021         	call	_RTC_Get_Time	;wreg free
  6215                           
  6216                           ;LCD_Screens.c: 13:     RTC_Get_Date(RTC);
  6217   002964  0EB2               	movlw	low _rtc
  6218   002966  6E04               	movwf	RTC_Get_Date@RTC^0,c
  6219   002968  0E00               	movlw	high _rtc
  6220   00296A  6E05               	movwf	(RTC_Get_Date@RTC+1)^0,c
  6221   00296C  EC26  F021         	call	_RTC_Get_Date	;wreg free
  6222   002970                     
  6223                           ;LCD_Screens.c: 15:     RTC->sec = ((RTC->sec & 0x0F) + (((RTC->sec>>4) & (0x0F)) * 10))
      +                          ;
  6224   002970  C0B2  F05B         	movff	_rtc,??_Screen_Date_Time
  6225   002974  0E0F               	movlw	15
  6226   002976  165B               	andwf	??_Screen_Date_Time^0,f,c
  6227   002978  0100               	movlb	0	; () banked
  6228   00297A  39B2               	swapf	_rtc& (0+255),w,b
  6229   00297C  0B0F               	andlw	15
  6230   00297E  0B0F               	andlw	15
  6231   002980  0D0A               	mullw	10
  6232   002982  50F3               	movf	243,w,c
  6233   002984  245B               	addwf	??_Screen_Date_Time^0,w,c
  6234   002986  6FB2               	movwf	_rtc& (0+255),b
  6235   002988                     
  6236                           ; BSR set to: 0
  6237                           ;LCD_Screens.c: 16:     RTC->min = ((RTC->min & 0x0F) + (((RTC->min>>4) & (0x0F)) * 10))
      +                          ;
  6238   002988  C0B3  F05B         	movff	_rtc+1,??_Screen_Date_Time
  6239   00298C  0E0F               	movlw	15
  6240   00298E  165B               	andwf	??_Screen_Date_Time^0,f,c
  6241   002990  39B3               	swapf	(_rtc+1)& (0+255),w,b
  6242   002992  0B0F               	andlw	15
  6243   002994  0B0F               	andlw	15
  6244   002996  0D0A               	mullw	10
  6245   002998  50F3               	movf	243,w,c
  6246   00299A  245B               	addwf	??_Screen_Date_Time^0,w,c
  6247   00299C  6FB3               	movwf	(_rtc+1)& (0+255),b
  6248   00299E                     
  6249                           ; BSR set to: 0
  6250                           ;LCD_Screens.c: 17:     RTC->hour = ((RTC->hour & 0x0F) + (((RTC->hour>>4) & (0x0F)) * 1
      +                          0));
  6251   00299E  C0B4  F05B         	movff	_rtc+2,??_Screen_Date_Time
  6252   0029A2  0E0F               	movlw	15
  6253   0029A4  165B               	andwf	??_Screen_Date_Time^0,f,c
  6254   0029A6  39B4               	swapf	(_rtc+2)& (0+255),w,b
  6255   0029A8  0B0F               	andlw	15
  6256   0029AA  0B0F               	andlw	15
  6257   0029AC  0D0A               	mullw	10
  6258   0029AE  50F3               	movf	243,w,c
  6259   0029B0  245B               	addwf	??_Screen_Date_Time^0,w,c
  6260   0029B2  6FB4               	movwf	(_rtc+2)& (0+255),b
  6261   0029B4                     
  6262                           ; BSR set to: 0
  6263                           ;LCD_Screens.c: 22:     if(RTC->sec < 10) sprintf(secs, "0%d ", RTC->sec);
  6264   0029B4  0E0A               	movlw	10
  6265   0029B6  61B2               	cpfslt	_rtc& (0+255),b
  6266   0029B8  EFE0  F014         	goto	u4741
  6267   0029BC  EFE2  F014         	goto	u4740
  6268   0029C0                     u4741:
  6269   0029C0  EFF1  F014         	goto	l4696
  6270   0029C4                     u4740:
  6271   0029C4                     
  6272                           ; BSR set to: 0
  6273   0029C4  0EA8               	movlw	low _secs
  6274   0029C6  6FDF               	movwf	sprintf@s& (0+255),b
  6275   0029C8  0E00               	movlw	high _secs
  6276   0029CA  6FE0               	movwf	(sprintf@s+1)& (0+255),b
  6277   0029CC  0E46               	movlw	low STR_1
  6278   0029CE  6FE1               	movwf	sprintf@fmt& (0+255),b
  6279   0029D0  0E08               	movlw	high STR_1
  6280   0029D2  6FE2               	movwf	(sprintf@fmt+1)& (0+255),b
  6281   0029D4  C0B2  F0E3         	movff	_rtc,?_sprintf+4
  6282   0029D8  6BE4               	clrf	(?_sprintf+5)& (0+255),b
  6283   0029DA  EC8D  F021         	call	_sprintf	;wreg free
  6284   0029DE  EFFE  F014         	goto	l4698
  6285   0029E2                     l4696:
  6286                           
  6287                           ; BSR set to: 0
  6288   0029E2  0EA8               	movlw	low _secs
  6289   0029E4  6FDF               	movwf	sprintf@s& (0+255),b
  6290   0029E6  0E00               	movlw	high _secs
  6291   0029E8  6FE0               	movwf	(sprintf@s+1)& (0+255),b
  6292   0029EA  0E47               	movlw	low (STR_1+1)
  6293   0029EC  6FE1               	movwf	sprintf@fmt& (0+255),b
  6294   0029EE  0E08               	movlw	high (STR_1+1)
  6295   0029F0  6FE2               	movwf	(sprintf@fmt+1)& (0+255),b
  6296   0029F2  C0B2  F0E3         	movff	_rtc,?_sprintf+4
  6297   0029F6  6BE4               	clrf	(?_sprintf+5)& (0+255),b
  6298   0029F8  EC8D  F021         	call	_sprintf	;wreg free
  6299   0029FC                     l4698:
  6300                           
  6301                           ;LCD_Screens.c: 25:     if(RTC->min < 10) sprintf(mins, "0%d:", RTC->min);
  6302   0029FC  0E0A               	movlw	10
  6303   0029FE  0100               	movlb	0	; () banked
  6304   002A00  61B3               	cpfslt	(_rtc+1)& (0+255),b
  6305   002A02  EF05  F015         	goto	u4751
  6306   002A06  EF07  F015         	goto	u4750
  6307   002A0A                     u4751:
  6308   002A0A  EF16  F015         	goto	l4702
  6309   002A0E                     u4750:
  6310   002A0E                     
  6311                           ; BSR set to: 0
  6312   002A0E  0E9E               	movlw	low _mins
  6313   002A10  6FDF               	movwf	sprintf@s& (0+255),b
  6314   002A12  0E00               	movlw	high _mins
  6315   002A14  6FE0               	movwf	(sprintf@s+1)& (0+255),b
  6316   002A16  0E12               	movlw	low (STR_5+6)
  6317   002A18  6FE1               	movwf	sprintf@fmt& (0+255),b
  6318   002A1A  0E08               	movlw	high (STR_5+6)
  6319   002A1C  6FE2               	movwf	(sprintf@fmt+1)& (0+255),b
  6320   002A1E  C0B3  F0E3         	movff	_rtc+1,?_sprintf+4
  6321   002A22  6BE4               	clrf	(?_sprintf+5)& (0+255),b
  6322   002A24  EC8D  F021         	call	_sprintf	;wreg free
  6323   002A28  EF23  F015         	goto	l4704
  6324   002A2C                     l4702:
  6325                           
  6326                           ; BSR set to: 0
  6327   002A2C  0E9E               	movlw	low _mins
  6328   002A2E  6FDF               	movwf	sprintf@s& (0+255),b
  6329   002A30  0E00               	movlw	high _mins
  6330   002A32  6FE0               	movwf	(sprintf@s+1)& (0+255),b
  6331   002A34  0E27               	movlw	low (STR_6+6)
  6332   002A36  6FE1               	movwf	sprintf@fmt& (0+255),b
  6333   002A38  0E08               	movlw	high (STR_6+6)
  6334   002A3A  6FE2               	movwf	(sprintf@fmt+1)& (0+255),b
  6335   002A3C  C0B3  F0E3         	movff	_rtc+1,?_sprintf+4
  6336   002A40  6BE4               	clrf	(?_sprintf+5)& (0+255),b
  6337   002A42  EC8D  F021         	call	_sprintf	;wreg free
  6338   002A46                     l4704:
  6339                           
  6340                           ;LCD_Screens.c: 28:     if(RTC->hour < 10) sprintf(hours, "Time: 0%d:", RTC->hour);
  6341   002A46  0E0A               	movlw	10
  6342   002A48  0100               	movlb	0	; () banked
  6343   002A4A  61B4               	cpfslt	(_rtc+2)& (0+255),b
  6344   002A4C  EF2A  F015         	goto	u4761
  6345   002A50  EF2C  F015         	goto	u4760
  6346   002A54                     u4761:
  6347   002A54  EF3B  F015         	goto	l4708
  6348   002A58                     u4760:
  6349   002A58                     
  6350                           ; BSR set to: 0
  6351   002A58  0E3E               	movlw	low _hours
  6352   002A5A  6FDF               	movwf	sprintf@s& (0+255),b
  6353   002A5C  0E01               	movlw	high _hours
  6354   002A5E  6FE0               	movwf	(sprintf@s+1)& (0+255),b
  6355   002A60  0E0C               	movlw	low STR_5
  6356   002A62  6FE1               	movwf	sprintf@fmt& (0+255),b
  6357   002A64  0E08               	movlw	high STR_5
  6358   002A66  6FE2               	movwf	(sprintf@fmt+1)& (0+255),b
  6359   002A68  C0B4  F0E3         	movff	_rtc+2,?_sprintf+4
  6360   002A6C  6BE4               	clrf	(?_sprintf+5)& (0+255),b
  6361   002A6E  EC8D  F021         	call	_sprintf	;wreg free
  6362   002A72  EF48  F015         	goto	l4710
  6363   002A76                     l4708:
  6364                           
  6365                           ; BSR set to: 0
  6366   002A76  0E3E               	movlw	low _hours
  6367   002A78  6FDF               	movwf	sprintf@s& (0+255),b
  6368   002A7A  0E01               	movlw	high _hours
  6369   002A7C  6FE0               	movwf	(sprintf@s+1)& (0+255),b
  6370   002A7E  0E21               	movlw	low STR_6
  6371   002A80  6FE1               	movwf	sprintf@fmt& (0+255),b
  6372   002A82  0E08               	movlw	high STR_6
  6373   002A84  6FE2               	movwf	(sprintf@fmt+1)& (0+255),b
  6374   002A86  C0B4  F0E3         	movff	_rtc+2,?_sprintf+4
  6375   002A8A  6BE4               	clrf	(?_sprintf+5)& (0+255),b
  6376   002A8C  EC8D  F021         	call	_sprintf	;wreg free
  6377   002A90                     l4710:
  6378                           
  6379                           ;LCD_Screens.c: 32:     LCD_goto_xy(0, 0);
  6380   002A90  0E00               	movlw	0
  6381   002A92  6E03               	movwf	(LCD_goto_xy@x+1)^0,c
  6382   002A94  0E00               	movlw	0
  6383   002A96  6E02               	movwf	LCD_goto_xy@x^0,c
  6384   002A98  0E00               	movlw	0
  6385   002A9A  6E05               	movwf	(LCD_goto_xy@y+1)^0,c
  6386   002A9C  0E00               	movlw	0
  6387   002A9E  6E04               	movwf	LCD_goto_xy@y^0,c
  6388   002AA0  ECAF  F01E         	call	_LCD_goto_xy	;wreg free
  6389   002AA4                     
  6390                           ;LCD_Screens.c: 33:     LCD_write_string(hours);
  6391   002AA4  0E3E               	movlw	low _hours
  6392   002AA6  6E03               	movwf	LCD_write_string@str^0,c
  6393   002AA8  0E01               	movlw	high _hours
  6394   002AAA  6E04               	movwf	(LCD_write_string@str+1)^0,c
  6395   002AAC  EC39  F020         	call	_LCD_write_string	;wreg free
  6396   002AB0                     
  6397                           ;LCD_Screens.c: 34:     LCD_write_string(mins);
  6398   002AB0  0E9E               	movlw	low _mins
  6399   002AB2  6E03               	movwf	LCD_write_string@str^0,c
  6400   002AB4  0E00               	movlw	high _mins
  6401   002AB6  6E04               	movwf	(LCD_write_string@str+1)^0,c
  6402   002AB8  EC39  F020         	call	_LCD_write_string	;wreg free
  6403   002ABC                     
  6404                           ;LCD_Screens.c: 35:     LCD_write_string(secs);
  6405   002ABC  0EA8               	movlw	low _secs
  6406   002ABE  6E03               	movwf	LCD_write_string@str^0,c
  6407   002AC0  0E00               	movlw	high _secs
  6408   002AC2  6E04               	movwf	(LCD_write_string@str+1)^0,c
  6409   002AC4  EC39  F020         	call	_LCD_write_string	;wreg free
  6410   002AC8                     
  6411                           ;LCD_Screens.c: 38:     if(RTC->date < 10) sprintf(date, "Date: 0%x-", RTC->date);
  6412   002AC8  0E0A               	movlw	10
  6413   002ACA  0100               	movlb	0	; () banked
  6414   002ACC  61B6               	cpfslt	(_rtc+4)& (0+255),b
  6415   002ACE  EF6B  F015         	goto	u4771
  6416   002AD2  EF6D  F015         	goto	u4770
  6417   002AD6                     u4771:
  6418   002AD6  EF7C  F015         	goto	l4722
  6419   002ADA                     u4770:
  6420   002ADA                     
  6421                           ; BSR set to: 0
  6422   002ADA  0E34               	movlw	low _date
  6423   002ADC  6FDF               	movwf	sprintf@s& (0+255),b
  6424   002ADE  0E01               	movlw	high _date
  6425   002AE0  6FE0               	movwf	(sprintf@s+1)& (0+255),b
  6426   002AE2  0E01               	movlw	low STR_7
  6427   002AE4  6FE1               	movwf	sprintf@fmt& (0+255),b
  6428   002AE6  0E08               	movlw	high STR_7
  6429   002AE8  6FE2               	movwf	(sprintf@fmt+1)& (0+255),b
  6430   002AEA  C0B6  F0E3         	movff	_rtc+4,?_sprintf+4
  6431   002AEE  6BE4               	clrf	(?_sprintf+5)& (0+255),b
  6432   002AF0  EC8D  F021         	call	_sprintf	;wreg free
  6433   002AF4  EF89  F015         	goto	l4724
  6434   002AF8                     l4722:
  6435                           
  6436                           ; BSR set to: 0
  6437   002AF8  0E34               	movlw	low _date
  6438   002AFA  6FDF               	movwf	sprintf@s& (0+255),b
  6439   002AFC  0E01               	movlw	high _date
  6440   002AFE  6FE0               	movwf	(sprintf@s+1)& (0+255),b
  6441   002B00  0E17               	movlw	low STR_8
  6442   002B02  6FE1               	movwf	sprintf@fmt& (0+255),b
  6443   002B04  0E08               	movlw	high STR_8
  6444   002B06  6FE2               	movwf	(sprintf@fmt+1)& (0+255),b
  6445   002B08  C0B6  F0E3         	movff	_rtc+4,?_sprintf+4
  6446   002B0C  6BE4               	clrf	(?_sprintf+5)& (0+255),b
  6447   002B0E  EC8D  F021         	call	_sprintf	;wreg free
  6448   002B12                     l4724:
  6449                           
  6450                           ;LCD_Screens.c: 41:     if(RTC->month < 10) sprintf(month, "0%x-", RTC->month);
  6451   002B12  0E0A               	movlw	10
  6452   002B14  0100               	movlb	0	; () banked
  6453   002B16  61B7               	cpfslt	(_rtc+5)& (0+255),b
  6454   002B18  EF90  F015         	goto	u4781
  6455   002B1C  EF92  F015         	goto	u4780
  6456   002B20                     u4781:
  6457   002B20  EFA1  F015         	goto	l4728
  6458   002B24                     u4780:
  6459   002B24                     
  6460                           ; BSR set to: 0
  6461   002B24  0E2A               	movlw	low _month
  6462   002B26  6FDF               	movwf	sprintf@s& (0+255),b
  6463   002B28  0E01               	movlw	high _month
  6464   002B2A  6FE0               	movwf	(sprintf@s+1)& (0+255),b
  6465   002B2C  0E07               	movlw	low (STR_7+6)
  6466   002B2E  6FE1               	movwf	sprintf@fmt& (0+255),b
  6467   002B30  0E08               	movlw	high (STR_7+6)
  6468   002B32  6FE2               	movwf	(sprintf@fmt+1)& (0+255),b
  6469   002B34  C0B7  F0E3         	movff	_rtc+5,?_sprintf+4
  6470   002B38  6BE4               	clrf	(?_sprintf+5)& (0+255),b
  6471   002B3A  EC8D  F021         	call	_sprintf	;wreg free
  6472   002B3E  EFAE  F015         	goto	l123
  6473   002B42                     l4728:
  6474                           
  6475                           ; BSR set to: 0
  6476   002B42  0E2A               	movlw	low _month
  6477   002B44  6FDF               	movwf	sprintf@s& (0+255),b
  6478   002B46  0E01               	movlw	high _month
  6479   002B48  6FE0               	movwf	(sprintf@s+1)& (0+255),b
  6480   002B4A  0E1D               	movlw	low (STR_8+6)
  6481   002B4C  6FE1               	movwf	sprintf@fmt& (0+255),b
  6482   002B4E  0E08               	movlw	high (STR_8+6)
  6483   002B50  6FE2               	movwf	(sprintf@fmt+1)& (0+255),b
  6484   002B52  C0B7  F0E3         	movff	_rtc+5,?_sprintf+4
  6485   002B56  6BE4               	clrf	(?_sprintf+5)& (0+255),b
  6486   002B58  EC8D  F021         	call	_sprintf	;wreg free
  6487   002B5C                     l123:
  6488                           
  6489                           ;LCD_Screens.c: 44:     sprintf(year, "%x ", RTC->year);
  6490   002B5C  0E20               	movlw	low _year
  6491   002B5E  0100               	movlb	0	; () banked
  6492   002B60  6FDF               	movwf	sprintf@s& (0+255),b
  6493   002B62  0E01               	movlw	high _year
  6494   002B64  6FE0               	movwf	(sprintf@s+1)& (0+255),b
  6495   002B66  0E4B               	movlw	low STR_11
  6496   002B68  6FE1               	movwf	sprintf@fmt& (0+255),b
  6497   002B6A  0E08               	movlw	high STR_11
  6498   002B6C  6FE2               	movwf	(sprintf@fmt+1)& (0+255),b
  6499   002B6E  C0B8  F0E3         	movff	_rtc+6,?_sprintf+4
  6500   002B72  6BE4               	clrf	(?_sprintf+5)& (0+255),b
  6501   002B74  EC8D  F021         	call	_sprintf	;wreg free
  6502   002B78                     
  6503                           ;LCD_Screens.c: 47:     LCD_goto_xy(1, 0);
  6504   002B78  0E00               	movlw	0
  6505   002B7A  6E03               	movwf	(LCD_goto_xy@x+1)^0,c
  6506   002B7C  0E01               	movlw	1
  6507   002B7E  6E02               	movwf	LCD_goto_xy@x^0,c
  6508   002B80  0E00               	movlw	0
  6509   002B82  6E05               	movwf	(LCD_goto_xy@y+1)^0,c
  6510   002B84  0E00               	movlw	0
  6511   002B86  6E04               	movwf	LCD_goto_xy@y^0,c
  6512   002B88  ECAF  F01E         	call	_LCD_goto_xy	;wreg free
  6513   002B8C                     
  6514                           ;LCD_Screens.c: 48:     LCD_write_string(date);
  6515   002B8C  0E34               	movlw	low _date
  6516   002B8E  6E03               	movwf	LCD_write_string@str^0,c
  6517   002B90  0E01               	movlw	high _date
  6518   002B92  6E04               	movwf	(LCD_write_string@str+1)^0,c
  6519   002B94  EC39  F020         	call	_LCD_write_string	;wreg free
  6520   002B98                     
  6521                           ;LCD_Screens.c: 49:     LCD_write_string(month);
  6522   002B98  0E2A               	movlw	low _month
  6523   002B9A  6E03               	movwf	LCD_write_string@str^0,c
  6524   002B9C  0E01               	movlw	high _month
  6525   002B9E  6E04               	movwf	(LCD_write_string@str+1)^0,c
  6526   002BA0  EC39  F020         	call	_LCD_write_string	;wreg free
  6527   002BA4                     
  6528                           ;LCD_Screens.c: 50:     LCD_write_string(year);
  6529   002BA4  0E20               	movlw	low _year
  6530   002BA6  6E03               	movwf	LCD_write_string@str^0,c
  6531   002BA8  0E01               	movlw	high _year
  6532   002BAA  6E04               	movwf	(LCD_write_string@str+1)^0,c
  6533   002BAC  EC39  F020         	call	_LCD_write_string	;wreg free
  6534   002BB0  0012               	return		;funcret
  6535   002BB2                     __end_of_Screen_Date_Time:
  6536                           	callstack 0
  6537                           
  6538 ;; *************** function _sprintf *****************
  6539 ;; Defined at:
  6540 ;;		line 9 in file "C:\Program Files\Microchip\xc8\v2.40\pic\sources\c99\common\nf_sprintf.c"
  6541 ;; Parameters:    Size  Location     Type
  6542 ;;  s               2    0[BANK0 ] PTR unsigned char 
  6543 ;;		 -> year(10), month(10), date(10), hours(10), 
  6544 ;;		 -> mins(10), secs(10), 
  6545 ;;  fmt             2    2[BANK0 ] PTR const unsigned char 
  6546 ;;		 -> STR_11(4), STR_10(4), STR_9(5), STR_8(10), 
  6547 ;;		 -> STR_7(11), STR_6(10), STR_5(11), STR_4(4), 
  6548 ;;		 -> STR_3(5), STR_2(4), STR_1(5), 
  6549 ;; Auto vars:     Size  Location     Type
  6550 ;;  f              11    8[BANK0 ] struct _IO_FILE
  6551 ;;  ap              2    6[BANK0 ] PTR void [1]
  6552 ;;		 -> ?_sprintf(2), 
  6553 ;;  ret             2    0        int 
  6554 ;; Return value:  Size  Location     Type
  6555 ;;                  2    0[BANK0 ] int 
  6556 ;; Registers used:
  6557 ;;		wreg, fsr1l, fsr1h, fsr2l, fsr2h, status,2, status,0, tblptrl, tblptrh, tblptru, cstack
  6558 ;; Tracked objects:
  6559 ;;		On entry : 0/0
  6560 ;;		On exit  : 0/0
  6561 ;;		Unchanged: 0/0
  6562 ;; Data sizes:     COMRAM   BANK0   BANK1   BANK2   BANK3   BANK4   BANK5   BANK6   BANK7
  6563 ;;      Params:         0       6       0       0       0       0       0       0       0
  6564 ;;      Locals:         0      13       0       0       0       0       0       0       0
  6565 ;;      Temps:          0       0       0       0       0       0       0       0       0
  6566 ;;      Totals:         0      19       0       0       0       0       0       0       0
  6567 ;;Total ram usage:       19 bytes
  6568 ;; Hardware stack levels used: 1
  6569 ;; Hardware stack levels required when called: 8
  6570 ;; This function calls:
  6571 ;;		_vfprintf
  6572 ;; This function is called by:
  6573 ;;		_Screen_Date_Time
  6574 ;; This function uses a non-reentrant model
  6575 ;;
  6576                           
  6577                           	psect	text13
  6578   00431A                     __ptext13:
  6579                           	callstack 0
  6580   00431A                     _sprintf:
  6581                           	callstack 21
  6582   00431A  0EE3               	movlw	low (?_sprintf+4)
  6583   00431C  0100               	movlb	0	; () banked
  6584   00431E  6FE5               	movwf	sprintf@ap& (0+255),b
  6585   004320  0E00               	movlw	high (?_sprintf+4)
  6586   004322  6FE6               	movwf	(sprintf@ap+1)& (0+255),b
  6587   004324  C0DF  F0E7         	movff	sprintf@s,sprintf@f
  6588   004328  C0E0  F0E8         	movff	sprintf@s+1,sprintf@f+1
  6589   00432C                     
  6590                           ; BSR set to: 0
  6591   00432C  0E00               	movlw	0
  6592   00432E  6FEB               	movwf	(sprintf@f+4)& (0+255),b
  6593   004330  0E00               	movlw	0
  6594   004332  6FEA               	movwf	(sprintf@f+3)& (0+255),b
  6595   004334                     
  6596                           ; BSR set to: 0
  6597   004334  0E00               	movlw	0
  6598   004336  6FF1               	movwf	(sprintf@f+10)& (0+255),b
  6599   004338  0E00               	movlw	0
  6600   00433A  6FF0               	movwf	(sprintf@f+9)& (0+255),b
  6601   00433C                     
  6602                           ; BSR set to: 0
  6603   00433C  0EE7               	movlw	low sprintf@f
  6604   00433E  6E53               	movwf	vfprintf@fp^0,c
  6605   004340  0E00               	movlw	high sprintf@f
  6606   004342  6E54               	movwf	(vfprintf@fp+1)^0,c
  6607   004344  C0E1  F055         	movff	sprintf@fmt,vfprintf@fmt
  6608   004348  C0E2  F056         	movff	sprintf@fmt+1,vfprintf@fmt+1
  6609   00434C  0EE5               	movlw	low sprintf@ap
  6610   00434E  6E57               	movwf	vfprintf@ap^0,c
  6611   004350  0E00               	movlw	high sprintf@ap
  6612   004352  6E58               	movwf	(vfprintf@ap+1)^0,c
  6613   004354  ECDE  F021         	call	_vfprintf	;wreg free
  6614   004358  0100               	movlb	0	; () banked
  6615   00435A  51EA               	movf	(sprintf@f+3)& (0+255),w,b
  6616   00435C  25DF               	addwf	sprintf@s& (0+255),w,b
  6617   00435E  6ED9               	movwf	fsr2l,c
  6618   004360  51EB               	movf	(sprintf@f+4)& (0+255),w,b
  6619   004362  21E0               	addwfc	(sprintf@s+1)& (0+255),w,b
  6620   004364  6EDA               	movwf	fsr2h,c
  6621   004366  0E00               	movlw	0
  6622   004368  6EDF               	movwf	indf2,c
  6623   00436A                     
  6624                           ; BSR set to: 0
  6625   00436A  0012               	return		;funcret
  6626   00436C                     __end_of_sprintf:
  6627                           	callstack 0
  6628                           
  6629 ;; *************** function _vfprintf *****************
  6630 ;; Defined at:
  6631 ;;		line 1520 in file "C:\Program Files\Microchip\xc8\v2.40\pic\sources\c99\common\doprnt.c"
  6632 ;; Parameters:    Size  Location     Type
  6633 ;;  fp              2   82[COMRAM] PTR struct _IO_FILE
  6634 ;;		 -> sprintf@f(11), 
  6635 ;;  fmt             2   84[COMRAM] PTR const unsigned char 
  6636 ;;		 -> STR_11(4), STR_10(4), STR_9(5), STR_8(10), 
  6637 ;;		 -> STR_7(11), STR_6(10), STR_5(11), STR_4(4), 
  6638 ;;		 -> STR_3(5), STR_2(4), STR_1(5), 
  6639 ;;  ap              2   86[COMRAM] PTR PTR void 
  6640 ;;		 -> sprintf@ap(2), 
  6641 ;; Auto vars:     Size  Location     Type
  6642 ;;  cfmt            2   88[COMRAM] PTR unsigned char 
  6643 ;;		 -> STR_11(4), STR_10(4), STR_9(5), STR_8(10), 
  6644 ;;		 -> STR_7(11), STR_6(10), STR_5(11), STR_4(4), 
  6645 ;;		 -> STR_3(5), STR_2(4), STR_1(5), 
  6646 ;; Return value:  Size  Location     Type
  6647 ;;                  2   82[COMRAM] int 
  6648 ;; Registers used:
  6649 ;;		wreg, fsr1l, fsr1h, fsr2l, fsr2h, status,2, status,0, tblptrl, tblptrh, tblptru, cstack
  6650 ;; Tracked objects:
  6651 ;;		On entry : 0/0
  6652 ;;		On exit  : 0/0
  6653 ;;		Unchanged: 0/0
  6654 ;; Data sizes:     COMRAM   BANK0   BANK1   BANK2   BANK3   BANK4   BANK5   BANK6   BANK7
  6655 ;;      Params:         6       0       0       0       0       0       0       0       0
  6656 ;;      Locals:         2       0       0       0       0       0       0       0       0
  6657 ;;      Temps:          0       0       0       0       0       0       0       0       0
  6658 ;;      Totals:         8       0       0       0       0       0       0       0       0
  6659 ;;Total ram usage:        8 bytes
  6660 ;; Hardware stack levels used: 1
  6661 ;; Hardware stack levels required when called: 7
  6662 ;; This function calls:
  6663 ;;		_vfpfcnvrt
  6664 ;; This function is called by:
  6665 ;;		_sprintf
  6666 ;; This function uses a non-reentrant model
  6667 ;;
  6668                           
  6669                           	psect	text14
  6670   0043BC                     __ptext14:
  6671                           	callstack 0
  6672   0043BC                     _vfprintf:
  6673                           	callstack 21
  6674   0043BC                     
  6675                           ;C:\Program Files\Microchip\xc8\v2.40\pic\sources\c99\common\doprnt.c: 1520: int vfprint
      +                          f(FILE *fp, const char *fmt, va_list ap);C:\Program Files\Microchip\xc8\v2.40\pic\source
      +                          s\c99\common\doprnt.c: 1521: {;C:\Program Files\Microchip\xc8\v2.40\pic\sources\c99\comm
      +                          on\doprnt.c: 1523:     char *cfmt;;C:\Program Files\Microchip\xc8\v2.40\pic\sources\c99\
      +                          common\doprnt.c: 1525:     cfmt = (char *)fmt;
  6676   0043BC  C055  F059         	movff	vfprintf@fmt,vfprintf@cfmt
  6677   0043C0  C056  F05A         	movff	vfprintf@fmt+1,vfprintf@cfmt+1
  6678                           
  6679                           ;C:\Program Files\Microchip\xc8\v2.40\pic\sources\c99\common\doprnt.c: 1529:     while (
      +                          *cfmt) {
  6680   0043C4  EFF2  F021         	goto	l3840
  6681   0043C8                     l3838:
  6682                           
  6683                           ;C:\Program Files\Microchip\xc8\v2.40\pic\sources\c99\common\doprnt.c: 1533:    vfpfcnvr
      +                          t(fp, &cfmt, ap);
  6684   0043C8  C053  F03F         	movff	vfprintf@fp,vfpfcnvrt@fp
  6685   0043CC  C054  F040         	movff	vfprintf@fp+1,vfpfcnvrt@fp+1
  6686   0043D0  0E59               	movlw	low vfprintf@cfmt
  6687   0043D2  6E41               	movwf	vfpfcnvrt@fmt^0,c
  6688   0043D4  0E00               	movlw	high vfprintf@cfmt
  6689   0043D6  6E42               	movwf	(vfpfcnvrt@fmt+1)^0,c
  6690   0043D8  C057  F043         	movff	vfprintf@ap,vfpfcnvrt@ap
  6691   0043DC  C058  F044         	movff	vfprintf@ap+1,vfpfcnvrt@ap+1
  6692   0043E0  ECF9  F016         	call	_vfpfcnvrt	;wreg free
  6693   0043E4                     l3840:
  6694                           
  6695                           ;C:\Program Files\Microchip\xc8\v2.40\pic\sources\c99\common\doprnt.c: 1529:     while (
      +                          *cfmt) {
  6696   0043E4  C059  FFF6         	movff	vfprintf@cfmt,tblptrl
  6697   0043E8  C05A  FFF7         	movff	vfprintf@cfmt+1,tblptrh
  6698   0043EC                     	if	0	;tblptru may be non-zero
  6699   0043EC                     	endif
  6700   0043EC                     	if	0	;tblptru may be non-zero
  6701   0043EC                     	endif
  6702   0043EC  0008               	tblrd		*
  6703   0043EE  50F5               	movf	tablat,w,c
  6704   0043F0  0900               	iorlw	0
  6705   0043F2  A4D8               	btfss	status,2,c
  6706   0043F4  EFFE  F021         	goto	u3251
  6707   0043F8  EF00  F022         	goto	u3250
  6708   0043FC                     u3251:
  6709   0043FC  EFE4  F021         	goto	l3838
  6710   004400                     u3250:
  6711   004400                     
  6712                           ;C:\Program Files\Microchip\xc8\v2.40\pic\sources\c99\common\doprnt.c: 1538:  return 0;
  6713   004400  0E00               	movlw	0
  6714   004402  6E54               	movwf	(?_vfprintf+1)^0,c
  6715   004404  0E00               	movlw	0
  6716   004406  6E53               	movwf	?_vfprintf^0,c
  6717   004408  0012               	return		;funcret
  6718   00440A                     __end_of_vfprintf:
  6719                           	callstack 0
  6720                           
  6721 ;; *************** function _vfpfcnvrt *****************
  6722 ;; Defined at:
  6723 ;;		line 1007 in file "C:\Program Files\Microchip\xc8\v2.40\pic\sources\c99\common\doprnt.c"
  6724 ;; Parameters:    Size  Location     Type
  6725 ;;  fp              2   62[COMRAM] PTR struct _IO_FILE
  6726 ;;		 -> sprintf@f(11), 
  6727 ;;  fmt             2   64[COMRAM] PTR PTR unsigned char 
  6728 ;;		 -> vfprintf@cfmt(2), 
  6729 ;;  ap              2   66[COMRAM] PTR PTR void 
  6730 ;;		 -> sprintf@ap(2), 
  6731 ;; Auto vars:     Size  Location     Type
  6732 ;;  convarg         8   72[COMRAM] struct .
  6733 ;;  cp              2   80[COMRAM] PTR unsigned char 
  6734 ;;		 -> STR_11(4), STR_10(4), STR_9(5), STR_8(10), 
  6735 ;;		 -> STR_7(11), STR_6(10), STR_5(11), STR_4(4), 
  6736 ;;		 -> STR_3(5), STR_2(4), STR_1(5), 
  6737 ;;  i               2    0        int 
  6738 ;;  done            2    0        int 
  6739 ;;  c               1    0        unsigned char 
  6740 ;; Return value:  Size  Location     Type
  6741 ;;                  1    wreg      void 
  6742 ;; Registers used:
  6743 ;;		wreg, fsr1l, fsr1h, fsr2l, fsr2h, status,2, status,0, tblptrl, tblptrh, tblptru, cstack
  6744 ;; Tracked objects:
  6745 ;;		On entry : 0/0
  6746 ;;		On exit  : 0/0
  6747 ;;		Unchanged: 0/0
  6748 ;; Data sizes:     COMRAM   BANK0   BANK1   BANK2   BANK3   BANK4   BANK5   BANK6   BANK7
  6749 ;;      Params:         6       0       0       0       0       0       0       0       0
  6750 ;;      Locals:        10       0       0       0       0       0       0       0       0
  6751 ;;      Temps:          4       0       0       0       0       0       0       0       0
  6752 ;;      Totals:        20       0       0       0       0       0       0       0       0
  6753 ;;Total ram usage:       20 bytes
  6754 ;; Hardware stack levels used: 1
  6755 ;; Hardware stack levels required when called: 6
  6756 ;; This function calls:
  6757 ;;		_dtoa
  6758 ;;		_fputc
  6759 ;;		_xtoa
  6760 ;; This function is called by:
  6761 ;;		_vfprintf
  6762 ;; This function uses a non-reentrant model
  6763 ;;
  6764                           
  6765                           	psect	text15
  6766   002DF2                     __ptext15:
  6767                           	callstack 0
  6768   002DF2                     _vfpfcnvrt:
  6769                           	callstack 21
  6770   002DF2                     
  6771                           ;C:\Program Files\Microchip\xc8\v2.40\pic\sources\c99\common\doprnt.c: 1007: vfpfcnvrt(F
      +                          ILE *fp, char *fmt[], va_list ap);C:\Program Files\Microchip\xc8\v2.40\pic\sources\c99\c
      +                          ommon\doprnt.c: 1008: {;C:\Program Files\Microchip\xc8\v2.40\pic\sources\c99\common\dopr
      +                          nt.c: 1009:     char c, *cp;;C:\Program Files\Microchip\xc8\v2.40\pic\sources\c99\common
      +                          \doprnt.c: 1010:     int done, i;;C:\Program Files\Microchip\xc8\v2.40\pic\sources\c99\c
      +                          ommon\doprnt.c: 1016:  } convarg;;C:\Program Files\Microchip\xc8\v2.40\pic\sources\c99\c
      +                          ommon\doprnt.c: 1019:     if ((*fmt)[0] == '%') {
  6772   002DF2  C041  FFD9         	movff	vfpfcnvrt@fmt,fsr2l
  6773   002DF6  C042  FFDA         	movff	vfpfcnvrt@fmt+1,fsr2h
  6774   002DFA  CFDE FFF6          	movff	postinc2,tblptrl
  6775   002DFE  CFDD FFF7          	movff	postdec2,tblptrh
  6776   002E02                     	if	0	;tblptru may be non-zero
  6777   002E02                     	endif
  6778   002E02                     	if	0	;tblptru may be non-zero
  6779   002E02                     	endif
  6780   002E02  0008               	tblrd		*
  6781   002E04  50F5               	movf	tablat,w,c
  6782   002E06  0A25               	xorlw	37
  6783   002E08  A4D8               	btfss	status,2,c
  6784   002E0A  EF09  F017         	goto	u3071
  6785   002E0E  EF0B  F017         	goto	u3070
  6786   002E12                     u3071:
  6787   002E12  EFF5  F017         	goto	l3736
  6788   002E16                     u3070:
  6789   002E16                     
  6790                           ;C:\Program Files\Microchip\xc8\v2.40\pic\sources\c99\common\doprnt.c: 1020:         ++*
      +                          fmt;
  6791   002E16  C041  FFD9         	movff	vfpfcnvrt@fmt,fsr2l
  6792   002E1A  C042  FFDA         	movff	vfpfcnvrt@fmt+1,fsr2h
  6793   002E1E  2ADE               	incf	postinc2,f,c
  6794   002E20  0E00               	movlw	0
  6795   002E22  22DD               	addwfc	postdec2,f,c
  6796   002E24                     
  6797                           ;C:\Program Files\Microchip\xc8\v2.40\pic\sources\c99\common\doprnt.c: 1022:         fla
      +                          gs = width = 0;
  6798   002E24  0E00               	movlw	0
  6799   002E26  0100               	movlb	0	; () banked
  6800   002E28  6F91               	movwf	(_width+1)& (0+255),b
  6801   002E2A  0E00               	movlw	0
  6802   002E2C  6F90               	movwf	_width& (0+255),b
  6803   002E2E  C090  F05E         	movff	_width,_flags
  6804   002E32                     
  6805                           ; BSR set to: 0
  6806                           ;C:\Program Files\Microchip\xc8\v2.40\pic\sources\c99\common\doprnt.c: 1023:         pre
      +                          c = -1;
  6807   002E32  6992               	setf	_prec& (0+255),b
  6808   002E34  6993               	setf	(_prec+1)& (0+255),b
  6809   002E36                     
  6810                           ; BSR set to: 0
  6811                           ;C:\Program Files\Microchip\xc8\v2.40\pic\sources\c99\common\doprnt.c: 1117:   cp = *fmt
      +                          ;
  6812   002E36  C041  FFD9         	movff	vfpfcnvrt@fmt,fsr2l
  6813   002E3A  C042  FFDA         	movff	vfpfcnvrt@fmt+1,fsr2h
  6814   002E3E  CFDE F051          	movff	postinc2,vfpfcnvrt@cp
  6815   002E42  CFDD F052          	movff	postdec2,vfpfcnvrt@cp+1
  6816   002E46                     
  6817                           ; BSR set to: 0
  6818                           ;C:\Program Files\Microchip\xc8\v2.40\pic\sources\c99\common\doprnt.c: 1187:   if (*cp =
      +                          = 'd' || *cp == 'i') {
  6819   002E46  C051  FFF6         	movff	vfpfcnvrt@cp,tblptrl
  6820   002E4A  C052  FFF7         	movff	vfpfcnvrt@cp+1,tblptrh
  6821   002E4E                     	if	0	;tblptru may be non-zero
  6822   002E4E                     	endif
  6823   002E4E                     	if	0	;tblptru may be non-zero
  6824   002E4E                     	endif
  6825   002E4E  0008               	tblrd		*
  6826   002E50  50F5               	movf	tablat,w,c
  6827   002E52  0A64               	xorlw	100
  6828   002E54  B4D8               	btfsc	status,2,c
  6829   002E56  EF2F  F017         	goto	u3081
  6830   002E5A  EF31  F017         	goto	u3080
  6831   002E5E                     u3081:
  6832   002E5E  EF3F  F017         	goto	l3714
  6833   002E62                     u3080:
  6834   002E62                     
  6835                           ; BSR set to: 0
  6836   002E62  C051  FFF6         	movff	vfpfcnvrt@cp,tblptrl
  6837   002E66  C052  FFF7         	movff	vfpfcnvrt@cp+1,tblptrh
  6838   002E6A                     	if	0	;tblptru may be non-zero
  6839   002E6A                     	endif
  6840   002E6A                     	if	0	;tblptru may be non-zero
  6841   002E6A                     	endif
  6842   002E6A  0008               	tblrd		*
  6843   002E6C  50F5               	movf	tablat,w,c
  6844   002E6E  0A69               	xorlw	105
  6845   002E70  A4D8               	btfss	status,2,c
  6846   002E72  EF3D  F017         	goto	u3091
  6847   002E76  EF3F  F017         	goto	u3090
  6848   002E7A                     u3091:
  6849   002E7A  EF82  F017         	goto	l3720
  6850   002E7E                     u3090:
  6851   002E7E                     l3714:
  6852                           
  6853                           ; BSR set to: 0
  6854                           ;C:\Program Files\Microchip\xc8\v2.40\pic\sources\c99\common\doprnt.c: 1230:    convarg.
      +                          ll = (long long)(int)(*(int *)__va_arg(*(int **)ap, (int)0));
  6855   002E7E  C043  FFD9         	movff	vfpfcnvrt@ap,fsr2l
  6856   002E82  C044  FFDA         	movff	vfpfcnvrt@ap+1,fsr2h
  6857   002E86  CFDF F045          	movff	indf2,??_vfpfcnvrt
  6858   002E8A  0E02               	movlw	2
  6859   002E8C  26DE               	addwf	postinc2,f,c
  6860   002E8E  CFDF F046          	movff	indf2,??_vfpfcnvrt+1
  6861   002E92  0E00               	movlw	0
  6862   002E94  22DD               	addwfc	postdec2,f,c
  6863   002E96  C045  FFD9         	movff	??_vfpfcnvrt,fsr2l
  6864   002E9A  C046  FFDA         	movff	??_vfpfcnvrt+1,fsr2h
  6865   002E9E  CFDE F049          	movff	postinc2,vfpfcnvrt@convarg
  6866   002EA2  CFDD F04A          	movff	postdec2,vfpfcnvrt@convarg+1
  6867   002EA6  0E00               	movlw	0
  6868   002EA8  BE4A               	btfsc	(vfpfcnvrt@convarg+1)^0,7,c
  6869   002EAA  0EFF               	movlw	-1
  6870   002EAC  6E4B               	movwf	(vfpfcnvrt@convarg+2)^0,c
  6871   002EAE  6E4C               	movwf	(vfpfcnvrt@convarg+3)^0,c
  6872   002EB0  6E4D               	movwf	(vfpfcnvrt@convarg+4)^0,c
  6873   002EB2  6E4E               	movwf	(vfpfcnvrt@convarg+5)^0,c
  6874   002EB4  6E4F               	movwf	(vfpfcnvrt@convarg+6)^0,c
  6875   002EB6  6E50               	movwf	(vfpfcnvrt@convarg+7)^0,c
  6876                           
  6877                           ;C:\Program Files\Microchip\xc8\v2.40\pic\sources\c99\common\doprnt.c: 1232:    *fmt = c
      +                          p+1;
  6878   002EB8  0E01               	movlw	1
  6879   002EBA  2451               	addwf	vfpfcnvrt@cp^0,w,c
  6880   002EBC  6E45               	movwf	??_vfpfcnvrt^0,c
  6881   002EBE  0E00               	movlw	0
  6882   002EC0  2052               	addwfc	(vfpfcnvrt@cp+1)^0,w,c
  6883   002EC2  6E46               	movwf	(??_vfpfcnvrt+1)^0,c
  6884   002EC4  C041  FFD9         	movff	vfpfcnvrt@fmt,fsr2l
  6885   002EC8  C042  FFDA         	movff	vfpfcnvrt@fmt+1,fsr2h
  6886   002ECC  C045  FFDE         	movff	??_vfpfcnvrt,postinc2
  6887   002ED0  C046  FFDD         	movff	??_vfpfcnvrt+1,postdec2
  6888   002ED4                     
  6889                           ; BSR set to: 0
  6890                           ;C:\Program Files\Microchip\xc8\v2.40\pic\sources\c99\common\doprnt.c: 1233:    return (
      +                          void) dtoa(fp, convarg.ll);;	Return value of _vfpfcnvrt is never used
  6891   002ED4  C03F  F01C         	movff	vfpfcnvrt@fp,dtoa@fp
  6892   002ED8  C040  F01D         	movff	vfpfcnvrt@fp+1,dtoa@fp+1
  6893   002EDC  C049  F01E         	movff	vfpfcnvrt@convarg,dtoa@d
  6894   002EE0  C04A  F01F         	movff	vfpfcnvrt@convarg+1,dtoa@d+1
  6895   002EE4  C04B  F020         	movff	vfpfcnvrt@convarg+2,dtoa@d+2
  6896   002EE8  C04C  F021         	movff	vfpfcnvrt@convarg+3,dtoa@d+3
  6897   002EEC  C04D  F022         	movff	vfpfcnvrt@convarg+4,dtoa@d+4
  6898   002EF0  C04E  F023         	movff	vfpfcnvrt@convarg+5,dtoa@d+5
  6899   002EF4  C04F  F024         	movff	vfpfcnvrt@convarg+6,dtoa@d+6
  6900   002EF8  C050  F025         	movff	vfpfcnvrt@convarg+7,dtoa@d+7
  6901   002EFC  EC6D  F013         	call	_dtoa	;wreg free
  6902   002F00  EF09  F018         	goto	l1416
  6903   002F04                     l3720:
  6904                           
  6905                           ; BSR set to: 0
  6906   002F04  C051  FFF6         	movff	vfpfcnvrt@cp,tblptrl
  6907   002F08  C052  FFF7         	movff	vfpfcnvrt@cp+1,tblptrh
  6908   002F0C                     	if	0	;tblptru may be non-zero
  6909   002F0C                     	endif
  6910   002F0C                     	if	0	;tblptru may be non-zero
  6911   002F0C                     	endif
  6912   002F0C  0008               	tblrd		*
  6913   002F0E  50F5               	movf	tablat,w,c
  6914   002F10  0A78               	xorlw	120
  6915   002F12  A4D8               	btfss	status,2,c
  6916   002F14  EF8E  F017         	goto	u3101
  6917   002F18  EF90  F017         	goto	u3100
  6918   002F1C                     u3101:
  6919   002F1C  EFEC  F017         	goto	l3732
  6920   002F20                     u3100:
  6921   002F20                     
  6922                           ; BSR set to: 0
  6923                           ;C:\Program Files\Microchip\xc8\v2.40\pic\sources\c99\common\doprnt.c: 1252:     ) {;C:\
      +                          Program Files\Microchip\xc8\v2.40\pic\sources\c99\common\doprnt.c: 1295:    convarg.llu 
      +                          = (unsigned long long)(unsigned int)(*(unsigned int *)__va_arg(*(unsigned int **)ap, (un
      +                          signed int)0));
  6924   002F20  C043  FFD9         	movff	vfpfcnvrt@ap,fsr2l
  6925   002F24  C044  FFDA         	movff	vfpfcnvrt@ap+1,fsr2h
  6926   002F28  CFDF F045          	movff	indf2,??_vfpfcnvrt
  6927   002F2C  0E02               	movlw	2
  6928   002F2E  26DE               	addwf	postinc2,f,c
  6929   002F30  CFDF F046          	movff	indf2,??_vfpfcnvrt+1
  6930   002F34  0E00               	movlw	0
  6931   002F36  22DD               	addwfc	postdec2,f,c
  6932   002F38  C045  FFD9         	movff	??_vfpfcnvrt,fsr2l
  6933   002F3C  C046  FFDA         	movff	??_vfpfcnvrt+1,fsr2h
  6934   002F40  CFDE F047          	movff	postinc2,??_vfpfcnvrt+2
  6935   002F44  CFDD F048          	movff	postdec2,??_vfpfcnvrt+3
  6936   002F48  C047  F049         	movff	??_vfpfcnvrt+2,vfpfcnvrt@convarg
  6937   002F4C  C048  F04A         	movff	??_vfpfcnvrt+3,vfpfcnvrt@convarg+1
  6938   002F50  6A4B               	clrf	(vfpfcnvrt@convarg+2)^0,c
  6939   002F52  6A4C               	clrf	(vfpfcnvrt@convarg+3)^0,c
  6940   002F54  6A4D               	clrf	(vfpfcnvrt@convarg+4)^0,c
  6941   002F56  6A4E               	clrf	(vfpfcnvrt@convarg+5)^0,c
  6942   002F58  6A4F               	clrf	(vfpfcnvrt@convarg+6)^0,c
  6943   002F5A  6A50               	clrf	(vfpfcnvrt@convarg+7)^0,c
  6944                           
  6945                           ;C:\Program Files\Microchip\xc8\v2.40\pic\sources\c99\common\doprnt.c: 1297:    *fmt = c
      +                          p+1;
  6946   002F5C  0E01               	movlw	1
  6947   002F5E  2451               	addwf	vfpfcnvrt@cp^0,w,c
  6948   002F60  6E45               	movwf	??_vfpfcnvrt^0,c
  6949   002F62  0E00               	movlw	0
  6950   002F64  2052               	addwfc	(vfpfcnvrt@cp+1)^0,w,c
  6951   002F66  6E46               	movwf	(??_vfpfcnvrt+1)^0,c
  6952   002F68  C041  FFD9         	movff	vfpfcnvrt@fmt,fsr2l
  6953   002F6C  C042  FFDA         	movff	vfpfcnvrt@fmt+1,fsr2h
  6954   002F70  C045  FFDE         	movff	??_vfpfcnvrt,postinc2
  6955   002F74  C046  FFDD         	movff	??_vfpfcnvrt+1,postdec2
  6956                           
  6957                           ;C:\Program Files\Microchip\xc8\v2.40\pic\sources\c99\common\doprnt.c: 1298:    switch (
      +                          *cp) {
  6958   002F78  EFD6  F017         	goto	l3730
  6959   002F7C                     l3724:
  6960                           
  6961                           ; BSR set to: 0
  6962                           ;C:\Program Files\Microchip\xc8\v2.40\pic\sources\c99\common\doprnt.c: 1314:      return
      +                           (void) xtoa(fp,convarg.llu);;	Return value of _vfpfcnvrt is never used
  6963   002F7C  C03F  F01C         	movff	vfpfcnvrt@fp,xtoa@fp
  6964   002F80  C040  F01D         	movff	vfpfcnvrt@fp+1,xtoa@fp+1
  6965   002F84  C049  F01E         	movff	vfpfcnvrt@convarg,xtoa@d
  6966   002F88  C04A  F01F         	movff	vfpfcnvrt@convarg+1,xtoa@d+1
  6967   002F8C  C04B  F020         	movff	vfpfcnvrt@convarg+2,xtoa@d+2
  6968   002F90  C04C  F021         	movff	vfpfcnvrt@convarg+3,xtoa@d+3
  6969   002F94  C04D  F022         	movff	vfpfcnvrt@convarg+4,xtoa@d+4
  6970   002F98  C04E  F023         	movff	vfpfcnvrt@convarg+5,xtoa@d+5
  6971   002F9C  C04F  F024         	movff	vfpfcnvrt@convarg+6,xtoa@d+6
  6972   002FA0  C050  F025         	movff	vfpfcnvrt@convarg+7,xtoa@d+7
  6973   002FA4  ECE4  F018         	call	_xtoa	;wreg free
  6974   002FA8  EF09  F018         	goto	l1416
  6975   002FAC                     l3730:
  6976                           
  6977                           ; BSR set to: 0
  6978   002FAC  C051  FFF6         	movff	vfpfcnvrt@cp,tblptrl
  6979   002FB0  C052  FFF7         	movff	vfpfcnvrt@cp+1,tblptrh
  6980   002FB4                     	if	0	;tblptru may be non-zero
  6981   002FB4                     	endif
  6982   002FB4                     	if	0	;tblptru may be non-zero
  6983   002FB4                     	endif
  6984   002FB4  0008               	tblrd		*
  6985   002FB6  50F5               	movf	tablat,w,c
  6986   002FB8  6E45               	movwf	??_vfpfcnvrt^0,c
  6987   002FBA  6A46               	clrf	(??_vfpfcnvrt+1)^0,c
  6988                           
  6989                           ; Switch on 2 bytes has been partitioned into a top level switch of size 1, and 1 sub-sw
      +                          itches
  6990                           ; Switch size 1, requested type "simple"
  6991                           ; Number of cases is 1, Range of values is 0 to 0
  6992                           ; switch strategies available:
  6993                           ; Name         Instructions Cycles
  6994                           ; simple_byte            4     3 (average)
  6995                           ;	Chosen strategy is simple_byte
  6996   002FBC  5046               	movf	(??_vfpfcnvrt+1)^0,w,c
  6997   002FBE  0A00               	xorlw	0	; case 0
  6998   002FC0  B4D8               	btfsc	status,2,c
  6999   002FC2  EFE5  F017         	goto	l5496
  7000   002FC6  EFEC  F017         	goto	l3732
  7001   002FCA                     l5496:
  7002                           
  7003                           ; BSR set to: 0
  7004                           ; Switch size 1, requested type "simple"
  7005                           ; Number of cases is 1, Range of values is 120 to 120
  7006                           ; switch strategies available:
  7007                           ; Name         Instructions Cycles
  7008                           ; simple_byte            4     3 (average)
  7009                           ;	Chosen strategy is simple_byte
  7010   002FCA  5045               	movf	??_vfpfcnvrt^0,w,c
  7011   002FCC  0A78               	xorlw	120	; case 120
  7012   002FCE  B4D8               	btfsc	status,2,c
  7013   002FD0  EFBE  F017         	goto	l3724
  7014   002FD4  EFEC  F017         	goto	l3732
  7015   002FD8                     l3732:
  7016                           
  7017                           ;C:\Program Files\Microchip\xc8\v2.40\pic\sources\c99\common\doprnt.c: 1509:         ++*
      +                          fmt;
  7018   002FD8  C041  FFD9         	movff	vfpfcnvrt@fmt,fsr2l
  7019   002FDC  C042  FFDA         	movff	vfpfcnvrt@fmt+1,fsr2h
  7020   002FE0  2ADE               	incf	postinc2,f,c
  7021   002FE2  0E00               	movlw	0
  7022   002FE4  22DD               	addwfc	postdec2,f,c
  7023   002FE6  EF09  F018         	goto	l1416
  7024   002FEA                     l3736:
  7025                           
  7026                           ;C:\Program Files\Microchip\xc8\v2.40\pic\sources\c99\common\doprnt.c: 1514:     fputc((
      +                          int)(*fmt)[0], fp);
  7027   002FEA  C041  FFD9         	movff	vfpfcnvrt@fmt,fsr2l
  7028   002FEE  C042  FFDA         	movff	vfpfcnvrt@fmt+1,fsr2h
  7029   002FF2  CFDE FFF6          	movff	postinc2,tblptrl
  7030   002FF6  CFDD FFF7          	movff	postdec2,tblptrh
  7031   002FFA                     	if	0	;tblptru may be non-zero
  7032   002FFA                     	endif
  7033   002FFA                     	if	0	;tblptru may be non-zero
  7034   002FFA                     	endif
  7035   002FFA  0008               	tblrd		*
  7036   002FFC  50F5               	movf	tablat,w,c
  7037   002FFE  6E01               	movwf	fputc@c^0,c
  7038   003000  6A02               	clrf	(fputc@c+1)^0,c
  7039   003002  C03F  F003         	movff	vfpfcnvrt@fp,fputc@fp
  7040   003006  C040  F004         	movff	vfpfcnvrt@fp+1,fputc@fp+1
  7041   00300A  EC1A  F01F         	call	_fputc	;wreg free
  7042   00300E  EFEC  F017         	goto	l3732
  7043   003012                     l1416:
  7044   003012  0012               	return		;funcret
  7045   003014                     __end_of_vfpfcnvrt:
  7046                           	callstack 0
  7047                           
  7048 ;; *************** function _xtoa *****************
  7049 ;; Defined at:
  7050 ;;		line 934 in file "C:\Program Files\Microchip\xc8\v2.40\pic\sources\c99\common\doprnt.c"
  7051 ;; Parameters:    Size  Location     Type
  7052 ;;  fp              2   27[COMRAM] PTR struct _IO_FILE
  7053 ;;		 -> sprintf@f(11), 
  7054 ;;  d               8   29[COMRAM] unsigned long long 
  7055 ;; Auto vars:     Size  Location     Type
  7056 ;;  n               8   51[COMRAM] unsigned long long 
  7057 ;;  i               2   59[COMRAM] int 
  7058 ;;  p               2   49[COMRAM] int 
  7059 ;;  w               2   45[COMRAM] int 
  7060 ;;  c               1   61[COMRAM] unsigned char 
  7061 ;; Return value:  Size  Location     Type
  7062 ;;                  1    wreg      void 
  7063 ;; Registers used:
  7064 ;;		wreg, fsr1l, fsr1h, fsr2l, fsr2h, status,2, status,0, cstack
  7065 ;; Tracked objects:
  7066 ;;		On entry : 0/0
  7067 ;;		On exit  : 0/0
  7068 ;;		Unchanged: 0/0
  7069 ;; Data sizes:     COMRAM   BANK0   BANK1   BANK2   BANK3   BANK4   BANK5   BANK6   BANK7
  7070 ;;      Params:        10       0       0       0       0       0       0       0       0
  7071 ;;      Locals:        17       0       0       0       0       0       0       0       0
  7072 ;;      Temps:          8       0       0       0       0       0       0       0       0
  7073 ;;      Totals:        35       0       0       0       0       0       0       0       0
  7074 ;;Total ram usage:       35 bytes
  7075 ;; Hardware stack levels used: 1
  7076 ;; Hardware stack levels required when called: 5
  7077 ;; This function calls:
  7078 ;;		_pad
  7079 ;; This function is called by:
  7080 ;;		_vfpfcnvrt
  7081 ;; This function uses a non-reentrant model
  7082 ;;
  7083                           
  7084                           	psect	text16
  7085   0031C8                     __ptext16:
  7086                           	callstack 0
  7087   0031C8                     _xtoa:
  7088                           	callstack 21
  7089   0031C8                     
  7090                           ;C:\Program Files\Microchip\xc8\v2.40\pic\sources\c99\common\doprnt.c: 934: static void 
      +                          xtoa(FILE *fp, unsigned long long d);C:\Program Files\Microchip\xc8\v2.40\pic\sources\c9
      +                          9\common\doprnt.c: 937: {;C:\Program Files\Microchip\xc8\v2.40\pic\sources\c99\common\do
      +                          prnt.c: 938:  char c;;C:\Program Files\Microchip\xc8\v2.40\pic\sources\c99\common\doprnt
      +                          .c: 939:     int i, p, w;;C:\Program Files\Microchip\xc8\v2.40\pic\sources\c99\common\do
      +                          prnt.c: 940:     unsigned long long n;;C:\Program Files\Microchip\xc8\v2.40\pic\sources\
      +                          c99\common\doprnt.c: 948:     p = (0 < prec) ? prec : 1;
  7091   0031C8  0100               	movlb	0	; () banked
  7092   0031CA  BF93               	btfsc	(_prec+1)& (0+255),7,b
  7093   0031CC  EFF2  F018         	goto	u2980
  7094   0031D0  5193               	movf	(_prec+1)& (0+255),w,b
  7095   0031D2  E106               	bnz	u2981
  7096   0031D4  0592               	decf	_prec& (0+255),w,b
  7097   0031D6  B0D8               	btfsc	status,0,c
  7098   0031D8  EFF0  F018         	goto	u2981
  7099   0031DC  EFF2  F018         	goto	u2980
  7100   0031E0                     u2981:
  7101   0031E0  EFF8  F018         	goto	l1397
  7102   0031E4                     u2980:
  7103   0031E4                     
  7104                           ; BSR set to: 0
  7105   0031E4  0E00               	movlw	0
  7106   0031E6  6E33               	movwf	(xtoa@p+1)^0,c
  7107   0031E8  0E01               	movlw	1
  7108   0031EA  6E32               	movwf	xtoa@p^0,c
  7109   0031EC  EFFC  F018         	goto	l1399
  7110   0031F0                     l1397:
  7111                           
  7112                           ; BSR set to: 0
  7113   0031F0  C092  F032         	movff	_prec,xtoa@p
  7114   0031F4  C093  F033         	movff	_prec+1,xtoa@p+1
  7115   0031F8                     l1399:
  7116                           
  7117                           ; BSR set to: 0
  7118                           ;C:\Program Files\Microchip\xc8\v2.40\pic\sources\c99\common\doprnt.c: 949:     w = widt
      +                          h;
  7119   0031F8  C090  F02E         	movff	_width,xtoa@w
  7120   0031FC  C091  F02F         	movff	_width+1,xtoa@w+1
  7121                           
  7122                           ;C:\Program Files\Microchip\xc8\v2.40\pic\sources\c99\common\doprnt.c: 957:     n = d;
  7123   003200  C01E  F034         	movff	xtoa@d,xtoa@n
  7124   003204  C01F  F035         	movff	xtoa@d+1,xtoa@n+1
  7125   003208  C020  F036         	movff	xtoa@d+2,xtoa@n+2
  7126   00320C  C021  F037         	movff	xtoa@d+3,xtoa@n+3
  7127   003210  C022  F038         	movff	xtoa@d+4,xtoa@n+4
  7128   003214  C023  F039         	movff	xtoa@d+5,xtoa@n+5
  7129   003218  C024  F03A         	movff	xtoa@d+6,xtoa@n+6
  7130   00321C  C025  F03B         	movff	xtoa@d+7,xtoa@n+7
  7131   003220                     
  7132                           ; BSR set to: 0
  7133                           ;C:\Program Files\Microchip\xc8\v2.40\pic\sources\c99\common\doprnt.c: 958:     i = size
      +                          of(dbuf) - 1;
  7134   003220  0E00               	movlw	0
  7135   003222  6E3D               	movwf	(xtoa@i+1)^0,c
  7136   003224  0E1F               	movlw	31
  7137   003226  6E3C               	movwf	xtoa@i^0,c
  7138   003228                     
  7139                           ; BSR set to: 0
  7140                           ;C:\Program Files\Microchip\xc8\v2.40\pic\sources\c99\common\doprnt.c: 959:     dbuf[i] 
      +                          = '\0';
  7141   003228  0E00               	movlw	0
  7142   00322A  0101               	movlb	1	; () banked
  7143   00322C  6F1F               	movwf	(_dbuf+31)& (0+255),b
  7144                           
  7145                           ;C:\Program Files\Microchip\xc8\v2.40\pic\sources\c99\common\doprnt.c: 960:     while (!
      +                          (i < 2) && (n || (0 < p)
  7146   00322E  EF74  F019         	goto	l3654
  7147   003232                     l3634:
  7148                           
  7149                           ;C:\Program Files\Microchip\xc8\v2.40\pic\sources\c99\common\doprnt.c: 964:     )) {;C:\
      +                          Program Files\Microchip\xc8\v2.40\pic\sources\c99\common\doprnt.c: 965:         --i;
  7150   003232  063C               	decf	xtoa@i^0,f,c
  7151   003234  A0D8               	btfss	status,0,c
  7152   003236  063D               	decf	(xtoa@i+1)^0,f,c
  7153   003238                     
  7154                           ;C:\Program Files\Microchip\xc8\v2.40\pic\sources\c99\common\doprnt.c: 966:         c = 
      +                          n & 0x0f;
  7155   003238  5034               	movf	xtoa@n^0,w,c
  7156   00323A  0B0F               	andlw	15
  7157   00323C  6E3E               	movwf	xtoa@c^0,c
  7158   00323E                     
  7159                           ;C:\Program Files\Microchip\xc8\v2.40\pic\sources\c99\common\doprnt.c: 968:         c = 
      +                          (c < 10) ? (int)'0' + c : (int)'a' + (c - 10);
  7160   00323E  0E09               	movlw	9
  7161   003240  643E               	cpfsgt	xtoa@c^0,c
  7162   003242  EF25  F019         	goto	u2991
  7163   003246  EF27  F019         	goto	u2990
  7164   00324A                     u2991:
  7165   00324A  EF2F  F019         	goto	l3642
  7166   00324E                     u2990:
  7167   00324E  0E57               	movlw	87
  7168   003250  243E               	addwf	xtoa@c^0,w,c
  7169   003252  6E30               	movwf	_xtoa$1343^0,c
  7170   003254  6A31               	clrf	(_xtoa$1343+1)^0,c
  7171   003256  0E00               	movlw	0
  7172   003258  2231               	addwfc	(_xtoa$1343+1)^0,f,c
  7173   00325A  EF35  F019         	goto	l3644
  7174   00325E                     l3642:
  7175   00325E  0E30               	movlw	48
  7176   003260  243E               	addwf	xtoa@c^0,w,c
  7177   003262  6E30               	movwf	_xtoa$1343^0,c
  7178   003264  6A31               	clrf	(_xtoa$1343+1)^0,c
  7179   003266  0E00               	movlw	0
  7180   003268  2231               	addwfc	(_xtoa$1343+1)^0,f,c
  7181   00326A                     l3644:
  7182   00326A  C030  F03E         	movff	_xtoa$1343,xtoa@c
  7183   00326E                     
  7184                           ;C:\Program Files\Microchip\xc8\v2.40\pic\sources\c99\common\doprnt.c: 977:         dbuf
      +                          [i] = (char)c;
  7185   00326E  0E00               	movlw	low _dbuf
  7186   003270  243C               	addwf	xtoa@i^0,w,c
  7187   003272  6ED9               	movwf	fsr2l,c
  7188   003274  0E01               	movlw	high _dbuf
  7189   003276  203D               	addwfc	(xtoa@i+1)^0,w,c
  7190   003278  6EDA               	movwf	fsr2h,c
  7191   00327A  C03E  FFDF         	movff	xtoa@c,indf2
  7192   00327E                     
  7193                           ;C:\Program Files\Microchip\xc8\v2.40\pic\sources\c99\common\doprnt.c: 978:         --p;
  7194   00327E  0632               	decf	xtoa@p^0,f,c
  7195   003280  A0D8               	btfss	status,0,c
  7196   003282  0633               	decf	(xtoa@p+1)^0,f,c
  7197   003284                     
  7198                           ;C:\Program Files\Microchip\xc8\v2.40\pic\sources\c99\common\doprnt.c: 979:         --w;
  7199   003284  062E               	decf	xtoa@w^0,f,c
  7200   003286  A0D8               	btfss	status,0,c
  7201   003288  062F               	decf	(xtoa@w+1)^0,f,c
  7202   00328A                     
  7203                           ;C:\Program Files\Microchip\xc8\v2.40\pic\sources\c99\common\doprnt.c: 980:         n = 
      +                          n >> 4;
  7204   00328A  C034  F026         	movff	xtoa@n,??_xtoa
  7205   00328E  C035  F027         	movff	xtoa@n+1,??_xtoa+1
  7206   003292  C036  F028         	movff	xtoa@n+2,??_xtoa+2
  7207   003296  C037  F029         	movff	xtoa@n+3,??_xtoa+3
  7208   00329A  C038  F02A         	movff	xtoa@n+4,??_xtoa+4
  7209   00329E  C039  F02B         	movff	xtoa@n+5,??_xtoa+5
  7210   0032A2  C03A  F02C         	movff	xtoa@n+6,??_xtoa+6
  7211   0032A6  C03B  F02D         	movff	xtoa@n+7,??_xtoa+7
  7212   0032AA  0E05               	movlw	5
  7213   0032AC  EF61  F019         	goto	u3000
  7214   0032B0                     u3005:
  7215   0032B0  90D8               	bcf	status,0,c
  7216   0032B2  322D               	rrcf	(??_xtoa+7)^0,f,c
  7217   0032B4  322C               	rrcf	(??_xtoa+6)^0,f,c
  7218   0032B6  322B               	rrcf	(??_xtoa+5)^0,f,c
  7219   0032B8  322A               	rrcf	(??_xtoa+4)^0,f,c
  7220   0032BA  3229               	rrcf	(??_xtoa+3)^0,f,c
  7221   0032BC  3228               	rrcf	(??_xtoa+2)^0,f,c
  7222   0032BE  3227               	rrcf	(??_xtoa+1)^0,f,c
  7223   0032C0  3226               	rrcf	??_xtoa^0,f,c
  7224   0032C2                     u3000:
  7225   0032C2  2EE8               	decfsz	wreg,f,c
  7226   0032C4  EF58  F019         	goto	u3005
  7227   0032C8  C026  F034         	movff	??_xtoa,xtoa@n
  7228   0032CC  C027  F035         	movff	??_xtoa+1,xtoa@n+1
  7229   0032D0  C028  F036         	movff	??_xtoa+2,xtoa@n+2
  7230   0032D4  C029  F037         	movff	??_xtoa+3,xtoa@n+3
  7231   0032D8  C02A  F038         	movff	??_xtoa+4,xtoa@n+4
  7232   0032DC  C02B  F039         	movff	??_xtoa+5,xtoa@n+5
  7233   0032E0  C02C  F03A         	movff	??_xtoa+6,xtoa@n+6
  7234   0032E4  C02D  F03B         	movff	??_xtoa+7,xtoa@n+7
  7235   0032E8                     l3654:
  7236                           
  7237                           ;C:\Program Files\Microchip\xc8\v2.40\pic\sources\c99\common\doprnt.c: 960:     while (!
      +                          (i < 2) && (n || (0 < p)
  7238   0032E8  BE3D               	btfsc	(xtoa@i+1)^0,7,c
  7239   0032EA  EF80  F019         	goto	u3011
  7240   0032EE  503D               	movf	(xtoa@i+1)^0,w,c
  7241   0032F0  E109               	bnz	u3010
  7242   0032F2  0E02               	movlw	2
  7243   0032F4  5C3C               	subwf	xtoa@i^0,w,c
  7244   0032F6  A0D8               	btfss	status,0,c
  7245   0032F8  EF80  F019         	goto	u3011
  7246   0032FC  EF82  F019         	goto	u3010
  7247   003300                     u3011:
  7248   003300  EF9E  F019         	goto	l3660
  7249   003304                     u3010:
  7250   003304  5034               	movf	xtoa@n^0,w,c
  7251   003306  1035               	iorwf	(xtoa@n+1)^0,w,c
  7252   003308  1036               	iorwf	(xtoa@n+2)^0,w,c
  7253   00330A  1037               	iorwf	(xtoa@n+3)^0,w,c
  7254   00330C  1038               	iorwf	(xtoa@n+4)^0,w,c
  7255   00330E  1039               	iorwf	(xtoa@n+5)^0,w,c
  7256   003310  103A               	iorwf	(xtoa@n+6)^0,w,c
  7257   003312  103B               	iorwf	(xtoa@n+7)^0,w,c
  7258   003314  A4D8               	btfss	status,2,c
  7259   003316  EF8F  F019         	goto	u3021
  7260   00331A  EF91  F019         	goto	u3020
  7261   00331E                     u3021:
  7262   00331E  EF19  F019         	goto	l3634
  7263   003322                     u3020:
  7264   003322  BE33               	btfsc	(xtoa@p+1)^0,7,c
  7265   003324  EF9E  F019         	goto	u3030
  7266   003328  5033               	movf	(xtoa@p+1)^0,w,c
  7267   00332A  E106               	bnz	u3031
  7268   00332C  0432               	decf	xtoa@p^0,w,c
  7269   00332E  B0D8               	btfsc	status,0,c
  7270   003330  EF9C  F019         	goto	u3031
  7271   003334  EF9E  F019         	goto	u3030
  7272   003338                     u3031:
  7273   003338  EF19  F019         	goto	l3634
  7274   00333C                     u3030:
  7275   00333C                     l3660:
  7276                           
  7277                           ;C:\Program Files\Microchip\xc8\v2.40\pic\sources\c99\common\doprnt.c: 1000:     return 
      +                          (void) pad(fp, &dbuf[i], w);
  7278   00333C  C01C  F011         	movff	xtoa@fp,pad@fp
  7279   003340  C01D  F012         	movff	xtoa@fp+1,pad@fp+1
  7280   003344  0E00               	movlw	low _dbuf
  7281   003346  243C               	addwf	xtoa@i^0,w,c
  7282   003348  6E13               	movwf	pad@buf^0,c
  7283   00334A  0E01               	movlw	high _dbuf
  7284   00334C  203D               	addwfc	(xtoa@i+1)^0,w,c
  7285   00334E  6E14               	movwf	(pad@buf+1)^0,c
  7286   003350  C02E  F015         	movff	xtoa@w,pad@p
  7287   003354  C02F  F016         	movff	xtoa@w+1,pad@p+1
  7288   003358  EC78  F020         	call	_pad	;wreg free
  7289   00335C  0012               	return		;funcret
  7290   00335E                     __end_of_xtoa:
  7291                           	callstack 0
  7292                           
  7293 ;; *************** function _dtoa *****************
  7294 ;; Defined at:
  7295 ;;		line 443 in file "C:\Program Files\Microchip\xc8\v2.40\pic\sources\c99\common\doprnt.c"
  7296 ;; Parameters:    Size  Location     Type
  7297 ;;  fp              2   27[COMRAM] PTR struct _IO_FILE
  7298 ;;		 -> sprintf@f(11), 
  7299 ;;  d               8   29[COMRAM] long long 
  7300 ;; Auto vars:     Size  Location     Type
  7301 ;;  n               8   51[COMRAM] long long 
  7302 ;;  i               2   59[COMRAM] int 
  7303 ;;  w               2   49[COMRAM] int 
  7304 ;;  p               2   47[COMRAM] int 
  7305 ;;  s               1   61[COMRAM] unsigned char 
  7306 ;; Return value:  Size  Location     Type
  7307 ;;                  1    wreg      void 
  7308 ;; Registers used:
  7309 ;;		wreg, fsr1l, fsr1h, fsr2l, fsr2h, status,2, status,0, cstack
  7310 ;; Tracked objects:
  7311 ;;		On entry : 0/0
  7312 ;;		On exit  : 0/0
  7313 ;;		Unchanged: 0/0
  7314 ;; Data sizes:     COMRAM   BANK0   BANK1   BANK2   BANK3   BANK4   BANK5   BANK6   BANK7
  7315 ;;      Params:        10       0       0       0       0       0       0       0       0
  7316 ;;      Locals:        17       0       0       0       0       0       0       0       0
  7317 ;;      Temps:          8       0       0       0       0       0       0       0       0
  7318 ;;      Totals:        35       0       0       0       0       0       0       0       0
  7319 ;;Total ram usage:       35 bytes
  7320 ;; Hardware stack levels used: 1
  7321 ;; Hardware stack levels required when called: 5
  7322 ;; This function calls:
  7323 ;;		___aodiv
  7324 ;;		___aomod
  7325 ;;		_abs
  7326 ;;		_pad
  7327 ;; This function is called by:
  7328 ;;		_vfpfcnvrt
  7329 ;; This function uses a non-reentrant model
  7330 ;;
  7331                           
  7332                           	psect	text17
  7333   0026DA                     __ptext17:
  7334                           	callstack 0
  7335   0026DA                     _dtoa:
  7336                           	callstack 21
  7337   0026DA                     
  7338                           ;C:\Program Files\Microchip\xc8\v2.40\pic\sources\c99\common\doprnt.c: 443: static void 
      +                          dtoa(FILE *fp, long long d);C:\Program Files\Microchip\xc8\v2.40\pic\sources\c99\common\
      +                          doprnt.c: 444: {;C:\Program Files\Microchip\xc8\v2.40\pic\sources\c99\common\doprnt.c: 4
      +                          45:  char s;;C:\Program Files\Microchip\xc8\v2.40\pic\sources\c99\common\doprnt.c: 446: 
      +                              int i, p, w;;C:\Program Files\Microchip\xc8\v2.40\pic\sources\c99\common\doprnt.c: 4
      +                          47:     long long n;;C:\Program Files\Microchip\xc8\v2.40\pic\sources\c99\common\doprnt.
      +                          c: 450:     n = d;
  7339   0026DA  C01E  F034         	movff	dtoa@d,dtoa@n
  7340   0026DE  C01F  F035         	movff	dtoa@d+1,dtoa@n+1
  7341   0026E2  C020  F036         	movff	dtoa@d+2,dtoa@n+2
  7342   0026E6  C021  F037         	movff	dtoa@d+3,dtoa@n+3
  7343   0026EA  C022  F038         	movff	dtoa@d+4,dtoa@n+4
  7344   0026EE  C023  F039         	movff	dtoa@d+5,dtoa@n+5
  7345   0026F2  C024  F03A         	movff	dtoa@d+6,dtoa@n+6
  7346   0026F6  C025  F03B         	movff	dtoa@d+7,dtoa@n+7
  7347   0026FA                     
  7348                           ;C:\Program Files\Microchip\xc8\v2.40\pic\sources\c99\common\doprnt.c: 451:     s = n < 
      +                          0 ? 1 : 0;
  7349   0026FA  BE3B               	btfsc	(dtoa@n+7)^0,7,c
  7350   0026FC  EF82  F013         	goto	u2881
  7351   002700  EF85  F013         	goto	u2880
  7352   002704                     u2881:
  7353   002704  0E01               	movlw	1
  7354   002706  EF86  F013         	goto	u2890
  7355   00270A                     u2880:
  7356   00270A  0E00               	movlw	0
  7357   00270C                     u2890:
  7358   00270C  6E3E               	movwf	dtoa@s^0,c
  7359   00270E                     
  7360                           ;C:\Program Files\Microchip\xc8\v2.40\pic\sources\c99\common\doprnt.c: 452:     if (s) {
  7361   00270E  503E               	movf	dtoa@s^0,w,c
  7362   002710  B4D8               	btfsc	status,2,c
  7363   002712  EF8D  F013         	goto	u2901
  7364   002716  EF8F  F013         	goto	u2900
  7365   00271A                     u2901:
  7366   00271A  EF9F  F013         	goto	l3582
  7367   00271E                     u2900:
  7368   00271E                     
  7369                           ;C:\Program Files\Microchip\xc8\v2.40\pic\sources\c99\common\doprnt.c: 453:         n = 
      +                          -n;
  7370   00271E  1E3B               	comf	(dtoa@n+7)^0,f,c
  7371   002720  1E3A               	comf	(dtoa@n+6)^0,f,c
  7372   002722  1E39               	comf	(dtoa@n+5)^0,f,c
  7373   002724  1E38               	comf	(dtoa@n+4)^0,f,c
  7374   002726  1E37               	comf	(dtoa@n+3)^0,f,c
  7375   002728  1E36               	comf	(dtoa@n+2)^0,f,c
  7376   00272A  1E35               	comf	(dtoa@n+1)^0,f,c
  7377   00272C  6C34               	negf	dtoa@n^0,c
  7378   00272E  0E00               	movlw	0
  7379   002730  2235               	addwfc	(dtoa@n+1)^0,f,c
  7380   002732  2236               	addwfc	(dtoa@n+2)^0,f,c
  7381   002734  2237               	addwfc	(dtoa@n+3)^0,f,c
  7382   002736  2238               	addwfc	(dtoa@n+4)^0,f,c
  7383   002738  2239               	addwfc	(dtoa@n+5)^0,f,c
  7384   00273A  223A               	addwfc	(dtoa@n+6)^0,f,c
  7385   00273C  223B               	addwfc	(dtoa@n+7)^0,f,c
  7386   00273E                     l3582:
  7387                           
  7388                           ;C:\Program Files\Microchip\xc8\v2.40\pic\sources\c99\common\doprnt.c: 462:     p = (0 <
      +                           prec) ? prec : 1;
  7389   00273E  0100               	movlb	0	; () banked
  7390   002740  BF93               	btfsc	(_prec+1)& (0+255),7,b
  7391   002742  EFAD  F013         	goto	u2910
  7392   002746  5193               	movf	(_prec+1)& (0+255),w,b
  7393   002748  E106               	bnz	u2911
  7394   00274A  0592               	decf	_prec& (0+255),w,b
  7395   00274C  B0D8               	btfsc	status,0,c
  7396   00274E  EFAB  F013         	goto	u2911
  7397   002752  EFAD  F013         	goto	u2910
  7398   002756                     u2911:
  7399   002756  EFB3  F013         	goto	l1379
  7400   00275A                     u2910:
  7401   00275A                     
  7402                           ; BSR set to: 0
  7403   00275A  0E00               	movlw	0
  7404   00275C  6E31               	movwf	(dtoa@p+1)^0,c
  7405   00275E  0E01               	movlw	1
  7406   002760  6E30               	movwf	dtoa@p^0,c
  7407   002762  EFB7  F013         	goto	l1381
  7408   002766                     l1379:
  7409                           
  7410                           ; BSR set to: 0
  7411   002766  C092  F030         	movff	_prec,dtoa@p
  7412   00276A  C093  F031         	movff	_prec+1,dtoa@p+1
  7413   00276E                     l1381:
  7414                           
  7415                           ; BSR set to: 0
  7416                           ;C:\Program Files\Microchip\xc8\v2.40\pic\sources\c99\common\doprnt.c: 463:     w = widt
      +                          h;
  7417   00276E  C090  F032         	movff	_width,dtoa@w
  7418   002772  C091  F033         	movff	_width+1,dtoa@w+1
  7419   002776                     
  7420                           ; BSR set to: 0
  7421                           ;C:\Program Files\Microchip\xc8\v2.40\pic\sources\c99\common\doprnt.c: 464:     if (s
  7422   002776  503E               	movf	dtoa@s^0,w,c
  7423   002778  B4D8               	btfsc	status,2,c
  7424   00277A  EFC1  F013         	goto	u2921
  7425   00277E  EFC3  F013         	goto	u2920
  7426   002782                     u2921:
  7427   002782  EFDA  F013         	goto	l1382
  7428   002786                     u2920:
  7429   002786                     
  7430                           ; BSR set to: 0
  7431                           ;C:\Program Files\Microchip\xc8\v2.40\pic\sources\c99\common\doprnt.c: 468:     ) {;C:\P
      +                          rogram Files\Microchip\xc8\v2.40\pic\sources\c99\common\doprnt.c: 469:         --w;
  7432   002786  0632               	decf	dtoa@w^0,f,c
  7433   002788  A0D8               	btfss	status,0,c
  7434   00278A  0633               	decf	(dtoa@w+1)^0,f,c
  7435   00278C                     
  7436                           ; BSR set to: 0
  7437                           ;C:\Program Files\Microchip\xc8\v2.40\pic\sources\c99\common\doprnt.c: 470:   s = s ? '-
      +                          ' : '+';
  7438   00278C  503E               	movf	dtoa@s^0,w,c
  7439   00278E  A4D8               	btfss	status,2,c
  7440   002790  EFCC  F013         	goto	u2931
  7441   002794  EFCE  F013         	goto	u2930
  7442   002798                     u2931:
  7443   002798  EFD4  F013         	goto	l3594
  7444   00279C                     u2930:
  7445   00279C                     
  7446                           ; BSR set to: 0
  7447   00279C  0E00               	movlw	0
  7448   00279E  6E2F               	movwf	(_dtoa$1333+1)^0,c
  7449   0027A0  0E2B               	movlw	43
  7450   0027A2  6E2E               	movwf	_dtoa$1333^0,c
  7451   0027A4  EFD8  F013         	goto	l3596
  7452   0027A8                     l3594:
  7453                           
  7454                           ; BSR set to: 0
  7455   0027A8  0E00               	movlw	0
  7456   0027AA  6E2F               	movwf	(_dtoa$1333+1)^0,c
  7457   0027AC  0E2D               	movlw	45
  7458   0027AE  6E2E               	movwf	_dtoa$1333^0,c
  7459   0027B0                     l3596:
  7460                           
  7461                           ; BSR set to: 0
  7462   0027B0  C02E  F03E         	movff	_dtoa$1333,dtoa@s
  7463   0027B4                     l1382:
  7464                           
  7465                           ; BSR set to: 0
  7466                           ;C:\Program Files\Microchip\xc8\v2.40\pic\sources\c99\common\doprnt.c: 480:     i = size
      +                          of(dbuf) - 1;
  7467   0027B4  0E00               	movlw	0
  7468   0027B6  6E3D               	movwf	(dtoa@i+1)^0,c
  7469   0027B8  0E1F               	movlw	31
  7470   0027BA  6E3C               	movwf	dtoa@i^0,c
  7471   0027BC                     
  7472                           ; BSR set to: 0
  7473                           ;C:\Program Files\Microchip\xc8\v2.40\pic\sources\c99\common\doprnt.c: 481:     dbuf[i] 
      +                          = '\0';
  7474   0027BC  0E00               	movlw	0
  7475   0027BE  0101               	movlb	1	; () banked
  7476   0027C0  6F1F               	movwf	(_dbuf+31)& (0+255),b
  7477                           
  7478                           ;C:\Program Files\Microchip\xc8\v2.40\pic\sources\c99\common\doprnt.c: 482:     while (!
      +                          (i < 1) && (n || (0 < p)
  7479   0027C2  EF5F  F014         	goto	l3610
  7480   0027C6                     l3600:
  7481                           
  7482                           ;C:\Program Files\Microchip\xc8\v2.40\pic\sources\c99\common\doprnt.c: 486:     )) {;C:\
      +                          Program Files\Microchip\xc8\v2.40\pic\sources\c99\common\doprnt.c: 487:         --i;
  7483   0027C6  063C               	decf	dtoa@i^0,f,c
  7484   0027C8  A0D8               	btfss	status,0,c
  7485   0027CA  063D               	decf	(dtoa@i+1)^0,f,c
  7486   0027CC                     
  7487                           ;C:\Program Files\Microchip\xc8\v2.40\pic\sources\c99\common\doprnt.c: 488:         dbuf
      +                          [i] = (char)((int)'0' + abs(n % 10));
  7488   0027CC  0E00               	movlw	low _dbuf
  7489   0027CE  243C               	addwf	dtoa@i^0,w,c
  7490   0027D0  6ED9               	movwf	fsr2l,c
  7491   0027D2  0E01               	movlw	high _dbuf
  7492   0027D4  203D               	addwfc	(dtoa@i+1)^0,w,c
  7493   0027D6  6EDA               	movwf	fsr2h,c
  7494   0027D8  C034  F001         	movff	dtoa@n,___aomod@dividend
  7495   0027DC  C035  F002         	movff	dtoa@n+1,___aomod@dividend+1
  7496   0027E0  C036  F003         	movff	dtoa@n+2,___aomod@dividend+2
  7497   0027E4  C037  F004         	movff	dtoa@n+3,___aomod@dividend+3
  7498   0027E8  C038  F005         	movff	dtoa@n+4,___aomod@dividend+4
  7499   0027EC  C039  F006         	movff	dtoa@n+5,___aomod@dividend+5
  7500   0027F0  C03A  F007         	movff	dtoa@n+6,___aomod@dividend+6
  7501   0027F4  C03B  F008         	movff	dtoa@n+7,___aomod@dividend+7
  7502   0027F8  0E0A               	movlw	10
  7503   0027FA  6E09               	movwf	___aomod@divisor^0,c
  7504   0027FC  0E00               	movlw	0
  7505   0027FE  6E0A               	movwf	(___aomod@divisor+1)^0,c
  7506   002800  0E00               	movlw	0
  7507   002802  6E0B               	movwf	(___aomod@divisor+2)^0,c
  7508   002804  0E00               	movlw	0
  7509   002806  6E0C               	movwf	(___aomod@divisor+3)^0,c
  7510   002808  0E00               	movlw	0
  7511   00280A  6E0D               	movwf	(___aomod@divisor+4)^0,c
  7512   00280C  0E00               	movlw	0
  7513   00280E  6E0E               	movwf	(___aomod@divisor+5)^0,c
  7514   002810  0E00               	movlw	0
  7515   002812  6E0F               	movwf	(___aomod@divisor+6)^0,c
  7516   002814  0E00               	movlw	0
  7517   002816  6E10               	movwf	(___aomod@divisor+7)^0,c
  7518   002818  EC73  F01A         	call	___aomod	;wreg free
  7519   00281C  C001  F026         	movff	?___aomod,??_dtoa
  7520   002820  C002  F027         	movff	?___aomod+1,??_dtoa+1
  7521   002824  C003  F028         	movff	?___aomod+2,??_dtoa+2
  7522   002828  C004  F029         	movff	?___aomod+3,??_dtoa+3
  7523   00282C  C005  F02A         	movff	?___aomod+4,??_dtoa+4
  7524   002830  C006  F02B         	movff	?___aomod+5,??_dtoa+5
  7525   002834  C007  F02C         	movff	?___aomod+6,??_dtoa+6
  7526   002838  C008  F02D         	movff	?___aomod+7,??_dtoa+7
  7527   00283C  C026  F013         	movff	??_dtoa,abs@a
  7528   002840  C027  F014         	movff	??_dtoa+1,abs@a+1
  7529   002844  EC6E  F022         	call	_abs	;wreg free
  7530   002848  5013               	movf	?_abs^0,w,c
  7531   00284A  0F30               	addlw	48
  7532   00284C  6EDF               	movwf	indf2,c
  7533   00284E                     
  7534                           ;C:\Program Files\Microchip\xc8\v2.40\pic\sources\c99\common\doprnt.c: 489:         --p;
  7535   00284E  0630               	decf	dtoa@p^0,f,c
  7536   002850  A0D8               	btfss	status,0,c
  7537   002852  0631               	decf	(dtoa@p+1)^0,f,c
  7538   002854                     
  7539                           ;C:\Program Files\Microchip\xc8\v2.40\pic\sources\c99\common\doprnt.c: 490:         --w;
  7540   002854  0632               	decf	dtoa@w^0,f,c
  7541   002856  A0D8               	btfss	status,0,c
  7542   002858  0633               	decf	(dtoa@w+1)^0,f,c
  7543   00285A                     
  7544                           ;C:\Program Files\Microchip\xc8\v2.40\pic\sources\c99\common\doprnt.c: 491:         n = 
      +                          n / 10;
  7545   00285A  C034  F001         	movff	dtoa@n,___aodiv@dividend
  7546   00285E  C035  F002         	movff	dtoa@n+1,___aodiv@dividend+1
  7547   002862  C036  F003         	movff	dtoa@n+2,___aodiv@dividend+2
  7548   002866  C037  F004         	movff	dtoa@n+3,___aodiv@dividend+3
  7549   00286A  C038  F005         	movff	dtoa@n+4,___aodiv@dividend+4
  7550   00286E  C039  F006         	movff	dtoa@n+5,___aodiv@dividend+5
  7551   002872  C03A  F007         	movff	dtoa@n+6,___aodiv@dividend+6
  7552   002876  C03B  F008         	movff	dtoa@n+7,___aodiv@dividend+7
  7553   00287A  0E0A               	movlw	10
  7554   00287C  6E09               	movwf	___aodiv@divisor^0,c
  7555   00287E  0E00               	movlw	0
  7556   002880  6E0A               	movwf	(___aodiv@divisor+1)^0,c
  7557   002882  0E00               	movlw	0
  7558   002884  6E0B               	movwf	(___aodiv@divisor+2)^0,c
  7559   002886  0E00               	movlw	0
  7560   002888  6E0C               	movwf	(___aodiv@divisor+3)^0,c
  7561   00288A  0E00               	movlw	0
  7562   00288C  6E0D               	movwf	(___aodiv@divisor+4)^0,c
  7563   00288E  0E00               	movlw	0
  7564   002890  6E0E               	movwf	(___aodiv@divisor+5)^0,c
  7565   002892  0E00               	movlw	0
  7566   002894  6E0F               	movwf	(___aodiv@divisor+6)^0,c
  7567   002896  0E00               	movlw	0
  7568   002898  6E10               	movwf	(___aodiv@divisor+7)^0,c
  7569   00289A  ECAF  F019         	call	___aodiv	;wreg free
  7570   00289E  C001  F034         	movff	?___aodiv,dtoa@n
  7571   0028A2  C002  F035         	movff	?___aodiv+1,dtoa@n+1
  7572   0028A6  C003  F036         	movff	?___aodiv+2,dtoa@n+2
  7573   0028AA  C004  F037         	movff	?___aodiv+3,dtoa@n+3
  7574   0028AE  C005  F038         	movff	?___aodiv+4,dtoa@n+4
  7575   0028B2  C006  F039         	movff	?___aodiv+5,dtoa@n+5
  7576   0028B6  C007  F03A         	movff	?___aodiv+6,dtoa@n+6
  7577   0028BA  C008  F03B         	movff	?___aodiv+7,dtoa@n+7
  7578   0028BE                     l3610:
  7579                           
  7580                           ;C:\Program Files\Microchip\xc8\v2.40\pic\sources\c99\common\doprnt.c: 482:     while (!
      +                          (i < 1) && (n || (0 < p)
  7581   0028BE  BE3D               	btfsc	(dtoa@i+1)^0,7,c
  7582   0028C0  EF6A  F014         	goto	u2941
  7583   0028C4  503D               	movf	(dtoa@i+1)^0,w,c
  7584   0028C6  E108               	bnz	u2940
  7585   0028C8  043C               	decf	dtoa@i^0,w,c
  7586   0028CA  A0D8               	btfss	status,0,c
  7587   0028CC  EF6A  F014         	goto	u2941
  7588   0028D0  EF6C  F014         	goto	u2940
  7589   0028D4                     u2941:
  7590   0028D4  EF88  F014         	goto	l3616
  7591   0028D8                     u2940:
  7592   0028D8  5034               	movf	dtoa@n^0,w,c
  7593   0028DA  1035               	iorwf	(dtoa@n+1)^0,w,c
  7594   0028DC  1036               	iorwf	(dtoa@n+2)^0,w,c
  7595   0028DE  1037               	iorwf	(dtoa@n+3)^0,w,c
  7596   0028E0  1038               	iorwf	(dtoa@n+4)^0,w,c
  7597   0028E2  1039               	iorwf	(dtoa@n+5)^0,w,c
  7598   0028E4  103A               	iorwf	(dtoa@n+6)^0,w,c
  7599   0028E6  103B               	iorwf	(dtoa@n+7)^0,w,c
  7600   0028E8  A4D8               	btfss	status,2,c
  7601   0028EA  EF79  F014         	goto	u2951
  7602   0028EE  EF7B  F014         	goto	u2950
  7603   0028F2                     u2951:
  7604   0028F2  EFE3  F013         	goto	l3600
  7605   0028F6                     u2950:
  7606   0028F6  BE31               	btfsc	(dtoa@p+1)^0,7,c
  7607   0028F8  EF88  F014         	goto	u2960
  7608   0028FC  5031               	movf	(dtoa@p+1)^0,w,c
  7609   0028FE  E106               	bnz	u2961
  7610   002900  0430               	decf	dtoa@p^0,w,c
  7611   002902  B0D8               	btfsc	status,0,c
  7612   002904  EF86  F014         	goto	u2961
  7613   002908  EF88  F014         	goto	u2960
  7614   00290C                     u2961:
  7615   00290C  EFE3  F013         	goto	l3600
  7616   002910                     u2960:
  7617   002910                     l3616:
  7618                           
  7619                           ;C:\Program Files\Microchip\xc8\v2.40\pic\sources\c99\common\doprnt.c: 495:     if (s !=
      +                           0) {
  7620   002910  503E               	movf	dtoa@s^0,w,c
  7621   002912  B4D8               	btfsc	status,2,c
  7622   002914  EF8E  F014         	goto	u2971
  7623   002918  EF90  F014         	goto	u2970
  7624   00291C                     u2971:
  7625   00291C  EF9B  F014         	goto	l3622
  7626   002920                     u2970:
  7627   002920                     
  7628                           ;C:\Program Files\Microchip\xc8\v2.40\pic\sources\c99\common\doprnt.c: 496:         --i;
  7629   002920  063C               	decf	dtoa@i^0,f,c
  7630   002922  A0D8               	btfss	status,0,c
  7631   002924  063D               	decf	(dtoa@i+1)^0,f,c
  7632   002926                     
  7633                           ;C:\Program Files\Microchip\xc8\v2.40\pic\sources\c99\common\doprnt.c: 497:         dbuf
      +                          [i] = s;
  7634   002926  0E00               	movlw	low _dbuf
  7635   002928  243C               	addwf	dtoa@i^0,w,c
  7636   00292A  6ED9               	movwf	fsr2l,c
  7637   00292C  0E01               	movlw	high _dbuf
  7638   00292E  203D               	addwfc	(dtoa@i+1)^0,w,c
  7639   002930  6EDA               	movwf	fsr2h,c
  7640   002932  C03E  FFDF         	movff	dtoa@s,indf2
  7641   002936                     l3622:
  7642                           
  7643                           ;C:\Program Files\Microchip\xc8\v2.40\pic\sources\c99\common\doprnt.c: 501:     return (
      +                          void) pad(fp, &dbuf[i], w);
  7644   002936  C01C  F011         	movff	dtoa@fp,pad@fp
  7645   00293A  C01D  F012         	movff	dtoa@fp+1,pad@fp+1
  7646   00293E  0E00               	movlw	low _dbuf
  7647   002940  243C               	addwf	dtoa@i^0,w,c
  7648   002942  6E13               	movwf	pad@buf^0,c
  7649   002944  0E01               	movlw	high _dbuf
  7650   002946  203D               	addwfc	(dtoa@i+1)^0,w,c
  7651   002948  6E14               	movwf	(pad@buf+1)^0,c
  7652   00294A  C032  F015         	movff	dtoa@w,pad@p
  7653   00294E  C033  F016         	movff	dtoa@w+1,pad@p+1
  7654   002952  EC78  F020         	call	_pad	;wreg free
  7655   002956  0012               	return		;funcret
  7656   002958                     __end_of_dtoa:
  7657                           	callstack 0
  7658                           
  7659 ;; *************** function _pad *****************
  7660 ;; Defined at:
  7661 ;;		line 133 in file "C:\Program Files\Microchip\xc8\v2.40\pic\sources\c99\common\doprnt.c"
  7662 ;; Parameters:    Size  Location     Type
  7663 ;;  fp              2   16[COMRAM] PTR struct _IO_FILE
  7664 ;;		 -> sprintf@f(11), 
  7665 ;;  buf             2   18[COMRAM] PTR unsigned char 
  7666 ;;		 -> dbuf(32), 
  7667 ;;  p               2   20[COMRAM] int 
  7668 ;; Auto vars:     Size  Location     Type
  7669 ;;  w               2   25[COMRAM] int 
  7670 ;;  i               2   23[COMRAM] int 
  7671 ;; Return value:  Size  Location     Type
  7672 ;;                  1    wreg      void 
  7673 ;; Registers used:
  7674 ;;		wreg, fsr1l, fsr1h, fsr2l, fsr2h, status,2, status,0, cstack
  7675 ;; Tracked objects:
  7676 ;;		On entry : 0/0
  7677 ;;		On exit  : 0/0
  7678 ;;		Unchanged: 0/0
  7679 ;; Data sizes:     COMRAM   BANK0   BANK1   BANK2   BANK3   BANK4   BANK5   BANK6   BANK7
  7680 ;;      Params:         6       0       0       0       0       0       0       0       0
  7681 ;;      Locals:         4       0       0       0       0       0       0       0       0
  7682 ;;      Temps:          1       0       0       0       0       0       0       0       0
  7683 ;;      Totals:        11       0       0       0       0       0       0       0       0
  7684 ;;Total ram usage:       11 bytes
  7685 ;; Hardware stack levels used: 1
  7686 ;; Hardware stack levels required when called: 4
  7687 ;; This function calls:
  7688 ;;		_fputc
  7689 ;;		_fputs
  7690 ;; This function is called by:
  7691 ;;		_dtoa
  7692 ;;		_xtoa
  7693 ;; This function uses a non-reentrant model
  7694 ;;
  7695                           
  7696                           	psect	text18
  7697   0040F0                     __ptext18:
  7698                           	callstack 0
  7699   0040F0                     _pad:
  7700                           	callstack 21
  7701   0040F0                     
  7702                           ;C:\Program Files\Microchip\xc8\v2.40\pic\sources\c99\common\doprnt.c: 133: static void 
      +                          pad(FILE *fp, char *buf, int p);C:\Program Files\Microchip\xc8\v2.40\pic\sources\c99\com
      +                          mon\doprnt.c: 134: {;C:\Program Files\Microchip\xc8\v2.40\pic\sources\c99\common\doprnt.
      +                          c: 135:     int i, w;;C:\Program Files\Microchip\xc8\v2.40\pic\sources\c99\common\doprnt
      +                          .c: 145:     w = (p < 0) ? 0 : p;
  7703   0040F0  BE16               	btfsc	(pad@p+1)^0,7,c
  7704   0040F2  EF7D  F020         	goto	u2841
  7705   0040F6  EF7F  F020         	goto	u2840
  7706   0040FA                     u2841:
  7707   0040FA  EF85  F020         	goto	l3558
  7708   0040FE                     u2840:
  7709   0040FE  C015  F01A         	movff	pad@p,pad@w
  7710   004102  C016  F01B         	movff	pad@p+1,pad@w+1
  7711   004106  EF89  F020         	goto	l1370
  7712   00410A                     l3558:
  7713   00410A  0E00               	movlw	0
  7714   00410C  6E1B               	movwf	(pad@w+1)^0,c
  7715   00410E  0E00               	movlw	0
  7716   004110  6E1A               	movwf	pad@w^0,c
  7717   004112                     l1370:
  7718                           
  7719                           ;C:\Program Files\Microchip\xc8\v2.40\pic\sources\c99\common\doprnt.c: 146:     i = 0;
  7720   004112  0E00               	movlw	0
  7721   004114  6E19               	movwf	(pad@i+1)^0,c
  7722   004116  0E00               	movlw	0
  7723   004118  6E18               	movwf	pad@i^0,c
  7724                           
  7725                           ;C:\Program Files\Microchip\xc8\v2.40\pic\sources\c99\common\doprnt.c: 147:     while (i
      +                           < w) {
  7726   00411A  EF9B  F020         	goto	l3564
  7727   00411E                     l3560:
  7728                           
  7729                           ;C:\Program Files\Microchip\xc8\v2.40\pic\sources\c99\common\doprnt.c: 148:         fput
      +                          c(' ', fp);
  7730   00411E  0E00               	movlw	0
  7731   004120  6E02               	movwf	(fputc@c+1)^0,c
  7732   004122  0E20               	movlw	32
  7733   004124  6E01               	movwf	fputc@c^0,c
  7734   004126  C011  F003         	movff	pad@fp,fputc@fp
  7735   00412A  C012  F004         	movff	pad@fp+1,fputc@fp+1
  7736   00412E  EC1A  F01F         	call	_fputc	;wreg free
  7737   004132                     
  7738                           ;C:\Program Files\Microchip\xc8\v2.40\pic\sources\c99\common\doprnt.c: 149:         ++i;
  7739   004132  4A18               	infsnz	pad@i^0,f,c
  7740   004134  2A19               	incf	(pad@i+1)^0,f,c
  7741   004136                     l3564:
  7742                           
  7743                           ;C:\Program Files\Microchip\xc8\v2.40\pic\sources\c99\common\doprnt.c: 147:     while (i
      +                           < w) {
  7744   004136  501A               	movf	pad@w^0,w,c
  7745   004138  5C18               	subwf	pad@i^0,w,c
  7746   00413A  5019               	movf	(pad@i+1)^0,w,c
  7747   00413C  0A80               	xorlw	128
  7748   00413E  6E17               	movwf	??_pad^0,c
  7749   004140  501B               	movf	(pad@w+1)^0,w,c
  7750   004142  0A80               	xorlw	128
  7751   004144  5817               	subwfb	??_pad^0,w,c
  7752   004146  A0D8               	btfss	status,0,c
  7753   004148  EFA8  F020         	goto	u2851
  7754   00414C  EFAA  F020         	goto	u2850
  7755   004150                     u2851:
  7756   004150  EF8F  F020         	goto	l3560
  7757   004154                     u2850:
  7758   004154                     
  7759                           ;C:\Program Files\Microchip\xc8\v2.40\pic\sources\c99\common\doprnt.c: 156:         fput
      +                          s((const char *)buf, fp);
  7760   004154  C013  F00A         	movff	pad@buf,fputs@s
  7761   004158  C014  F00B         	movff	pad@buf+1,fputs@s+1
  7762   00415C  C011  F00C         	movff	pad@fp,fputs@fp
  7763   004160  C012  F00D         	movff	pad@fp+1,fputs@fp+1
  7764   004164  EC4C  F022         	call	_fputs	;wreg free
  7765   004168  0012               	return		;funcret
  7766   00416A                     __end_of_pad:
  7767                           	callstack 0
  7768                           
  7769 ;; *************** function _fputs *****************
  7770 ;; Defined at:
  7771 ;;		line 8 in file "C:\Program Files\Microchip\xc8\v2.40\pic\sources\c99\common\nf_fputs.c"
  7772 ;; Parameters:    Size  Location     Type
  7773 ;;  s               2    9[COMRAM] PTR const unsigned char 
  7774 ;;		 -> dbuf(32), 
  7775 ;;  fp              2   11[COMRAM] PTR struct _IO_FILE
  7776 ;;		 -> sprintf@f(11), 
  7777 ;; Auto vars:     Size  Location     Type
  7778 ;;  i               2   14[COMRAM] int 
  7779 ;;  c               1   13[COMRAM] unsigned char 
  7780 ;; Return value:  Size  Location     Type
  7781 ;;                  2    9[COMRAM] int 
  7782 ;; Registers used:
  7783 ;;		wreg, fsr1l, fsr1h, fsr2l, fsr2h, status,2, status,0, cstack
  7784 ;; Tracked objects:
  7785 ;;		On entry : 0/0
  7786 ;;		On exit  : 0/0
  7787 ;;		Unchanged: 0/0
  7788 ;; Data sizes:     COMRAM   BANK0   BANK1   BANK2   BANK3   BANK4   BANK5   BANK6   BANK7
  7789 ;;      Params:         4       0       0       0       0       0       0       0       0
  7790 ;;      Locals:         3       0       0       0       0       0       0       0       0
  7791 ;;      Temps:          0       0       0       0       0       0       0       0       0
  7792 ;;      Totals:         7       0       0       0       0       0       0       0       0
  7793 ;;Total ram usage:        7 bytes
  7794 ;; Hardware stack levels used: 1
  7795 ;; Hardware stack levels required when called: 3
  7796 ;; This function calls:
  7797 ;;		_fputc
  7798 ;; This function is called by:
  7799 ;;		_pad
  7800 ;; This function uses a non-reentrant model
  7801 ;;
  7802                           
  7803                           	psect	text19
  7804   004498                     __ptext19:
  7805                           	callstack 0
  7806   004498                     _fputs:
  7807                           	callstack 21
  7808   004498  0E00               	movlw	0
  7809   00449A  6E10               	movwf	(fputs@i+1)^0,c
  7810   00449C  0E00               	movlw	0
  7811   00449E  6E0F               	movwf	fputs@i^0,c
  7812   0044A0  EF5D  F022         	goto	l3472
  7813   0044A4                     l3468:
  7814   0044A4  C00E  F001         	movff	fputs@c,fputc@c
  7815   0044A8  6A02               	clrf	(fputc@c+1)^0,c
  7816   0044AA  C00C  F003         	movff	fputs@fp,fputc@fp
  7817   0044AE  C00D  F004         	movff	fputs@fp+1,fputc@fp+1
  7818   0044B2  EC1A  F01F         	call	_fputc	;wreg free
  7819   0044B6  4A0F               	infsnz	fputs@i^0,f,c
  7820   0044B8  2A10               	incf	(fputs@i+1)^0,f,c
  7821   0044BA                     l3472:
  7822   0044BA  500F               	movf	fputs@i^0,w,c
  7823   0044BC  240A               	addwf	fputs@s^0,w,c
  7824   0044BE  6ED9               	movwf	fsr2l,c
  7825   0044C0  5010               	movf	(fputs@i+1)^0,w,c
  7826   0044C2  200B               	addwfc	(fputs@s+1)^0,w,c
  7827   0044C4  6EDA               	movwf	fsr2h,c
  7828   0044C6  50DF               	movf	indf2,w,c
  7829   0044C8  6E0E               	movwf	fputs@c^0,c
  7830   0044CA  500E               	movf	fputs@c^0,w,c
  7831   0044CC  A4D8               	btfss	status,2,c
  7832   0044CE  EF6B  F022         	goto	u2701
  7833   0044D2  EF6D  F022         	goto	u2700
  7834   0044D6                     u2701:
  7835   0044D6  EF52  F022         	goto	l3468
  7836   0044DA                     u2700:
  7837   0044DA  0012               	return		;funcret
  7838   0044DC                     __end_of_fputs:
  7839                           	callstack 0
  7840                           
  7841 ;; *************** function _fputc *****************
  7842 ;; Defined at:
  7843 ;;		line 8 in file "C:\Program Files\Microchip\xc8\v2.40\pic\sources\c99\common\nf_fputc.c"
  7844 ;; Parameters:    Size  Location     Type
  7845 ;;  c               2    0[COMRAM] int 
  7846 ;;  fp              2    2[COMRAM] PTR struct _IO_FILE
  7847 ;;		 -> sprintf@f(11), 
  7848 ;; Auto vars:     Size  Location     Type
  7849 ;;		None
  7850 ;; Return value:  Size  Location     Type
  7851 ;;                  2    0[COMRAM] int 
  7852 ;; Registers used:
  7853 ;;		wreg, fsr1l, fsr1h, fsr2l, fsr2h, status,2, status,0, cstack
  7854 ;; Tracked objects:
  7855 ;;		On entry : 0/0
  7856 ;;		On exit  : 0/0
  7857 ;;		Unchanged: 0/0
  7858 ;; Data sizes:     COMRAM   BANK0   BANK1   BANK2   BANK3   BANK4   BANK5   BANK6   BANK7
  7859 ;;      Params:         4       0       0       0       0       0       0       0       0
  7860 ;;      Locals:         0       0       0       0       0       0       0       0       0
  7861 ;;      Temps:          5       0       0       0       0       0       0       0       0
  7862 ;;      Totals:         9       0       0       0       0       0       0       0       0
  7863 ;;Total ram usage:        9 bytes
  7864 ;; Hardware stack levels used: 1
  7865 ;; Hardware stack levels required when called: 2
  7866 ;; This function calls:
  7867 ;;		_putch
  7868 ;; This function is called by:
  7869 ;;		_pad
  7870 ;;		_vfpfcnvrt
  7871 ;;		_fputs
  7872 ;; This function uses a non-reentrant model
  7873 ;;
  7874                           
  7875                           	psect	text20
  7876   003E34                     __ptext20:
  7877                           	callstack 0
  7878   003E34                     _fputc:
  7879                           	callstack 21
  7880   003E34  5003               	movf	fputc@fp^0,w,c
  7881   003E36  1004               	iorwf	(fputc@fp+1)^0,w,c
  7882   003E38  B4D8               	btfsc	status,2,c
  7883   003E3A  EF21  F01F         	goto	u2661
  7884   003E3E  EF23  F01F         	goto	u2660
  7885   003E42                     u2661:
  7886   003E42  EF2C  F01F         	goto	l3456
  7887   003E46                     u2660:
  7888   003E46  5003               	movf	fputc@fp^0,w,c
  7889   003E48  1004               	iorwf	(fputc@fp+1)^0,w,c
  7890   003E4A  A4D8               	btfss	status,2,c
  7891   003E4C  EF2A  F01F         	goto	u2671
  7892   003E50  EF2C  F01F         	goto	u2670
  7893   003E54                     u2671:
  7894   003E54  EF31  F01F         	goto	l3458
  7895   003E58                     u2670:
  7896   003E58                     l3456:
  7897   003E58  5001               	movf	fputc@c^0,w,c
  7898   003E5A  ECA9  F023         	call	_putch
  7899   003E5E  EF7E  F01F         	goto	l1447
  7900   003E62                     l3458:
  7901   003E62  EE20 F009          	lfsr	2,9
  7902   003E66  5003               	movf	fputc@fp^0,w,c
  7903   003E68  26D9               	addwf	fsr2l,f,c
  7904   003E6A  5004               	movf	(fputc@fp+1)^0,w,c
  7905   003E6C  22DA               	addwfc	fsr2h,f,c
  7906   003E6E  50DE               	movf	postinc2,w,c
  7907   003E70  10DE               	iorwf	postinc2,w,c
  7908   003E72  B4D8               	btfsc	status,2,c
  7909   003E74  EF3E  F01F         	goto	u2681
  7910   003E78  EF40  F01F         	goto	u2680
  7911   003E7C                     u2681:
  7912   003E7C  EF5B  F01F         	goto	l3462
  7913   003E80                     u2680:
  7914   003E80  EE20 F009          	lfsr	2,9
  7915   003E84  5003               	movf	fputc@fp^0,w,c
  7916   003E86  26D9               	addwf	fsr2l,f,c
  7917   003E88  5004               	movf	(fputc@fp+1)^0,w,c
  7918   003E8A  22DA               	addwfc	fsr2h,f,c
  7919   003E8C  EE10 F003          	lfsr	1,3
  7920   003E90  5003               	movf	fputc@fp^0,w,c
  7921   003E92  26E1               	addwf	fsr1l,f,c
  7922   003E94  5004               	movf	(fputc@fp+1)^0,w,c
  7923   003E96  22E2               	addwfc	fsr1h,f,c
  7924   003E98  50DE               	movf	postinc2,w,c
  7925   003E9A  5CE6               	subwf	postinc1,w,c
  7926   003E9C  50E6               	movf	postinc1,w,c
  7927   003E9E  0A80               	xorlw	128
  7928   003EA0  6E09               	movwf	(??_fputc+4)^0,c
  7929   003EA2  50DE               	movf	postinc2,w,c
  7930   003EA4  0A80               	xorlw	128
  7931   003EA6  5809               	subwfb	(??_fputc+4)^0,w,c
  7932   003EA8  B0D8               	btfsc	status,0,c
  7933   003EAA  EF59  F01F         	goto	u2691
  7934   003EAE  EF5B  F01F         	goto	u2690
  7935   003EB2                     u2691:
  7936   003EB2  EF7E  F01F         	goto	l1447
  7937   003EB6                     u2690:
  7938   003EB6                     l3462:
  7939   003EB6  EE20 F003          	lfsr	2,3
  7940   003EBA  5003               	movf	fputc@fp^0,w,c
  7941   003EBC  26D9               	addwf	fsr2l,f,c
  7942   003EBE  5004               	movf	(fputc@fp+1)^0,w,c
  7943   003EC0  22DA               	addwfc	fsr2h,f,c
  7944   003EC2  CFDE F005          	movff	postinc2,??_fputc
  7945   003EC6  CFDD F006          	movff	postdec2,??_fputc+1
  7946   003ECA  C003  FFD9         	movff	fputc@fp,fsr2l
  7947   003ECE  C004  FFDA         	movff	fputc@fp+1,fsr2h
  7948   003ED2  CFDE F007          	movff	postinc2,??_fputc+2
  7949   003ED6  CFDD F008          	movff	postdec2,??_fputc+3
  7950   003EDA  5005               	movf	??_fputc^0,w,c
  7951   003EDC  2407               	addwf	(??_fputc+2)^0,w,c
  7952   003EDE  6ED9               	movwf	fsr2l,c
  7953   003EE0  5006               	movf	(??_fputc+1)^0,w,c
  7954   003EE2  2008               	addwfc	(??_fputc+3)^0,w,c
  7955   003EE4  6EDA               	movwf	fsr2h,c
  7956   003EE6  C001  FFDF         	movff	fputc@c,indf2
  7957   003EEA  EE20 F003          	lfsr	2,3
  7958   003EEE  5003               	movf	fputc@fp^0,w,c
  7959   003EF0  26D9               	addwf	fsr2l,f,c
  7960   003EF2  5004               	movf	(fputc@fp+1)^0,w,c
  7961   003EF4  22DA               	addwfc	fsr2h,f,c
  7962   003EF6  2ADE               	incf	postinc2,f,c
  7963   003EF8  0E00               	movlw	0
  7964   003EFA  22DD               	addwfc	postdec2,f,c
  7965   003EFC                     l1447:
  7966   003EFC  0012               	return		;funcret
  7967   003EFE                     __end_of_fputc:
  7968                           	callstack 0
  7969                           
  7970 ;; *************** function _putch *****************
  7971 ;; Defined at:
  7972 ;;		line 7 in file "C:\Program Files\Microchip\xc8\v2.40\pic\sources\c99\common\putch.c"
  7973 ;; Parameters:    Size  Location     Type
  7974 ;;  c               1    wreg     unsigned char 
  7975 ;; Auto vars:     Size  Location     Type
  7976 ;;  c               1    0[COMRAM] unsigned char 
  7977 ;; Return value:  Size  Location     Type
  7978 ;;                  1    wreg      void 
  7979 ;; Registers used:
  7980 ;;		wreg
  7981 ;; Tracked objects:
  7982 ;;		On entry : 0/0
  7983 ;;		On exit  : 0/0
  7984 ;;		Unchanged: 0/0
  7985 ;; Data sizes:     COMRAM   BANK0   BANK1   BANK2   BANK3   BANK4   BANK5   BANK6   BANK7
  7986 ;;      Params:         0       0       0       0       0       0       0       0       0
  7987 ;;      Locals:         0       0       0       0       0       0       0       0       0
  7988 ;;      Temps:          0       0       0       0       0       0       0       0       0
  7989 ;;      Totals:         0       0       0       0       0       0       0       0       0
  7990 ;;Total ram usage:        0 bytes
  7991 ;; Hardware stack levels used: 1
  7992 ;; Hardware stack levels required when called: 1
  7993 ;; This function calls:
  7994 ;;		Nothing
  7995 ;; This function is called by:
  7996 ;;		_fputc
  7997 ;; This function uses a non-reentrant model
  7998 ;;
  7999                           
  8000                           	psect	text21
  8001   004752                     __ptext21:
  8002                           	callstack 0
  8003   004752                     _putch:
  8004                           	callstack 21
  8005   004752  0012               	return		;funcret
  8006   004754                     __end_of_putch:
  8007                           	callstack 0
  8008                           
  8009 ;; *************** function _abs *****************
  8010 ;; Defined at:
  8011 ;;		line 1 in file "C:\Program Files\Microchip\xc8\v2.40\pic\sources\c99\common\abs.c"
  8012 ;; Parameters:    Size  Location     Type
  8013 ;;  a               2   18[COMRAM] int 
  8014 ;; Auto vars:     Size  Location     Type
  8015 ;;		None
  8016 ;; Return value:  Size  Location     Type
  8017 ;;                  2   18[COMRAM] int 
  8018 ;; Registers used:
  8019 ;;		wreg, status,2, status,0
  8020 ;; Tracked objects:
  8021 ;;		On entry : 0/0
  8022 ;;		On exit  : 0/0
  8023 ;;		Unchanged: 0/0
  8024 ;; Data sizes:     COMRAM   BANK0   BANK1   BANK2   BANK3   BANK4   BANK5   BANK6   BANK7
  8025 ;;      Params:         2       0       0       0       0       0       0       0       0
  8026 ;;      Locals:         0       0       0       0       0       0       0       0       0
  8027 ;;      Temps:          2       0       0       0       0       0       0       0       0
  8028 ;;      Totals:         4       0       0       0       0       0       0       0       0
  8029 ;;Total ram usage:        4 bytes
  8030 ;; Hardware stack levels used: 1
  8031 ;; Hardware stack levels required when called: 1
  8032 ;; This function calls:
  8033 ;;		Nothing
  8034 ;; This function is called by:
  8035 ;;		_dtoa
  8036 ;; This function uses a non-reentrant model
  8037 ;;
  8038                           
  8039                           	psect	text22
  8040   0044DC                     __ptext22:
  8041                           	callstack 0
  8042   0044DC                     _abs:
  8043                           	callstack 24
  8044   0044DC  BE14               	btfsc	(abs@a+1)^0,7,c
  8045   0044DE  EF7B  F022         	goto	u2860
  8046   0044E2  5014               	movf	(abs@a+1)^0,w,c
  8047   0044E4  E106               	bnz	u2861
  8048   0044E6  0413               	decf	abs@a^0,w,c
  8049   0044E8  B0D8               	btfsc	status,0,c
  8050   0044EA  EF79  F022         	goto	u2861
  8051   0044EE  EF7B  F022         	goto	u2860
  8052   0044F2                     u2861:
  8053   0044F2  EF89  F022         	goto	l1432
  8054   0044F6                     u2860:
  8055   0044F6  C013  F015         	movff	abs@a,??_abs
  8056   0044FA  C014  F016         	movff	abs@a+1,??_abs+1
  8057   0044FE  1E15               	comf	??_abs^0,f,c
  8058   004500  1E16               	comf	(??_abs+1)^0,f,c
  8059   004502  4A15               	infsnz	??_abs^0,f,c
  8060   004504  2A16               	incf	(??_abs+1)^0,f,c
  8061   004506  C015  F013         	movff	??_abs,?_abs
  8062   00450A  C016  F014         	movff	??_abs+1,?_abs+1
  8063   00450E  EF8D  F022         	goto	l1435
  8064   004512                     l1432:
  8065   004512  C013  F013         	movff	abs@a,?_abs
  8066   004516  C014  F014         	movff	abs@a+1,?_abs+1
  8067   00451A                     l1435:
  8068   00451A  0012               	return		;funcret
  8069   00451C                     __end_of_abs:
  8070                           	callstack 0
  8071                           
  8072 ;; *************** function ___aomod *****************
  8073 ;; Defined at:
  8074 ;;		line 9 in file "C:\Program Files\Microchip\xc8\v2.40\pic\sources\c99\common\aomod.c"
  8075 ;; Parameters:    Size  Location     Type
  8076 ;;  dividend        8    0[COMRAM] long long 
  8077 ;;  divisor         8    8[COMRAM] long long 
  8078 ;; Auto vars:     Size  Location     Type
  8079 ;;  sign            1   17[COMRAM] unsigned char 
  8080 ;;  counter         1   16[COMRAM] unsigned char 
  8081 ;; Return value:  Size  Location     Type
  8082 ;;                  8    0[COMRAM] long long 
  8083 ;; Registers used:
  8084 ;;		wreg, status,2, status,0
  8085 ;; Tracked objects:
  8086 ;;		On entry : 0/0
  8087 ;;		On exit  : 0/0
  8088 ;;		Unchanged: 0/0
  8089 ;; Data sizes:     COMRAM   BANK0   BANK1   BANK2   BANK3   BANK4   BANK5   BANK6   BANK7
  8090 ;;      Params:        16       0       0       0       0       0       0       0       0
  8091 ;;      Locals:         2       0       0       0       0       0       0       0       0
  8092 ;;      Temps:          0       0       0       0       0       0       0       0       0
  8093 ;;      Totals:        18       0       0       0       0       0       0       0       0
  8094 ;;Total ram usage:       18 bytes
  8095 ;; Hardware stack levels used: 1
  8096 ;; Hardware stack levels required when called: 1
  8097 ;; This function calls:
  8098 ;;		Nothing
  8099 ;; This function is called by:
  8100 ;;		_dtoa
  8101 ;; This function uses a non-reentrant model
  8102 ;;
  8103                           
  8104                           	psect	text23
  8105   0034E6                     __ptext23:
  8106                           	callstack 0
  8107   0034E6                     ___aomod:
  8108                           	callstack 24
  8109   0034E6  0E00               	movlw	0
  8110   0034E8  6E12               	movwf	___aomod@sign^0,c
  8111   0034EA  BE08               	btfsc	(___aomod@dividend+7)^0,7,c
  8112   0034EC  EF7C  F01A         	goto	u2780
  8113   0034F0  EF7A  F01A         	goto	u2781
  8114   0034F4                     u2781:
  8115   0034F4  EF8E  F01A         	goto	l3526
  8116   0034F8                     u2780:
  8117   0034F8  1E08               	comf	(___aomod@dividend+7)^0,f,c
  8118   0034FA  1E07               	comf	(___aomod@dividend+6)^0,f,c
  8119   0034FC  1E06               	comf	(___aomod@dividend+5)^0,f,c
  8120   0034FE  1E05               	comf	(___aomod@dividend+4)^0,f,c
  8121   003500  1E04               	comf	(___aomod@dividend+3)^0,f,c
  8122   003502  1E03               	comf	(___aomod@dividend+2)^0,f,c
  8123   003504  1E02               	comf	(___aomod@dividend+1)^0,f,c
  8124   003506  6C01               	negf	___aomod@dividend^0,c
  8125   003508  0E00               	movlw	0
  8126   00350A  2202               	addwfc	(___aomod@dividend+1)^0,f,c
  8127   00350C  2203               	addwfc	(___aomod@dividend+2)^0,f,c
  8128   00350E  2204               	addwfc	(___aomod@dividend+3)^0,f,c
  8129   003510  2205               	addwfc	(___aomod@dividend+4)^0,f,c
  8130   003512  2206               	addwfc	(___aomod@dividend+5)^0,f,c
  8131   003514  2207               	addwfc	(___aomod@dividend+6)^0,f,c
  8132   003516  2208               	addwfc	(___aomod@dividend+7)^0,f,c
  8133   003518  0E01               	movlw	1
  8134   00351A  6E12               	movwf	___aomod@sign^0,c
  8135   00351C                     l3526:
  8136   00351C  BE10               	btfsc	(___aomod@divisor+7)^0,7,c
  8137   00351E  EF95  F01A         	goto	u2790
  8138   003522  EF93  F01A         	goto	u2791
  8139   003526                     u2791:
  8140   003526  EFA5  F01A         	goto	l3530
  8141   00352A                     u2790:
  8142   00352A  1E10               	comf	(___aomod@divisor+7)^0,f,c
  8143   00352C  1E0F               	comf	(___aomod@divisor+6)^0,f,c
  8144   00352E  1E0E               	comf	(___aomod@divisor+5)^0,f,c
  8145   003530  1E0D               	comf	(___aomod@divisor+4)^0,f,c
  8146   003532  1E0C               	comf	(___aomod@divisor+3)^0,f,c
  8147   003534  1E0B               	comf	(___aomod@divisor+2)^0,f,c
  8148   003536  1E0A               	comf	(___aomod@divisor+1)^0,f,c
  8149   003538  6C09               	negf	___aomod@divisor^0,c
  8150   00353A  0E00               	movlw	0
  8151   00353C  220A               	addwfc	(___aomod@divisor+1)^0,f,c
  8152   00353E  220B               	addwfc	(___aomod@divisor+2)^0,f,c
  8153   003540  220C               	addwfc	(___aomod@divisor+3)^0,f,c
  8154   003542  220D               	addwfc	(___aomod@divisor+4)^0,f,c
  8155   003544  220E               	addwfc	(___aomod@divisor+5)^0,f,c
  8156   003546  220F               	addwfc	(___aomod@divisor+6)^0,f,c
  8157   003548  2210               	addwfc	(___aomod@divisor+7)^0,f,c
  8158   00354A                     l3530:
  8159   00354A  5009               	movf	___aomod@divisor^0,w,c
  8160   00354C  100A               	iorwf	(___aomod@divisor+1)^0,w,c
  8161   00354E  100B               	iorwf	(___aomod@divisor+2)^0,w,c
  8162   003550  100C               	iorwf	(___aomod@divisor+3)^0,w,c
  8163   003552  100D               	iorwf	(___aomod@divisor+4)^0,w,c
  8164   003554  100E               	iorwf	(___aomod@divisor+5)^0,w,c
  8165   003556  100F               	iorwf	(___aomod@divisor+6)^0,w,c
  8166   003558  1010               	iorwf	(___aomod@divisor+7)^0,w,c
  8167   00355A  B4D8               	btfsc	status,2,c
  8168   00355C  EFB2  F01A         	goto	u2801
  8169   003560  EFB4  F01A         	goto	u2800
  8170   003564                     u2801:
  8171   003564  EFFC  F01A         	goto	l3546
  8172   003568                     u2800:
  8173   003568  0E01               	movlw	1
  8174   00356A  6E11               	movwf	___aomod@counter^0,c
  8175   00356C  EFC2  F01A         	goto	l3536
  8176   003570                     l3534:
  8177   003570  90D8               	bcf	status,0,c
  8178   003572  3609               	rlcf	___aomod@divisor^0,f,c
  8179   003574  360A               	rlcf	(___aomod@divisor+1)^0,f,c
  8180   003576  360B               	rlcf	(___aomod@divisor+2)^0,f,c
  8181   003578  360C               	rlcf	(___aomod@divisor+3)^0,f,c
  8182   00357A  360D               	rlcf	(___aomod@divisor+4)^0,f,c
  8183   00357C  360E               	rlcf	(___aomod@divisor+5)^0,f,c
  8184   00357E  360F               	rlcf	(___aomod@divisor+6)^0,f,c
  8185   003580  3610               	rlcf	(___aomod@divisor+7)^0,f,c
  8186   003582  2A11               	incf	___aomod@counter^0,f,c
  8187   003584                     l3536:
  8188   003584  AE10               	btfss	(___aomod@divisor+7)^0,7,c
  8189   003586  EFC7  F01A         	goto	u2811
  8190   00358A  EFC9  F01A         	goto	u2810
  8191   00358E                     u2811:
  8192   00358E  EFB8  F01A         	goto	l3534
  8193   003592                     u2810:
  8194   003592                     l3538:
  8195   003592  5009               	movf	___aomod@divisor^0,w,c
  8196   003594  5C01               	subwf	___aomod@dividend^0,w,c
  8197   003596  500A               	movf	(___aomod@divisor+1)^0,w,c
  8198   003598  5802               	subwfb	(___aomod@dividend+1)^0,w,c
  8199   00359A  500B               	movf	(___aomod@divisor+2)^0,w,c
  8200   00359C  5803               	subwfb	(___aomod@dividend+2)^0,w,c
  8201   00359E  500C               	movf	(___aomod@divisor+3)^0,w,c
  8202   0035A0  5804               	subwfb	(___aomod@dividend+3)^0,w,c
  8203   0035A2  500D               	movf	(___aomod@divisor+4)^0,w,c
  8204   0035A4  5805               	subwfb	(___aomod@dividend+4)^0,w,c
  8205   0035A6  500E               	movf	(___aomod@divisor+5)^0,w,c
  8206   0035A8  5806               	subwfb	(___aomod@dividend+5)^0,w,c
  8207   0035AA  500F               	movf	(___aomod@divisor+6)^0,w,c
  8208   0035AC  5807               	subwfb	(___aomod@dividend+6)^0,w,c
  8209   0035AE  5010               	movf	(___aomod@divisor+7)^0,w,c
  8210   0035B0  5808               	subwfb	(___aomod@dividend+7)^0,w,c
  8211   0035B2  A0D8               	btfss	status,0,c
  8212   0035B4  EFDE  F01A         	goto	u2821
  8213   0035B8  EFE0  F01A         	goto	u2820
  8214   0035BC                     u2821:
  8215   0035BC  EFF0  F01A         	goto	l3542
  8216   0035C0                     u2820:
  8217   0035C0  5009               	movf	___aomod@divisor^0,w,c
  8218   0035C2  5E01               	subwf	___aomod@dividend^0,f,c
  8219   0035C4  500A               	movf	(___aomod@divisor+1)^0,w,c
  8220   0035C6  5A02               	subwfb	(___aomod@dividend+1)^0,f,c
  8221   0035C8  500B               	movf	(___aomod@divisor+2)^0,w,c
  8222   0035CA  5A03               	subwfb	(___aomod@dividend+2)^0,f,c
  8223   0035CC  500C               	movf	(___aomod@divisor+3)^0,w,c
  8224   0035CE  5A04               	subwfb	(___aomod@dividend+3)^0,f,c
  8225   0035D0  500D               	movf	(___aomod@divisor+4)^0,w,c
  8226   0035D2  5A05               	subwfb	(___aomod@dividend+4)^0,f,c
  8227   0035D4  500E               	movf	(___aomod@divisor+5)^0,w,c
  8228   0035D6  5A06               	subwfb	(___aomod@dividend+5)^0,f,c
  8229   0035D8  500F               	movf	(___aomod@divisor+6)^0,w,c
  8230   0035DA  5A07               	subwfb	(___aomod@dividend+6)^0,f,c
  8231   0035DC  5010               	movf	(___aomod@divisor+7)^0,w,c
  8232   0035DE  5A08               	subwfb	(___aomod@dividend+7)^0,f,c
  8233   0035E0                     l3542:
  8234   0035E0  90D8               	bcf	status,0,c
  8235   0035E2  3210               	rrcf	(___aomod@divisor+7)^0,f,c
  8236   0035E4  320F               	rrcf	(___aomod@divisor+6)^0,f,c
  8237   0035E6  320E               	rrcf	(___aomod@divisor+5)^0,f,c
  8238   0035E8  320D               	rrcf	(___aomod@divisor+4)^0,f,c
  8239   0035EA  320C               	rrcf	(___aomod@divisor+3)^0,f,c
  8240   0035EC  320B               	rrcf	(___aomod@divisor+2)^0,f,c
  8241   0035EE  320A               	rrcf	(___aomod@divisor+1)^0,f,c
  8242   0035F0  3209               	rrcf	___aomod@divisor^0,f,c
  8243   0035F2  2E11               	decfsz	___aomod@counter^0,f,c
  8244   0035F4  EFC9  F01A         	goto	l3538
  8245   0035F8                     l3546:
  8246   0035F8  5012               	movf	___aomod@sign^0,w,c
  8247   0035FA  B4D8               	btfsc	status,2,c
  8248   0035FC  EF02  F01B         	goto	u2831
  8249   003600  EF04  F01B         	goto	u2830
  8250   003604                     u2831:
  8251   003604  EF14  F01B         	goto	l3550
  8252   003608                     u2830:
  8253   003608  1E08               	comf	(___aomod@dividend+7)^0,f,c
  8254   00360A  1E07               	comf	(___aomod@dividend+6)^0,f,c
  8255   00360C  1E06               	comf	(___aomod@dividend+5)^0,f,c
  8256   00360E  1E05               	comf	(___aomod@dividend+4)^0,f,c
  8257   003610  1E04               	comf	(___aomod@dividend+3)^0,f,c
  8258   003612  1E03               	comf	(___aomod@dividend+2)^0,f,c
  8259   003614  1E02               	comf	(___aomod@dividend+1)^0,f,c
  8260   003616  6C01               	negf	___aomod@dividend^0,c
  8261   003618  0E00               	movlw	0
  8262   00361A  2202               	addwfc	(___aomod@dividend+1)^0,f,c
  8263   00361C  2203               	addwfc	(___aomod@dividend+2)^0,f,c
  8264   00361E  2204               	addwfc	(___aomod@dividend+3)^0,f,c
  8265   003620  2205               	addwfc	(___aomod@dividend+4)^0,f,c
  8266   003622  2206               	addwfc	(___aomod@dividend+5)^0,f,c
  8267   003624  2207               	addwfc	(___aomod@dividend+6)^0,f,c
  8268   003626  2208               	addwfc	(___aomod@dividend+7)^0,f,c
  8269   003628                     l3550:
  8270   003628  C001  F001         	movff	___aomod@dividend,?___aomod
  8271   00362C  C002  F002         	movff	___aomod@dividend+1,?___aomod+1
  8272   003630  C003  F003         	movff	___aomod@dividend+2,?___aomod+2
  8273   003634  C004  F004         	movff	___aomod@dividend+3,?___aomod+3
  8274   003638  C005  F005         	movff	___aomod@dividend+4,?___aomod+4
  8275   00363C  C006  F006         	movff	___aomod@dividend+5,?___aomod+5
  8276   003640  C007  F007         	movff	___aomod@dividend+6,?___aomod+6
  8277   003644  C008  F008         	movff	___aomod@dividend+7,?___aomod+7
  8278   003648  0012               	return		;funcret
  8279   00364A                     __end_of___aomod:
  8280                           	callstack 0
  8281                           
  8282 ;; *************** function ___aodiv *****************
  8283 ;; Defined at:
  8284 ;;		line 9 in file "C:\Program Files\Microchip\xc8\v2.40\pic\sources\c99\common\aodiv.c"
  8285 ;; Parameters:    Size  Location     Type
  8286 ;;  dividend        8    0[COMRAM] long long 
  8287 ;;  divisor         8    8[COMRAM] long long 
  8288 ;; Auto vars:     Size  Location     Type
  8289 ;;  quotient        8   18[COMRAM] long long 
  8290 ;;  sign            1   17[COMRAM] unsigned char 
  8291 ;;  counter         1   16[COMRAM] unsigned char 
  8292 ;; Return value:  Size  Location     Type
  8293 ;;                  8    0[COMRAM] long long 
  8294 ;; Registers used:
  8295 ;;		wreg, fsr2l, fsr2h, status,2, status,0
  8296 ;; Tracked objects:
  8297 ;;		On entry : 0/0
  8298 ;;		On exit  : 0/0
  8299 ;;		Unchanged: 0/0
  8300 ;; Data sizes:     COMRAM   BANK0   BANK1   BANK2   BANK3   BANK4   BANK5   BANK6   BANK7
  8301 ;;      Params:        16       0       0       0       0       0       0       0       0
  8302 ;;      Locals:        10       0       0       0       0       0       0       0       0
  8303 ;;      Temps:          0       0       0       0       0       0       0       0       0
  8304 ;;      Totals:        26       0       0       0       0       0       0       0       0
  8305 ;;Total ram usage:       26 bytes
  8306 ;; Hardware stack levels used: 1
  8307 ;; Hardware stack levels required when called: 1
  8308 ;; This function calls:
  8309 ;;		Nothing
  8310 ;; This function is called by:
  8311 ;;		_dtoa
  8312 ;; This function uses a non-reentrant model
  8313 ;;
  8314                           
  8315                           	psect	text24
  8316   00335E                     __ptext24:
  8317                           	callstack 0
  8318   00335E                     ___aodiv:
  8319                           	callstack 24
  8320   00335E  0E00               	movlw	0
  8321   003360  6E12               	movwf	___aodiv@sign^0,c
  8322   003362  BE10               	btfsc	(___aodiv@divisor+7)^0,7,c
  8323   003364  EFB8  F019         	goto	u2710
  8324   003368  EFB6  F019         	goto	u2711
  8325   00336C                     u2711:
  8326   00336C  EFCA  F019         	goto	l3482
  8327   003370                     u2710:
  8328   003370  1E10               	comf	(___aodiv@divisor+7)^0,f,c
  8329   003372  1E0F               	comf	(___aodiv@divisor+6)^0,f,c
  8330   003374  1E0E               	comf	(___aodiv@divisor+5)^0,f,c
  8331   003376  1E0D               	comf	(___aodiv@divisor+4)^0,f,c
  8332   003378  1E0C               	comf	(___aodiv@divisor+3)^0,f,c
  8333   00337A  1E0B               	comf	(___aodiv@divisor+2)^0,f,c
  8334   00337C  1E0A               	comf	(___aodiv@divisor+1)^0,f,c
  8335   00337E  6C09               	negf	___aodiv@divisor^0,c
  8336   003380  0E00               	movlw	0
  8337   003382  220A               	addwfc	(___aodiv@divisor+1)^0,f,c
  8338   003384  220B               	addwfc	(___aodiv@divisor+2)^0,f,c
  8339   003386  220C               	addwfc	(___aodiv@divisor+3)^0,f,c
  8340   003388  220D               	addwfc	(___aodiv@divisor+4)^0,f,c
  8341   00338A  220E               	addwfc	(___aodiv@divisor+5)^0,f,c
  8342   00338C  220F               	addwfc	(___aodiv@divisor+6)^0,f,c
  8343   00338E  2210               	addwfc	(___aodiv@divisor+7)^0,f,c
  8344   003390  0E01               	movlw	1
  8345   003392  6E12               	movwf	___aodiv@sign^0,c
  8346   003394                     l3482:
  8347   003394  BE08               	btfsc	(___aodiv@dividend+7)^0,7,c
  8348   003396  EFD1  F019         	goto	u2720
  8349   00339A  EFCF  F019         	goto	u2721
  8350   00339E                     u2721:
  8351   00339E  EFE3  F019         	goto	l3488
  8352   0033A2                     u2720:
  8353   0033A2  1E08               	comf	(___aodiv@dividend+7)^0,f,c
  8354   0033A4  1E07               	comf	(___aodiv@dividend+6)^0,f,c
  8355   0033A6  1E06               	comf	(___aodiv@dividend+5)^0,f,c
  8356   0033A8  1E05               	comf	(___aodiv@dividend+4)^0,f,c
  8357   0033AA  1E04               	comf	(___aodiv@dividend+3)^0,f,c
  8358   0033AC  1E03               	comf	(___aodiv@dividend+2)^0,f,c
  8359   0033AE  1E02               	comf	(___aodiv@dividend+1)^0,f,c
  8360   0033B0  6C01               	negf	___aodiv@dividend^0,c
  8361   0033B2  0E00               	movlw	0
  8362   0033B4  2202               	addwfc	(___aodiv@dividend+1)^0,f,c
  8363   0033B6  2203               	addwfc	(___aodiv@dividend+2)^0,f,c
  8364   0033B8  2204               	addwfc	(___aodiv@dividend+3)^0,f,c
  8365   0033BA  2205               	addwfc	(___aodiv@dividend+4)^0,f,c
  8366   0033BC  2206               	addwfc	(___aodiv@dividend+5)^0,f,c
  8367   0033BE  2207               	addwfc	(___aodiv@dividend+6)^0,f,c
  8368   0033C0  2208               	addwfc	(___aodiv@dividend+7)^0,f,c
  8369   0033C2  0E01               	movlw	1
  8370   0033C4  1A12               	xorwf	___aodiv@sign^0,f,c
  8371   0033C6                     l3488:
  8372   0033C6  EE20  F013         	lfsr	2,___aodiv@quotient
  8373   0033CA  0E07               	movlw	7
  8374   0033CC                     u2731:
  8375   0033CC  6ADE               	clrf	postinc2,c
  8376   0033CE  06E8               	decf	wreg,f,c
  8377   0033D0  E2FD               	bc	u2731
  8378   0033D2  5009               	movf	___aodiv@divisor^0,w,c
  8379   0033D4  100A               	iorwf	(___aodiv@divisor+1)^0,w,c
  8380   0033D6  100B               	iorwf	(___aodiv@divisor+2)^0,w,c
  8381   0033D8  100C               	iorwf	(___aodiv@divisor+3)^0,w,c
  8382   0033DA  100D               	iorwf	(___aodiv@divisor+4)^0,w,c
  8383   0033DC  100E               	iorwf	(___aodiv@divisor+5)^0,w,c
  8384   0033DE  100F               	iorwf	(___aodiv@divisor+6)^0,w,c
  8385   0033E0  1010               	iorwf	(___aodiv@divisor+7)^0,w,c
  8386   0033E2  B4D8               	btfsc	status,2,c
  8387   0033E4  EFF6  F019         	goto	u2741
  8388   0033E8  EFF8  F019         	goto	u2740
  8389   0033EC                     u2741:
  8390   0033EC  EF4A  F01A         	goto	l3510
  8391   0033F0                     u2740:
  8392   0033F0  0E01               	movlw	1
  8393   0033F2  6E11               	movwf	___aodiv@counter^0,c
  8394   0033F4  EF06  F01A         	goto	l3496
  8395   0033F8                     l3494:
  8396   0033F8  90D8               	bcf	status,0,c
  8397   0033FA  3609               	rlcf	___aodiv@divisor^0,f,c
  8398   0033FC  360A               	rlcf	(___aodiv@divisor+1)^0,f,c
  8399   0033FE  360B               	rlcf	(___aodiv@divisor+2)^0,f,c
  8400   003400  360C               	rlcf	(___aodiv@divisor+3)^0,f,c
  8401   003402  360D               	rlcf	(___aodiv@divisor+4)^0,f,c
  8402   003404  360E               	rlcf	(___aodiv@divisor+5)^0,f,c
  8403   003406  360F               	rlcf	(___aodiv@divisor+6)^0,f,c
  8404   003408  3610               	rlcf	(___aodiv@divisor+7)^0,f,c
  8405   00340A  2A11               	incf	___aodiv@counter^0,f,c
  8406   00340C                     l3496:
  8407   00340C  AE10               	btfss	(___aodiv@divisor+7)^0,7,c
  8408   00340E  EF0B  F01A         	goto	u2751
  8409   003412  EF0D  F01A         	goto	u2750
  8410   003416                     u2751:
  8411   003416  EFFC  F019         	goto	l3494
  8412   00341A                     u2750:
  8413   00341A                     l3498:
  8414   00341A  90D8               	bcf	status,0,c
  8415   00341C  3613               	rlcf	___aodiv@quotient^0,f,c
  8416   00341E  3614               	rlcf	(___aodiv@quotient+1)^0,f,c
  8417   003420  3615               	rlcf	(___aodiv@quotient+2)^0,f,c
  8418   003422  3616               	rlcf	(___aodiv@quotient+3)^0,f,c
  8419   003424  3617               	rlcf	(___aodiv@quotient+4)^0,f,c
  8420   003426  3618               	rlcf	(___aodiv@quotient+5)^0,f,c
  8421   003428  3619               	rlcf	(___aodiv@quotient+6)^0,f,c
  8422   00342A  361A               	rlcf	(___aodiv@quotient+7)^0,f,c
  8423   00342C  5009               	movf	___aodiv@divisor^0,w,c
  8424   00342E  5C01               	subwf	___aodiv@dividend^0,w,c
  8425   003430  500A               	movf	(___aodiv@divisor+1)^0,w,c
  8426   003432  5802               	subwfb	(___aodiv@dividend+1)^0,w,c
  8427   003434  500B               	movf	(___aodiv@divisor+2)^0,w,c
  8428   003436  5803               	subwfb	(___aodiv@dividend+2)^0,w,c
  8429   003438  500C               	movf	(___aodiv@divisor+3)^0,w,c
  8430   00343A  5804               	subwfb	(___aodiv@dividend+3)^0,w,c
  8431   00343C  500D               	movf	(___aodiv@divisor+4)^0,w,c
  8432   00343E  5805               	subwfb	(___aodiv@dividend+4)^0,w,c
  8433   003440  500E               	movf	(___aodiv@divisor+5)^0,w,c
  8434   003442  5806               	subwfb	(___aodiv@dividend+5)^0,w,c
  8435   003444  500F               	movf	(___aodiv@divisor+6)^0,w,c
  8436   003446  5807               	subwfb	(___aodiv@dividend+6)^0,w,c
  8437   003448  5010               	movf	(___aodiv@divisor+7)^0,w,c
  8438   00344A  5808               	subwfb	(___aodiv@dividend+7)^0,w,c
  8439   00344C  A0D8               	btfss	status,0,c
  8440   00344E  EF2B  F01A         	goto	u2761
  8441   003452  EF2D  F01A         	goto	u2760
  8442   003456                     u2761:
  8443   003456  EF3E  F01A         	goto	l3506
  8444   00345A                     u2760:
  8445   00345A  5009               	movf	___aodiv@divisor^0,w,c
  8446   00345C  5E01               	subwf	___aodiv@dividend^0,f,c
  8447   00345E  500A               	movf	(___aodiv@divisor+1)^0,w,c
  8448   003460  5A02               	subwfb	(___aodiv@dividend+1)^0,f,c
  8449   003462  500B               	movf	(___aodiv@divisor+2)^0,w,c
  8450   003464  5A03               	subwfb	(___aodiv@dividend+2)^0,f,c
  8451   003466  500C               	movf	(___aodiv@divisor+3)^0,w,c
  8452   003468  5A04               	subwfb	(___aodiv@dividend+3)^0,f,c
  8453   00346A  500D               	movf	(___aodiv@divisor+4)^0,w,c
  8454   00346C  5A05               	subwfb	(___aodiv@dividend+4)^0,f,c
  8455   00346E  500E               	movf	(___aodiv@divisor+5)^0,w,c
  8456   003470  5A06               	subwfb	(___aodiv@dividend+5)^0,f,c
  8457   003472  500F               	movf	(___aodiv@divisor+6)^0,w,c
  8458   003474  5A07               	subwfb	(___aodiv@dividend+6)^0,f,c
  8459   003476  5010               	movf	(___aodiv@divisor+7)^0,w,c
  8460   003478  5A08               	subwfb	(___aodiv@dividend+7)^0,f,c
  8461   00347A  8013               	bsf	___aodiv@quotient^0,0,c
  8462   00347C                     l3506:
  8463   00347C  90D8               	bcf	status,0,c
  8464   00347E  3210               	rrcf	(___aodiv@divisor+7)^0,f,c
  8465   003480  320F               	rrcf	(___aodiv@divisor+6)^0,f,c
  8466   003482  320E               	rrcf	(___aodiv@divisor+5)^0,f,c
  8467   003484  320D               	rrcf	(___aodiv@divisor+4)^0,f,c
  8468   003486  320C               	rrcf	(___aodiv@divisor+3)^0,f,c
  8469   003488  320B               	rrcf	(___aodiv@divisor+2)^0,f,c
  8470   00348A  320A               	rrcf	(___aodiv@divisor+1)^0,f,c
  8471   00348C  3209               	rrcf	___aodiv@divisor^0,f,c
  8472   00348E  2E11               	decfsz	___aodiv@counter^0,f,c
  8473   003490  EF0D  F01A         	goto	l3498
  8474   003494                     l3510:
  8475   003494  5012               	movf	___aodiv@sign^0,w,c
  8476   003496  B4D8               	btfsc	status,2,c
  8477   003498  EF50  F01A         	goto	u2771
  8478   00349C  EF52  F01A         	goto	u2770
  8479   0034A0                     u2771:
  8480   0034A0  EF62  F01A         	goto	l3514
  8481   0034A4                     u2770:
  8482   0034A4  1E1A               	comf	(___aodiv@quotient+7)^0,f,c
  8483   0034A6  1E19               	comf	(___aodiv@quotient+6)^0,f,c
  8484   0034A8  1E18               	comf	(___aodiv@quotient+5)^0,f,c
  8485   0034AA  1E17               	comf	(___aodiv@quotient+4)^0,f,c
  8486   0034AC  1E16               	comf	(___aodiv@quotient+3)^0,f,c
  8487   0034AE  1E15               	comf	(___aodiv@quotient+2)^0,f,c
  8488   0034B0  1E14               	comf	(___aodiv@quotient+1)^0,f,c
  8489   0034B2  6C13               	negf	___aodiv@quotient^0,c
  8490   0034B4  0E00               	movlw	0
  8491   0034B6  2214               	addwfc	(___aodiv@quotient+1)^0,f,c
  8492   0034B8  2215               	addwfc	(___aodiv@quotient+2)^0,f,c
  8493   0034BA  2216               	addwfc	(___aodiv@quotient+3)^0,f,c
  8494   0034BC  2217               	addwfc	(___aodiv@quotient+4)^0,f,c
  8495   0034BE  2218               	addwfc	(___aodiv@quotient+5)^0,f,c
  8496   0034C0  2219               	addwfc	(___aodiv@quotient+6)^0,f,c
  8497   0034C2  221A               	addwfc	(___aodiv@quotient+7)^0,f,c
  8498   0034C4                     l3514:
  8499   0034C4  C013  F001         	movff	___aodiv@quotient,?___aodiv
  8500   0034C8  C014  F002         	movff	___aodiv@quotient+1,?___aodiv+1
  8501   0034CC  C015  F003         	movff	___aodiv@quotient+2,?___aodiv+2
  8502   0034D0  C016  F004         	movff	___aodiv@quotient+3,?___aodiv+3
  8503   0034D4  C017  F005         	movff	___aodiv@quotient+4,?___aodiv+4
  8504   0034D8  C018  F006         	movff	___aodiv@quotient+5,?___aodiv+5
  8505   0034DC  C019  F007         	movff	___aodiv@quotient+6,?___aodiv+6
  8506   0034E0  C01A  F008         	movff	___aodiv@quotient+7,?___aodiv+7
  8507   0034E4  0012               	return		;funcret
  8508   0034E6                     __end_of___aodiv:
  8509                           	callstack 0
  8510                           
  8511 ;; *************** function _RTC_Get_Time *****************
  8512 ;; Defined at:
  8513 ;;		line 36 in file "RTC_Driver.c"
  8514 ;; Parameters:    Size  Location     Type
  8515 ;;  RTC             2    3[COMRAM] PTR struct .
  8516 ;;		 -> rtc(7), 
  8517 ;; Auto vars:     Size  Location     Type
  8518 ;;		None
  8519 ;; Return value:  Size  Location     Type
  8520 ;;                  1    wreg      void 
  8521 ;; Registers used:
  8522 ;;		wreg, fsr2l, fsr2h, status,2, status,0, cstack
  8523 ;; Tracked objects:
  8524 ;;		On entry : 0/0
  8525 ;;		On exit  : 0/0
  8526 ;;		Unchanged: 0/0
  8527 ;; Data sizes:     COMRAM   BANK0   BANK1   BANK2   BANK3   BANK4   BANK5   BANK6   BANK7
  8528 ;;      Params:         2       0       0       0       0       0       0       0       0
  8529 ;;      Locals:         0       0       0       0       0       0       0       0       0
  8530 ;;      Temps:          0       0       0       0       0       0       0       0       0
  8531 ;;      Totals:         2       0       0       0       0       0       0       0       0
  8532 ;;Total ram usage:        2 bytes
  8533 ;; Hardware stack levels used: 1
  8534 ;; Hardware stack levels required when called: 4
  8535 ;; This function calls:
  8536 ;;		_I2C_Read
  8537 ;;		_I2C_Repeated_Start
  8538 ;;		_I2C_Start
  8539 ;;		_I2C_Stop
  8540 ;;		_I2C_Write
  8541 ;; This function is called by:
  8542 ;;		_Screen_Date_Time
  8543 ;; This function uses a non-reentrant model
  8544 ;;
  8545                           
  8546                           	psect	text25
  8547   00436C                     __ptext25:
  8548                           	callstack 0
  8549   00436C                     _RTC_Get_Time:
  8550                           	callstack 25
  8551   00436C                     
  8552                           ;RTC_Driver.c: 36: void RTC_Get_Time(RTC_t *RTC);RTC_Driver.c: 37: {;RTC_Driver.c: 38:  
      +                             I2C_Start(0xD0);
  8553   00436C  0ED0               	movlw	208
  8554   00436E  ECF7  F022         	call	_I2C_Start
  8555   004372                     
  8556                           ;RTC_Driver.c: 39:     I2C_Write(0);
  8557   004372  0E00               	movlw	0
  8558   004374  EC1F  F023         	call	_I2C_Write
  8559   004378                     
  8560                           ;RTC_Driver.c: 40:     I2C_Repeated_Start(0xD1);
  8561   004378  0ED1               	movlw	209
  8562   00437A  ECE0  F022         	call	_I2C_Repeated_Start
  8563   00437E                     
  8564                           ;RTC_Driver.c: 41:     RTC->sec = I2C_Read(0);
  8565   00437E  0E00               	movlw	0
  8566   004380  EC8E  F022         	call	_I2C_Read
  8567   004384  C004  FFD9         	movff	RTC_Get_Time@RTC,fsr2l
  8568   004388  C005  FFDA         	movff	RTC_Get_Time@RTC+1,fsr2h
  8569   00438C  6EDF               	movwf	indf2,c
  8570   00438E                     
  8571                           ;RTC_Driver.c: 42:     RTC->min = I2C_Read(0);
  8572   00438E  EE20 F001          	lfsr	2,1
  8573   004392  5004               	movf	RTC_Get_Time@RTC^0,w,c
  8574   004394  26D9               	addwf	fsr2l,f,c
  8575   004396  5005               	movf	(RTC_Get_Time@RTC+1)^0,w,c
  8576   004398  22DA               	addwfc	fsr2h,f,c
  8577   00439A  0E00               	movlw	0
  8578   00439C  EC8E  F022         	call	_I2C_Read
  8579   0043A0  6EDF               	movwf	indf2,c
  8580   0043A2                     
  8581                           ;RTC_Driver.c: 43:     RTC->hour= I2C_Read(1);
  8582   0043A2  EE20 F002          	lfsr	2,2
  8583   0043A6  5004               	movf	RTC_Get_Time@RTC^0,w,c
  8584   0043A8  26D9               	addwf	fsr2l,f,c
  8585   0043AA  5005               	movf	(RTC_Get_Time@RTC+1)^0,w,c
  8586   0043AC  22DA               	addwfc	fsr2h,f,c
  8587   0043AE  0E01               	movlw	1
  8588   0043B0  EC8E  F022         	call	_I2C_Read
  8589   0043B4  6EDF               	movwf	indf2,c
  8590   0043B6                     
  8591                           ;RTC_Driver.c: 44:     I2C_Stop();
  8592   0043B6  EC30  F023         	call	_I2C_Stop	;wreg free
  8593   0043BA  0012               	return		;funcret
  8594   0043BC                     __end_of_RTC_Get_Time:
  8595                           	callstack 0
  8596                           
  8597 ;; *************** function _RTC_Get_Date *****************
  8598 ;; Defined at:
  8599 ;;		line 48 in file "RTC_Driver.c"
  8600 ;; Parameters:    Size  Location     Type
  8601 ;;  RTC             2    3[COMRAM] PTR struct .
  8602 ;;		 -> rtc(7), 
  8603 ;; Auto vars:     Size  Location     Type
  8604 ;;		None
  8605 ;; Return value:  Size  Location     Type
  8606 ;;                  1    wreg      void 
  8607 ;; Registers used:
  8608 ;;		wreg, fsr2l, fsr2h, status,2, status,0, cstack
  8609 ;; Tracked objects:
  8610 ;;		On entry : 0/0
  8611 ;;		On exit  : 0/0
  8612 ;;		Unchanged: 0/0
  8613 ;; Data sizes:     COMRAM   BANK0   BANK1   BANK2   BANK3   BANK4   BANK5   BANK6   BANK7
  8614 ;;      Params:         2       0       0       0       0       0       0       0       0
  8615 ;;      Locals:         0       0       0       0       0       0       0       0       0
  8616 ;;      Temps:          0       0       0       0       0       0       0       0       0
  8617 ;;      Totals:         2       0       0       0       0       0       0       0       0
  8618 ;;Total ram usage:        2 bytes
  8619 ;; Hardware stack levels used: 1
  8620 ;; Hardware stack levels required when called: 4
  8621 ;; This function calls:
  8622 ;;		_I2C_Read
  8623 ;;		_I2C_Repeated_Start
  8624 ;;		_I2C_Start
  8625 ;;		_I2C_Stop
  8626 ;;		_I2C_Write
  8627 ;; This function is called by:
  8628 ;;		_Screen_Date_Time
  8629 ;; This function uses a non-reentrant model
  8630 ;;
  8631                           
  8632                           	psect	text26
  8633   00424C                     __ptext26:
  8634                           	callstack 0
  8635   00424C                     _RTC_Get_Date:
  8636                           	callstack 25
  8637   00424C                     
  8638                           ;RTC_Driver.c: 48: void RTC_Get_Date(RTC_t *RTC);RTC_Driver.c: 49: {;RTC_Driver.c: 50:  
      +                             I2C_Start(0xD0);
  8639   00424C  0ED0               	movlw	208
  8640   00424E  ECF7  F022         	call	_I2C_Start
  8641   004252                     
  8642                           ;RTC_Driver.c: 51:     I2C_Write(3);
  8643   004252  0E03               	movlw	3
  8644   004254  EC1F  F023         	call	_I2C_Write
  8645   004258                     
  8646                           ;RTC_Driver.c: 52:     I2C_Repeated_Start(0xD1);
  8647   004258  0ED1               	movlw	209
  8648   00425A  ECE0  F022         	call	_I2C_Repeated_Start
  8649   00425E                     
  8650                           ;RTC_Driver.c: 53:     RTC->Day = I2C_Read(0);
  8651   00425E  EE20 F003          	lfsr	2,3
  8652   004262  5004               	movf	RTC_Get_Date@RTC^0,w,c
  8653   004264  26D9               	addwf	fsr2l,f,c
  8654   004266  5005               	movf	(RTC_Get_Date@RTC+1)^0,w,c
  8655   004268  22DA               	addwfc	fsr2h,f,c
  8656   00426A  0E00               	movlw	0
  8657   00426C  EC8E  F022         	call	_I2C_Read
  8658   004270  6EDF               	movwf	indf2,c
  8659   004272                     
  8660                           ;RTC_Driver.c: 54:     RTC->date = I2C_Read(0);
  8661   004272  EE20 F004          	lfsr	2,4
  8662   004276  5004               	movf	RTC_Get_Date@RTC^0,w,c
  8663   004278  26D9               	addwf	fsr2l,f,c
  8664   00427A  5005               	movf	(RTC_Get_Date@RTC+1)^0,w,c
  8665   00427C  22DA               	addwfc	fsr2h,f,c
  8666   00427E  0E00               	movlw	0
  8667   004280  EC8E  F022         	call	_I2C_Read
  8668   004284  6EDF               	movwf	indf2,c
  8669   004286                     
  8670                           ;RTC_Driver.c: 55:     RTC->month = I2C_Read(0);
  8671   004286  EE20 F005          	lfsr	2,5
  8672   00428A  5004               	movf	RTC_Get_Date@RTC^0,w,c
  8673   00428C  26D9               	addwf	fsr2l,f,c
  8674   00428E  5005               	movf	(RTC_Get_Date@RTC+1)^0,w,c
  8675   004290  22DA               	addwfc	fsr2h,f,c
  8676   004292  0E00               	movlw	0
  8677   004294  EC8E  F022         	call	_I2C_Read
  8678   004298  6EDF               	movwf	indf2,c
  8679   00429A                     
  8680                           ;RTC_Driver.c: 56:     RTC->year = I2C_Read(1);
  8681   00429A  EE20 F006          	lfsr	2,6
  8682   00429E  5004               	movf	RTC_Get_Date@RTC^0,w,c
  8683   0042A0  26D9               	addwf	fsr2l,f,c
  8684   0042A2  5005               	movf	(RTC_Get_Date@RTC+1)^0,w,c
  8685   0042A4  22DA               	addwfc	fsr2h,f,c
  8686   0042A6  0E01               	movlw	1
  8687   0042A8  EC8E  F022         	call	_I2C_Read
  8688   0042AC  6EDF               	movwf	indf2,c
  8689   0042AE                     
  8690                           ;RTC_Driver.c: 57:     I2C_Stop();
  8691   0042AE  EC30  F023         	call	_I2C_Stop	;wreg free
  8692   0042B2  0012               	return		;funcret
  8693   0042B4                     __end_of_RTC_Get_Date:
  8694                           	callstack 0
  8695                           
  8696 ;; *************** function _I2C_Repeated_Start *****************
  8697 ;; Defined at:
  8698 ;;		line 74 in file "I2C_Driver.c"
  8699 ;; Parameters:    Size  Location     Type
  8700 ;;  slave_read_a    1    wreg     unsigned char 
  8701 ;; Auto vars:     Size  Location     Type
  8702 ;;  slave_read_a    1    1[COMRAM] unsigned char 
  8703 ;; Return value:  Size  Location     Type
  8704 ;;                  1    wreg      unsigned char 
  8705 ;; Registers used:
  8706 ;;		wreg, status,2, cstack
  8707 ;; Tracked objects:
  8708 ;;		On entry : 0/0
  8709 ;;		On exit  : 0/0
  8710 ;;		Unchanged: 0/0
  8711 ;; Data sizes:     COMRAM   BANK0   BANK1   BANK2   BANK3   BANK4   BANK5   BANK6   BANK7
  8712 ;;      Params:         0       0       0       0       0       0       0       0       0
  8713 ;;      Locals:         1       0       0       0       0       0       0       0       0
  8714 ;;      Temps:          0       0       0       0       0       0       0       0       0
  8715 ;;      Totals:         1       0       0       0       0       0       0       0       0
  8716 ;;Total ram usage:        1 bytes
  8717 ;; Hardware stack levels used: 1
  8718 ;; Hardware stack levels required when called: 3
  8719 ;; This function calls:
  8720 ;;		_I2C_Write
  8721 ;; This function is called by:
  8722 ;;		_RTC_Get_Time
  8723 ;;		_RTC_Get_Date
  8724 ;; This function uses a non-reentrant model
  8725 ;;
  8726                           
  8727                           	psect	text27
  8728   0045C0                     __ptext27:
  8729                           	callstack 0
  8730   0045C0                     _I2C_Repeated_Start:
  8731                           	callstack 25
  8732                           
  8733                           ;incstack = 0
  8734                           ;I2C_Repeated_Start@slave_read_address stored from wreg
  8735   0045C0  6E02               	movwf	I2C_Repeated_Start@slave_read_address^0,c
  8736   0045C2                     
  8737                           ;I2C_Driver.c: 74: char I2C_Repeated_Start(char slave_read_address);I2C_Driver.c: 75: {;
      +                          I2C_Driver.c: 76:     RSEN = 1;
  8738   0045C2  82C5               	bsf	4037,1,c	;volatile
  8739   0045C4                     l278:
  8740   0045C4  B2C5               	btfsc	4037,1,c	;volatile
  8741   0045C6  EFE7  F022         	goto	u3231
  8742   0045CA  EFE9  F022         	goto	u3230
  8743   0045CE                     u3231:
  8744   0045CE  EFE2  F022         	goto	l278
  8745   0045D2                     u3230:
  8746   0045D2                     
  8747                           ;I2C_Driver.c: 78:     SSPIF = 0;
  8748   0045D2  969E               	bcf	3998,3,c	;volatile
  8749                           
  8750                           ;I2C_Driver.c: 79:     if (!SSPSTATbits.S)
  8751   0045D4  B6C7               	btfsc	199,3,c	;volatile
  8752   0045D6  EFEF  F022         	goto	u3241
  8753   0045DA  EFF1  F022         	goto	u3240
  8754   0045DE                     u3241:
  8755   0045DE  EFF3  F022         	goto	l3828
  8756   0045E2                     u3240:
  8757   0045E2  EFF6  F022         	goto	l282
  8758   0045E6                     l3828:
  8759                           
  8760                           ;I2C_Driver.c: 81:     I2C_Write(slave_read_address);
  8761   0045E6  5002               	movf	I2C_Repeated_Start@slave_read_address^0,w,c
  8762   0045E8  EC1F  F023         	call	_I2C_Write
  8763   0045EC                     l282:
  8764   0045EC  0012               	return		;funcret
  8765   0045EE                     __end_of_I2C_Repeated_Start:
  8766                           	callstack 0
  8767                           
  8768 ;; *************** function _I2C_Read *****************
  8769 ;; Defined at:
  8770 ;;		line 10 in file "I2C_Driver.c"
  8771 ;; Parameters:    Size  Location     Type
  8772 ;;  flag            1    wreg     unsigned char 
  8773 ;; Auto vars:     Size  Location     Type
  8774 ;;  flag            1    0[COMRAM] unsigned char 
  8775 ;;  buffer          2    1[COMRAM] int 
  8776 ;; Return value:  Size  Location     Type
  8777 ;;                  1    wreg      unsigned char 
  8778 ;; Registers used:
  8779 ;;		wreg, status,2, cstack
  8780 ;; Tracked objects:
  8781 ;;		On entry : 0/0
  8782 ;;		On exit  : 0/0
  8783 ;;		Unchanged: 0/0
  8784 ;; Data sizes:     COMRAM   BANK0   BANK1   BANK2   BANK3   BANK4   BANK5   BANK6   BANK7
  8785 ;;      Params:         0       0       0       0       0       0       0       0       0
  8786 ;;      Locals:         3       0       0       0       0       0       0       0       0
  8787 ;;      Temps:          0       0       0       0       0       0       0       0       0
  8788 ;;      Totals:         3       0       0       0       0       0       0       0       0
  8789 ;;Total ram usage:        3 bytes
  8790 ;; Hardware stack levels used: 1
  8791 ;; Hardware stack levels required when called: 2
  8792 ;; This function calls:
  8793 ;;		_I2C_Ack
  8794 ;;		_I2C_Nack
  8795 ;;		_I2C_Ready
  8796 ;; This function is called by:
  8797 ;;		_RTC_Get_Time
  8798 ;;		_RTC_Get_Date
  8799 ;; This function uses a non-reentrant model
  8800 ;;
  8801                           
  8802                           	psect	text28
  8803   00451C                     __ptext28:
  8804                           	callstack 0
  8805   00451C                     _I2C_Read:
  8806                           	callstack 26
  8807                           
  8808                           ;incstack = 0
  8809                           ;I2C_Read@flag stored from wreg
  8810   00451C  6E01               	movwf	I2C_Read@flag^0,c
  8811   00451E                     
  8812                           ;I2C_Driver.c: 13:     RCEN = 1;
  8813   00451E  86C5               	bsf	4037,3,c	;volatile
  8814   004520                     l243:
  8815   004520  A0C7               	btfss	199,0,c	;volatile
  8816   004522  EF95  F022         	goto	u3171
  8817   004526  EF97  F022         	goto	u3170
  8818   00452A                     u3171:
  8819   00452A  EF90  F022         	goto	l243
  8820   00452E                     u3170:
  8821   00452E                     
  8822                           ;I2C_Driver.c: 15:     buffer = SSPBUF;
  8823   00452E  CFC9 F002          	movff	4041,I2C_Read@buffer	;volatile
  8824   004532  6A03               	clrf	(I2C_Read@buffer+1)^0,c
  8825   004534                     
  8826                           ;I2C_Driver.c: 17:     if (flag == 0)
  8827   004534  5001               	movf	I2C_Read@flag^0,w,c
  8828   004536  A4D8               	btfss	status,2,c
  8829   004538  EFA0  F022         	goto	u3181
  8830   00453C  EFA2  F022         	goto	u3180
  8831   004540                     u3181:
  8832   004540  EFA6  F022         	goto	l3808
  8833   004544                     u3180:
  8834   004544                     
  8835                           ;I2C_Driver.c: 18:     {;I2C_Driver.c: 19:         I2C_Ack();
  8836   004544  EC7C  F023         	call	_I2C_Ack	;wreg free
  8837                           
  8838                           ;I2C_Driver.c: 20:     }
  8839   004548  EFA8  F022         	goto	l247
  8840   00454C                     l3808:
  8841                           
  8842                           ;I2C_Driver.c: 22:     {;I2C_Driver.c: 23:         I2C_Nack();
  8843   00454C  EC72  F023         	call	_I2C_Nack	;wreg free
  8844   004550                     l247:
  8845                           
  8846                           ;I2C_Driver.c: 25:     I2C_Ready();
  8847   004550  EC86  F023         	call	_I2C_Ready	;wreg free
  8848   004554                     
  8849                           ;I2C_Driver.c: 26:     return (char)buffer;
  8850   004554  5002               	movf	I2C_Read@buffer^0,w,c
  8851   004556  0012               	return		;funcret
  8852   004558                     __end_of_I2C_Read:
  8853                           	callstack 0
  8854                           
  8855 ;; *************** function _I2C_Nack *****************
  8856 ;; Defined at:
  8857 ;;		line 113 in file "I2C_Driver.c"
  8858 ;; Parameters:    Size  Location     Type
  8859 ;;		None
  8860 ;; Auto vars:     Size  Location     Type
  8861 ;;		None
  8862 ;; Return value:  Size  Location     Type
  8863 ;;                  1    wreg      void 
  8864 ;; Registers used:
  8865 ;;		None
  8866 ;; Tracked objects:
  8867 ;;		On entry : 0/0
  8868 ;;		On exit  : 0/0
  8869 ;;		Unchanged: 0/0
  8870 ;; Data sizes:     COMRAM   BANK0   BANK1   BANK2   BANK3   BANK4   BANK5   BANK6   BANK7
  8871 ;;      Params:         0       0       0       0       0       0       0       0       0
  8872 ;;      Locals:         0       0       0       0       0       0       0       0       0
  8873 ;;      Temps:          0       0       0       0       0       0       0       0       0
  8874 ;;      Totals:         0       0       0       0       0       0       0       0       0
  8875 ;;Total ram usage:        0 bytes
  8876 ;; Hardware stack levels used: 1
  8877 ;; Hardware stack levels required when called: 1
  8878 ;; This function calls:
  8879 ;;		Nothing
  8880 ;; This function is called by:
  8881 ;;		_I2C_Read
  8882 ;; This function uses a non-reentrant model
  8883 ;;
  8884                           
  8885                           	psect	text29
  8886   0046E4                     __ptext29:
  8887                           	callstack 0
  8888   0046E4                     _I2C_Nack:
  8889                           	callstack 26
  8890   0046E4                     
  8891                           ;I2C_Driver.c: 115:     ACKDT = 1;
  8892   0046E4  8AC5               	bsf	4037,5,c	;volatile
  8893                           
  8894                           ;I2C_Driver.c: 116:     ACKEN = 1;
  8895   0046E6  88C5               	bsf	4037,4,c	;volatile
  8896   0046E8                     l307:
  8897   0046E8  B8C5               	btfsc	4037,4,c	;volatile
  8898   0046EA  EF79  F023         	goto	u3051
  8899   0046EE  EF7B  F023         	goto	u3050
  8900   0046F2                     u3051:
  8901   0046F2  EF74  F023         	goto	l307
  8902   0046F6                     u3050:
  8903   0046F6  0012               	return		;funcret
  8904   0046F8                     __end_of_I2C_Nack:
  8905                           	callstack 0
  8906                           
  8907 ;; *************** function _I2C_Ack *****************
  8908 ;; Defined at:
  8909 ;;		line 106 in file "I2C_Driver.c"
  8910 ;; Parameters:    Size  Location     Type
  8911 ;;		None
  8912 ;; Auto vars:     Size  Location     Type
  8913 ;;		None
  8914 ;; Return value:  Size  Location     Type
  8915 ;;                  1    wreg      void 
  8916 ;; Registers used:
  8917 ;;		None
  8918 ;; Tracked objects:
  8919 ;;		On entry : 0/0
  8920 ;;		On exit  : 0/0
  8921 ;;		Unchanged: 0/0
  8922 ;; Data sizes:     COMRAM   BANK0   BANK1   BANK2   BANK3   BANK4   BANK5   BANK6   BANK7
  8923 ;;      Params:         0       0       0       0       0       0       0       0       0
  8924 ;;      Locals:         0       0       0       0       0       0       0       0       0
  8925 ;;      Temps:          0       0       0       0       0       0       0       0       0
  8926 ;;      Totals:         0       0       0       0       0       0       0       0       0
  8927 ;;Total ram usage:        0 bytes
  8928 ;; Hardware stack levels used: 1
  8929 ;; Hardware stack levels required when called: 1
  8930 ;; This function calls:
  8931 ;;		Nothing
  8932 ;; This function is called by:
  8933 ;;		_I2C_Read
  8934 ;; This function uses a non-reentrant model
  8935 ;;
  8936                           
  8937                           	psect	text30
  8938   0046F8                     __ptext30:
  8939                           	callstack 0
  8940   0046F8                     _I2C_Ack:
  8941                           	callstack 26
  8942   0046F8                     
  8943                           ;I2C_Driver.c: 108:     ACKDT = 0;
  8944   0046F8  9AC5               	bcf	4037,5,c	;volatile
  8945                           
  8946                           ;I2C_Driver.c: 109:     ACKEN = 1;
  8947   0046FA  88C5               	bsf	4037,4,c	;volatile
  8948   0046FC                     l301:
  8949   0046FC  B8C5               	btfsc	4037,4,c	;volatile
  8950   0046FE  EF83  F023         	goto	u3041
  8951   004702  EF85  F023         	goto	u3040
  8952   004706                     u3041:
  8953   004706  EF7E  F023         	goto	l301
  8954   00470A                     u3040:
  8955   00470A  0012               	return		;funcret
  8956   00470C                     __end_of_I2C_Ack:
  8957                           	callstack 0
  8958                           
  8959 ;; *************** function _LCD_write_string *****************
  8960 ;; Defined at:
  8961 ;;		line 168 in file "LCD_Driver.c"
  8962 ;; Parameters:    Size  Location     Type
  8963 ;;  str             2    2[COMRAM] PTR const unsigned char 
  8964 ;;		 -> STR_15(9), STR_14(9), STR_13(9), STR_12(9), 
  8965 ;;		 -> year(10), month(10), date(10), hours(10), 
  8966 ;;		 -> mins(10), secs(10), 
  8967 ;; Auto vars:     Size  Location     Type
  8968 ;;  i               2    6[COMRAM] int 
  8969 ;; Return value:  Size  Location     Type
  8970 ;;                  1    wreg      void 
  8971 ;; Registers used:
  8972 ;;		wreg, fsr1l, fsr1h, status,2, status,0, tblptrl, tblptrh, tblptru, cstack
  8973 ;; Tracked objects:
  8974 ;;		On entry : 0/0
  8975 ;;		On exit  : 0/0
  8976 ;;		Unchanged: 0/0
  8977 ;; Data sizes:     COMRAM   BANK0   BANK1   BANK2   BANK3   BANK4   BANK5   BANK6   BANK7
  8978 ;;      Params:         2       0       0       0       0       0       0       0       0
  8979 ;;      Locals:         2       0       0       0       0       0       0       0       0
  8980 ;;      Temps:          2       0       0       0       0       0       0       0       0
  8981 ;;      Totals:         6       0       0       0       0       0       0       0       0
  8982 ;;Total ram usage:        6 bytes
  8983 ;; Hardware stack levels used: 1
  8984 ;; Hardware stack levels required when called: 2
  8985 ;; This function calls:
  8986 ;;		_LCD_write
  8987 ;; This function is called by:
  8988 ;;		_Screen_Date_Time
  8989 ;;		_Screen_Device_1
  8990 ;;		_Screen_Device_2
  8991 ;; This function uses a non-reentrant model
  8992 ;;
  8993                           
  8994                           	psect	text31
  8995   004072                     __ptext31:
  8996                           	callstack 0
  8997   004072                     _LCD_write_string:
  8998                           	callstack 27
  8999   004072                     
  9000                           ;LCD_Driver.c: 169:     for (int i = 0; str[i] != '\0'; i++) {
  9001   004072  0E00               	movlw	0
  9002   004074  6E08               	movwf	(LCD_write_string@i+1)^0,c
  9003   004076  0E00               	movlw	0
  9004   004078  6E07               	movwf	LCD_write_string@i^0,c
  9005   00407A  EF59  F020         	goto	l3870
  9006   00407E                     l3866:
  9007                           
  9008                           ;LCD_Driver.c: 170:         LCD_write(str[i]);
  9009   00407E  5007               	movf	LCD_write_string@i^0,w,c
  9010   004080  2403               	addwf	LCD_write_string@str^0,w,c
  9011   004082  6E05               	movwf	??_LCD_write_string^0,c
  9012   004084  5008               	movf	(LCD_write_string@i+1)^0,w,c
  9013   004086  2004               	addwfc	(LCD_write_string@str+1)^0,w,c
  9014   004088  6E06               	movwf	(??_LCD_write_string+1)^0,c
  9015   00408A  C005  FFF6         	movff	??_LCD_write_string,tblptrl
  9016   00408E  C006  FFF7         	movff	??_LCD_write_string+1,tblptrh
  9017   004092  6AF8               	clrf	tblptru,c
  9018   004094  0E07               	movlw	(high __ramtop+-1)
  9019   004096  64F7               	cpfsgt	tblptrh,c
  9020   004098  D003               	bra	u3267
  9021   00409A  0008               	tblrd		*
  9022   00409C  50F5               	movf	tablat,w,c
  9023   00409E  D005               	bra	u3260
  9024   0040A0                     u3267:
  9025   0040A0  CFF6 FFE1          	movff	tblptrl,fsr1l
  9026   0040A4  CFF7 FFE2          	movff	tblptrh,fsr1h
  9027   0040A8  50E7               	movf	indf1,w,c
  9028   0040AA                     u3260:
  9029   0040AA  EC29  F022         	call	_LCD_write
  9030   0040AE                     
  9031                           ;LCD_Driver.c: 171:     }
  9032   0040AE  4A07               	infsnz	LCD_write_string@i^0,f,c
  9033   0040B0  2A08               	incf	(LCD_write_string@i+1)^0,f,c
  9034   0040B2                     l3870:
  9035   0040B2  5007               	movf	LCD_write_string@i^0,w,c
  9036   0040B4  2403               	addwf	LCD_write_string@str^0,w,c
  9037   0040B6  6E05               	movwf	??_LCD_write_string^0,c
  9038   0040B8  5008               	movf	(LCD_write_string@i+1)^0,w,c
  9039   0040BA  2004               	addwfc	(LCD_write_string@str+1)^0,w,c
  9040   0040BC  6E06               	movwf	(??_LCD_write_string+1)^0,c
  9041   0040BE  C005  FFF6         	movff	??_LCD_write_string,tblptrl
  9042   0040C2  C006  FFF7         	movff	??_LCD_write_string+1,tblptrh
  9043   0040C6  6AF8               	clrf	tblptru,c
  9044   0040C8  0E07               	movlw	(high __ramtop+-1)
  9045   0040CA  64F7               	cpfsgt	tblptrh,c
  9046   0040CC  D003               	bra	u3277
  9047   0040CE  0008               	tblrd		*
  9048   0040D0  50F5               	movf	tablat,w,c
  9049   0040D2  D005               	bra	u3270
  9050   0040D4                     u3277:
  9051   0040D4  CFF6 FFE1          	movff	tblptrl,fsr1l
  9052   0040D8  CFF7 FFE2          	movff	tblptrh,fsr1h
  9053   0040DC  50E7               	movf	indf1,w,c
  9054   0040DE                     u3270:
  9055   0040DE  0900               	iorlw	0
  9056   0040E0  A4D8               	btfss	status,2,c
  9057   0040E2  EF75  F020         	goto	u3281
  9058   0040E6  EF77  F020         	goto	u3280
  9059   0040EA                     u3281:
  9060   0040EA  EF3F  F020         	goto	l3866
  9061   0040EE                     u3280:
  9062   0040EE  0012               	return		;funcret
  9063   0040F0                     __end_of_LCD_write_string:
  9064                           	callstack 0
  9065                           
  9066 ;; *************** function _LCD_write *****************
  9067 ;; Defined at:
  9068 ;;		line 148 in file "LCD_Driver.c"
  9069 ;; Parameters:    Size  Location     Type
  9070 ;;  data            1    wreg     unsigned char 
  9071 ;; Auto vars:     Size  Location     Type
  9072 ;;  data            1    1[COMRAM] unsigned char 
  9073 ;; Return value:  Size  Location     Type
  9074 ;;                  1    wreg      void 
  9075 ;; Registers used:
  9076 ;;		wreg, status,2, status,0
  9077 ;; Tracked objects:
  9078 ;;		On entry : 0/0
  9079 ;;		On exit  : 0/0
  9080 ;;		Unchanged: 0/0
  9081 ;; Data sizes:     COMRAM   BANK0   BANK1   BANK2   BANK3   BANK4   BANK5   BANK6   BANK7
  9082 ;;      Params:         0       0       0       0       0       0       0       0       0
  9083 ;;      Locals:         1       0       0       0       0       0       0       0       0
  9084 ;;      Temps:          1       0       0       0       0       0       0       0       0
  9085 ;;      Totals:         2       0       0       0       0       0       0       0       0
  9086 ;;Total ram usage:        2 bytes
  9087 ;; Hardware stack levels used: 1
  9088 ;; Hardware stack levels required when called: 1
  9089 ;; This function calls:
  9090 ;;		Nothing
  9091 ;; This function is called by:
  9092 ;;		_LCD_write_string
  9093 ;;		_Screen_Device_1
  9094 ;;		_Screen_Device_2
  9095 ;;		_Flash
  9096 ;; This function uses a non-reentrant model
  9097 ;;
  9098                           
  9099                           	psect	text32
  9100   004452                     __ptext32:
  9101                           	callstack 0
  9102   004452                     _LCD_write:
  9103                           	callstack 27
  9104                           
  9105                           ;incstack = 0
  9106                           ;LCD_write@data stored from wreg
  9107   004452  6E02               	movwf	LCD_write@data^0,c
  9108   004454                     
  9109                           ;LCD_Driver.c: 149:     (PORTD |= (1<<0));
  9110   004454  8083               	bsf	131,0,c	;volatile
  9111   004456                     
  9112                           ;LCD_Driver.c: 152:     PORTD &= 0xC3;
  9113   004456  0EC3               	movlw	195
  9114   004458  1683               	andwf	131,f,c	;volatile
  9115   00445A                     
  9116                           ;LCD_Driver.c: 153:     PORTD |= (0x3C & (data >> 2));
  9117   00445A  4002               	rrncf	LCD_write@data^0,w,c
  9118   00445C  42E8               	rrncf	wreg,f,c
  9119   00445E  0B3F               	andlw	63
  9120   004460  0B3C               	andlw	60
  9121   004462  1283               	iorwf	131,f,c	;volatile
  9122                           
  9123                           ;LCD_Driver.c: 155:     (PORTD |= (1<<1));
  9124   004464  8283               	bsf	131,1,c	;volatile
  9125   004466                     
  9126                           ;LCD_Driver.c: 156:     _delay((unsigned long)((1)*(8000000UL/4000.0)));
  9127   004466  0E03               	movlw	3
  9128   004468  6E01               	movwf	??_LCD_write^0,c
  9129   00446A  0E98               	movlw	152
  9130   00446C                     u5367:
  9131   00446C  2EE8               	decfsz	wreg,f,c
  9132   00446E  D7FE               	bra	u5367
  9133   004470  2E01               	decfsz	??_LCD_write^0,f,c
  9134   004472  D7FC               	bra	u5367
  9135   004474                     
  9136                           ;LCD_Driver.c: 157:     (PORTD &=~(1<<1));
  9137   004474  9283               	bcf	131,1,c	;volatile
  9138   004476                     
  9139                           ;LCD_Driver.c: 159:     PORTD &= 0xC3;
  9140   004476  0EC3               	movlw	195
  9141   004478  1683               	andwf	131,f,c	;volatile
  9142   00447A                     
  9143                           ;LCD_Driver.c: 160:     PORTD |= (0x3C & (data << 2));
  9144   00447A  4402               	rlncf	LCD_write@data^0,w,c
  9145   00447C  46E8               	rlncf	wreg,f,c
  9146   00447E  0BFC               	andlw	252
  9147   004480  0B3C               	andlw	60
  9148   004482  1283               	iorwf	131,f,c	;volatile
  9149   004484                     
  9150                           ;LCD_Driver.c: 162:     (PORTD |= (1<<1));
  9151   004484  8283               	bsf	131,1,c	;volatile
  9152   004486                     
  9153                           ;LCD_Driver.c: 163:     _delay((unsigned long)((1)*(8000000UL/4000.0)));
  9154   004486  0E03               	movlw	3
  9155   004488  6E01               	movwf	??_LCD_write^0,c
  9156   00448A  0E98               	movlw	152
  9157   00448C                     u5377:
  9158   00448C  2EE8               	decfsz	wreg,f,c
  9159   00448E  D7FE               	bra	u5377
  9160   004490  2E01               	decfsz	??_LCD_write^0,f,c
  9161   004492  D7FC               	bra	u5377
  9162                           
  9163                           ;LCD_Driver.c: 164:     (PORTD &=~(1<<1));
  9164   004494  9283               	bcf	131,1,c	;volatile
  9165   004496  0012               	return		;funcret
  9166   004498                     __end_of_LCD_write:
  9167                           	callstack 0
  9168                           
  9169 ;; *************** function _LCD_goto_xy *****************
  9170 ;; Defined at:
  9171 ;;		line 186 in file "LCD_Driver.c"
  9172 ;; Parameters:    Size  Location     Type
  9173 ;;  x               2    1[COMRAM] int 
  9174 ;;  y               2    3[COMRAM] int 
  9175 ;; Auto vars:     Size  Location     Type
  9176 ;;  i               2    8[COMRAM] int 
  9177 ;;  i               2    6[COMRAM] int 
  9178 ;; Return value:  Size  Location     Type
  9179 ;;                  1    wreg      void 
  9180 ;; Registers used:
  9181 ;;		wreg, status,2, status,0, cstack
  9182 ;; Tracked objects:
  9183 ;;		On entry : 0/0
  9184 ;;		On exit  : 0/0
  9185 ;;		Unchanged: 0/0
  9186 ;; Data sizes:     COMRAM   BANK0   BANK1   BANK2   BANK3   BANK4   BANK5   BANK6   BANK7
  9187 ;;      Params:         4       0       0       0       0       0       0       0       0
  9188 ;;      Locals:         4       0       0       0       0       0       0       0       0
  9189 ;;      Temps:          1       0       0       0       0       0       0       0       0
  9190 ;;      Totals:         9       0       0       0       0       0       0       0       0
  9191 ;;Total ram usage:        9 bytes
  9192 ;; Hardware stack levels used: 1
  9193 ;; Hardware stack levels required when called: 2
  9194 ;; This function calls:
  9195 ;;		_LCD_cmd
  9196 ;; This function is called by:
  9197 ;;		_Screen_Date_Time
  9198 ;;		_Screen_Device_1
  9199 ;;		_Screen_Device_2
  9200 ;;		_Flash
  9201 ;; This function uses a non-reentrant model
  9202 ;;
  9203                           
  9204                           	psect	text33
  9205   003D5E                     __ptext33:
  9206                           	callstack 0
  9207   003D5E                     _LCD_goto_xy:
  9208                           	callstack 27
  9209   003D5E                     
  9210                           ;LCD_Driver.c: 187:     if ((x == 0) && (y < 16)) {
  9211   003D5E  5002               	movf	LCD_goto_xy@x^0,w,c
  9212   003D60  1003               	iorwf	(LCD_goto_xy@x+1)^0,w,c
  9213   003D62  A4D8               	btfss	status,2,c
  9214   003D64  EFB6  F01E         	goto	u3111
  9215   003D68  EFB8  F01E         	goto	u3110
  9216   003D6C                     u3111:
  9217   003D6C  EFE5  F01E         	goto	l3786
  9218   003D70                     u3110:
  9219   003D70  BE05               	btfsc	(LCD_goto_xy@y+1)^0,7,c
  9220   003D72  EFC6  F01E         	goto	u3120
  9221   003D76  5005               	movf	(LCD_goto_xy@y+1)^0,w,c
  9222   003D78  E107               	bnz	u3121
  9223   003D7A  0E10               	movlw	16
  9224   003D7C  5C04               	subwf	LCD_goto_xy@y^0,w,c
  9225   003D7E  B0D8               	btfsc	status,0,c
  9226   003D80  EFC4  F01E         	goto	u3121
  9227   003D84  EFC6  F01E         	goto	u3120
  9228   003D88                     u3121:
  9229   003D88  EFE5  F01E         	goto	l3786
  9230   003D8C                     u3120:
  9231   003D8C                     
  9232                           ;LCD_Driver.c: 188:         LCD_cmd(0x80);
  9233   003D8C  0E80               	movlw	128
  9234   003D8E  ECAC  F022         	call	_LCD_cmd
  9235   003D92                     
  9236                           ;LCD_Driver.c: 189:         for (int i = 0; i < y; i++) {
  9237   003D92  0E00               	movlw	0
  9238   003D94  6E08               	movwf	(LCD_goto_xy@i+1)^0,c
  9239   003D96  0E00               	movlw	0
  9240   003D98  6E07               	movwf	LCD_goto_xy@i^0,c
  9241   003D9A  EFD4  F01E         	goto	l3784
  9242   003D9E                     l3780:
  9243                           
  9244                           ;LCD_Driver.c: 190:             LCD_cmd(0x14);
  9245   003D9E  0E14               	movlw	20
  9246   003DA0  ECAC  F022         	call	_LCD_cmd
  9247   003DA4                     
  9248                           ;LCD_Driver.c: 192:         }
  9249   003DA4  4A07               	infsnz	LCD_goto_xy@i^0,f,c
  9250   003DA6  2A08               	incf	(LCD_goto_xy@i+1)^0,f,c
  9251   003DA8                     l3784:
  9252   003DA8  5004               	movf	LCD_goto_xy@y^0,w,c
  9253   003DAA  5C07               	subwf	LCD_goto_xy@i^0,w,c
  9254   003DAC  5008               	movf	(LCD_goto_xy@i+1)^0,w,c
  9255   003DAE  0A80               	xorlw	128
  9256   003DB0  6E06               	movwf	??_LCD_goto_xy^0,c
  9257   003DB2  5005               	movf	(LCD_goto_xy@y+1)^0,w,c
  9258   003DB4  0A80               	xorlw	128
  9259   003DB6  5806               	subwfb	??_LCD_goto_xy^0,w,c
  9260   003DB8  A0D8               	btfss	status,0,c
  9261   003DBA  EFE1  F01E         	goto	u3131
  9262   003DBE  EFE3  F01E         	goto	u3130
  9263   003DC2                     u3131:
  9264   003DC2  EFCF  F01E         	goto	l3780
  9265   003DC6                     u3130:
  9266   003DC6  EF19  F01F         	goto	l42
  9267   003DCA                     l3786:
  9268   003DCA  0402               	decf	LCD_goto_xy@x^0,w,c
  9269   003DCC  1003               	iorwf	(LCD_goto_xy@x+1)^0,w,c
  9270   003DCE  A4D8               	btfss	status,2,c
  9271   003DD0  EFEC  F01E         	goto	u3141
  9272   003DD4  EFEE  F01E         	goto	u3140
  9273   003DD8                     u3141:
  9274   003DD8  EF19  F01F         	goto	l42
  9275   003DDC                     u3140:
  9276   003DDC  BE05               	btfsc	(LCD_goto_xy@y+1)^0,7,c
  9277   003DDE  EFFC  F01E         	goto	u3150
  9278   003DE2  5005               	movf	(LCD_goto_xy@y+1)^0,w,c
  9279   003DE4  E107               	bnz	u3151
  9280   003DE6  0E10               	movlw	16
  9281   003DE8  5C04               	subwf	LCD_goto_xy@y^0,w,c
  9282   003DEA  B0D8               	btfsc	status,0,c
  9283   003DEC  EFFA  F01E         	goto	u3151
  9284   003DF0  EFFC  F01E         	goto	u3150
  9285   003DF4                     u3151:
  9286   003DF4  EF19  F01F         	goto	l42
  9287   003DF8                     u3150:
  9288   003DF8                     
  9289                           ;LCD_Driver.c: 194:         LCD_cmd(0XC0);
  9290   003DF8  0EC0               	movlw	192
  9291   003DFA  ECAC  F022         	call	_LCD_cmd
  9292   003DFE                     
  9293                           ;LCD_Driver.c: 195:         for (int i = 0; i < y; i++) {
  9294   003DFE  0E00               	movlw	0
  9295   003E00  6E0A               	movwf	(LCD_goto_xy@i_52+1)^0,c
  9296   003E02  0E00               	movlw	0
  9297   003E04  6E09               	movwf	LCD_goto_xy@i_52^0,c
  9298   003E06  EF0A  F01F         	goto	l3798
  9299   003E0A                     l3794:
  9300                           
  9301                           ;LCD_Driver.c: 196:             LCD_cmd(0x14);
  9302   003E0A  0E14               	movlw	20
  9303   003E0C  ECAC  F022         	call	_LCD_cmd
  9304   003E10                     
  9305                           ;LCD_Driver.c: 197:         }
  9306   003E10  4A09               	infsnz	LCD_goto_xy@i_52^0,f,c
  9307   003E12  2A0A               	incf	(LCD_goto_xy@i_52+1)^0,f,c
  9308   003E14                     l3798:
  9309   003E14  5004               	movf	LCD_goto_xy@y^0,w,c
  9310   003E16  5C09               	subwf	LCD_goto_xy@i_52^0,w,c
  9311   003E18  500A               	movf	(LCD_goto_xy@i_52+1)^0,w,c
  9312   003E1A  0A80               	xorlw	128
  9313   003E1C  6E06               	movwf	??_LCD_goto_xy^0,c
  9314   003E1E  5005               	movf	(LCD_goto_xy@y+1)^0,w,c
  9315   003E20  0A80               	xorlw	128
  9316   003E22  5806               	subwfb	??_LCD_goto_xy^0,w,c
  9317   003E24  A0D8               	btfss	status,0,c
  9318   003E26  EF17  F01F         	goto	u3161
  9319   003E2A  EF19  F01F         	goto	u3160
  9320   003E2E                     u3161:
  9321   003E2E  EF05  F01F         	goto	l3794
  9322   003E32                     u3160:
  9323   003E32                     l42:
  9324   003E32  0012               	return		;funcret
  9325   003E34                     __end_of_LCD_goto_xy:
  9326                           	callstack 0
  9327                           
  9328 ;; *************** function _RTC_Set_Time *****************
  9329 ;; Defined at:
  9330 ;;		line 10 in file "RTC_Driver.c"
  9331 ;; Parameters:    Size  Location     Type
  9332 ;;  sec             1    wreg     unsigned char 
  9333 ;;  min             1    8[COMRAM] unsigned char 
  9334 ;;  hour            1    9[COMRAM] unsigned char 
  9335 ;; Auto vars:     Size  Location     Type
  9336 ;;  sec             1   12[COMRAM] unsigned char 
  9337 ;; Return value:  Size  Location     Type
  9338 ;;                  1    wreg      void 
  9339 ;; Registers used:
  9340 ;;		wreg, status,2, status,0, cstack
  9341 ;; Tracked objects:
  9342 ;;		On entry : 0/0
  9343 ;;		On exit  : 0/0
  9344 ;;		Unchanged: 0/0
  9345 ;; Data sizes:     COMRAM   BANK0   BANK1   BANK2   BANK3   BANK4   BANK5   BANK6   BANK7
  9346 ;;      Params:         2       0       0       0       0       0       0       0       0
  9347 ;;      Locals:         1       0       0       0       0       0       0       0       0
  9348 ;;      Temps:          2       0       0       0       0       0       0       0       0
  9349 ;;      Totals:         5       0       0       0       0       0       0       0       0
  9350 ;;Total ram usage:        5 bytes
  9351 ;; Hardware stack levels used: 1
  9352 ;; Hardware stack levels required when called: 4
  9353 ;; This function calls:
  9354 ;;		_I2C_Init
  9355 ;;		_I2C_Start
  9356 ;;		_I2C_Stop
  9357 ;;		_I2C_Write
  9358 ;;		___awdiv
  9359 ;;		___awmod
  9360 ;; This function is called by:
  9361 ;;		_main
  9362 ;; This function uses a non-reentrant model
  9363 ;;
  9364                           
  9365                           	psect	text34
  9366   003C86                     __ptext34:
  9367                           	callstack 0
  9368   003C86                     _RTC_Set_Time:
  9369                           	callstack 26
  9370                           
  9371                           ;incstack = 0
  9372                           ;RTC_Set_Time@sec stored from wreg
  9373   003C86  6E0D               	movwf	RTC_Set_Time@sec^0,c
  9374   003C88                     
  9375                           ;RTC_Driver.c: 10: void RTC_Set_Time(char sec, char min, char hour);RTC_Driver.c: 11: {;
      +                          RTC_Driver.c: 12:     I2C_Init();
  9376   003C88  EC67  F023         	call	_I2C_Init	;wreg free
  9377                           
  9378                           ;RTC_Driver.c: 14:  I2C_Start(0xD0);
  9379   003C8C  0ED0               	movlw	208
  9380   003C8E  ECF7  F022         	call	_I2C_Start
  9381   003C92                     
  9382                           ;RTC_Driver.c: 15:  I2C_Write(0);
  9383   003C92  0E00               	movlw	0
  9384   003C94  EC1F  F023         	call	_I2C_Write
  9385   003C98                     
  9386                           ;RTC_Driver.c: 16:  I2C_Write((((sec % 10) & (0x0F)) + (((sec /10) << 4 ) & (0xF0))));
  9387   003C98  C00D  F001         	movff	RTC_Set_Time@sec,___awdiv@dividend
  9388   003C9C  6A02               	clrf	(___awdiv@dividend+1)^0,c
  9389   003C9E  0E00               	movlw	0
  9390   003CA0  6E04               	movwf	(___awdiv@divisor+1)^0,c
  9391   003CA2  0E0A               	movlw	10
  9392   003CA4  6E03               	movwf	___awdiv@divisor^0,c
  9393   003CA6  EC7F  F01F         	call	___awdiv	;wreg free
  9394   003CAA  C001  F00B         	movff	?___awdiv,??_RTC_Set_Time
  9395   003CAE  C002  F00C         	movff	?___awdiv+1,??_RTC_Set_Time+1
  9396   003CB2  3A0B               	swapf	??_RTC_Set_Time^0,f,c
  9397   003CB4  0EF0               	movlw	240
  9398   003CB6  160B               	andwf	??_RTC_Set_Time^0,f,c
  9399   003CB8  0EF0               	movlw	240
  9400   003CBA  160B               	andwf	??_RTC_Set_Time^0,f,c
  9401   003CBC  C00D  F001         	movff	RTC_Set_Time@sec,___awmod@dividend
  9402   003CC0  6A02               	clrf	(___awmod@dividend+1)^0,c
  9403   003CC2  0E00               	movlw	0
  9404   003CC4  6E04               	movwf	(___awmod@divisor+1)^0,c
  9405   003CC6  0E0A               	movlw	10
  9406   003CC8  6E03               	movwf	___awmod@divisor^0,c
  9407   003CCA  ECE1  F01F         	call	___awmod	;wreg free
  9408   003CCE  5001               	movf	?___awmod^0,w,c
  9409   003CD0  0B0F               	andlw	15
  9410   003CD2  240B               	addwf	??_RTC_Set_Time^0,w,c
  9411   003CD4  EC1F  F023         	call	_I2C_Write
  9412   003CD8                     
  9413                           ;RTC_Driver.c: 17:  I2C_Write((((min % 10) & (0x0F)) + (((min /10) << 4 ) & (0xF0))));
  9414   003CD8  C009  F001         	movff	RTC_Set_Time@min,___awdiv@dividend
  9415   003CDC  6A02               	clrf	(___awdiv@dividend+1)^0,c
  9416   003CDE  0E00               	movlw	0
  9417   003CE0  6E04               	movwf	(___awdiv@divisor+1)^0,c
  9418   003CE2  0E0A               	movlw	10
  9419   003CE4  6E03               	movwf	___awdiv@divisor^0,c
  9420   003CE6  EC7F  F01F         	call	___awdiv	;wreg free
  9421   003CEA  C001  F00B         	movff	?___awdiv,??_RTC_Set_Time
  9422   003CEE  C002  F00C         	movff	?___awdiv+1,??_RTC_Set_Time+1
  9423   003CF2  3A0B               	swapf	??_RTC_Set_Time^0,f,c
  9424   003CF4  0EF0               	movlw	240
  9425   003CF6  160B               	andwf	??_RTC_Set_Time^0,f,c
  9426   003CF8  0EF0               	movlw	240
  9427   003CFA  160B               	andwf	??_RTC_Set_Time^0,f,c
  9428   003CFC  C009  F001         	movff	RTC_Set_Time@min,___awmod@dividend
  9429   003D00  6A02               	clrf	(___awmod@dividend+1)^0,c
  9430   003D02  0E00               	movlw	0
  9431   003D04  6E04               	movwf	(___awmod@divisor+1)^0,c
  9432   003D06  0E0A               	movlw	10
  9433   003D08  6E03               	movwf	___awmod@divisor^0,c
  9434   003D0A  ECE1  F01F         	call	___awmod	;wreg free
  9435   003D0E  5001               	movf	?___awmod^0,w,c
  9436   003D10  0B0F               	andlw	15
  9437   003D12  240B               	addwf	??_RTC_Set_Time^0,w,c
  9438   003D14  EC1F  F023         	call	_I2C_Write
  9439   003D18                     
  9440                           ;RTC_Driver.c: 18:  I2C_Write((((hour % 10) & (0x0F)) + (((hour /10) << 4 ) & (0xF0))));
  9441   003D18  C00A  F001         	movff	RTC_Set_Time@hour,___awdiv@dividend
  9442   003D1C  6A02               	clrf	(___awdiv@dividend+1)^0,c
  9443   003D1E  0E00               	movlw	0
  9444   003D20  6E04               	movwf	(___awdiv@divisor+1)^0,c
  9445   003D22  0E0A               	movlw	10
  9446   003D24  6E03               	movwf	___awdiv@divisor^0,c
  9447   003D26  EC7F  F01F         	call	___awdiv	;wreg free
  9448   003D2A  C001  F00B         	movff	?___awdiv,??_RTC_Set_Time
  9449   003D2E  C002  F00C         	movff	?___awdiv+1,??_RTC_Set_Time+1
  9450   003D32  3A0B               	swapf	??_RTC_Set_Time^0,f,c
  9451   003D34  0EF0               	movlw	240
  9452   003D36  160B               	andwf	??_RTC_Set_Time^0,f,c
  9453   003D38  0EF0               	movlw	240
  9454   003D3A  160B               	andwf	??_RTC_Set_Time^0,f,c
  9455   003D3C  C00A  F001         	movff	RTC_Set_Time@hour,___awmod@dividend
  9456   003D40  6A02               	clrf	(___awmod@dividend+1)^0,c
  9457   003D42  0E00               	movlw	0
  9458   003D44  6E04               	movwf	(___awmod@divisor+1)^0,c
  9459   003D46  0E0A               	movlw	10
  9460   003D48  6E03               	movwf	___awmod@divisor^0,c
  9461   003D4A  ECE1  F01F         	call	___awmod	;wreg free
  9462   003D4E  5001               	movf	?___awmod^0,w,c
  9463   003D50  0B0F               	andlw	15
  9464   003D52  240B               	addwf	??_RTC_Set_Time^0,w,c
  9465   003D54  EC1F  F023         	call	_I2C_Write
  9466   003D58                     
  9467                           ;RTC_Driver.c: 19:  I2C_Stop();
  9468   003D58  EC30  F023         	call	_I2C_Stop	;wreg free
  9469   003D5C  0012               	return		;funcret
  9470   003D5E                     __end_of_RTC_Set_Time:
  9471                           	callstack 0
  9472                           
  9473 ;; *************** function _I2C_Init *****************
  9474 ;; Defined at:
  9475 ;;		line 29 in file "I2C_Driver.c"
  9476 ;; Parameters:    Size  Location     Type
  9477 ;;		None
  9478 ;; Auto vars:     Size  Location     Type
  9479 ;;		None
  9480 ;; Return value:  Size  Location     Type
  9481 ;;                  1    wreg      void 
  9482 ;; Registers used:
  9483 ;;		wreg, status,2
  9484 ;; Tracked objects:
  9485 ;;		On entry : 0/0
  9486 ;;		On exit  : 0/0
  9487 ;;		Unchanged: 0/0
  9488 ;; Data sizes:     COMRAM   BANK0   BANK1   BANK2   BANK3   BANK4   BANK5   BANK6   BANK7
  9489 ;;      Params:         0       0       0       0       0       0       0       0       0
  9490 ;;      Locals:         0       0       0       0       0       0       0       0       0
  9491 ;;      Temps:          0       0       0       0       0       0       0       0       0
  9492 ;;      Totals:         0       0       0       0       0       0       0       0       0
  9493 ;;Total ram usage:        0 bytes
  9494 ;; Hardware stack levels used: 1
  9495 ;; Hardware stack levels required when called: 1
  9496 ;; This function calls:
  9497 ;;		Nothing
  9498 ;; This function is called by:
  9499 ;;		_RTC_Set_Time
  9500 ;;		_main
  9501 ;; This function uses a non-reentrant model
  9502 ;;
  9503                           
  9504                           	psect	text35
  9505   0046CE                     __ptext35:
  9506                           	callstack 0
  9507   0046CE                     _I2C_Init:
  9508                           	callstack 28
  9509   0046CE                     
  9510                           ;I2C_Driver.c: 31:     TRISB0 = 1;
  9511   0046CE  8093               	bsf	3987,0,c	;volatile
  9512                           
  9513                           ;I2C_Driver.c: 32:     TRISB1 = 1;
  9514   0046D0  8293               	bsf	3987,1,c	;volatile
  9515   0046D2                     
  9516                           ;I2C_Driver.c: 33:     SSPSTAT = 80;
  9517   0046D2  0E50               	movlw	80
  9518   0046D4  6EC7               	movwf	199,c	;volatile
  9519                           
  9520                           ;I2C_Driver.c: 34:     SSPCON1 = 0x28;
  9521   0046D6  0E28               	movlw	40
  9522   0046D8  6EC6               	movwf	198,c	;volatile
  9523                           
  9524                           ;I2C_Driver.c: 35:     SSPCON2 = 0;
  9525   0046DA  0E00               	movlw	0
  9526   0046DC  6EC5               	movwf	197,c	;volatile
  9527                           
  9528                           ;I2C_Driver.c: 36:     SSPADD = ((8000000UL/(4*100000))-1);
  9529   0046DE  0E13               	movlw	19
  9530   0046E0  6EC8               	movwf	200,c	;volatile
  9531   0046E2  0012               	return		;funcret
  9532   0046E4                     __end_of_I2C_Init:
  9533                           	callstack 0
  9534                           
  9535 ;; *************** function _RTC_Set_Date *****************
  9536 ;; Defined at:
  9537 ;;		line 24 in file "RTC_Driver.c"
  9538 ;; Parameters:    Size  Location     Type
  9539 ;;  day             1    wreg     unsigned char 
  9540 ;;  date            1    8[COMRAM] unsigned char 
  9541 ;;  month           1    9[COMRAM] unsigned char 
  9542 ;;  year            1   10[COMRAM] unsigned char 
  9543 ;; Auto vars:     Size  Location     Type
  9544 ;;  day             1   13[COMRAM] unsigned char 
  9545 ;; Return value:  Size  Location     Type
  9546 ;;                  1    wreg      void 
  9547 ;; Registers used:
  9548 ;;		wreg, status,2, status,0, cstack
  9549 ;; Tracked objects:
  9550 ;;		On entry : 0/0
  9551 ;;		On exit  : 0/0
  9552 ;;		Unchanged: 0/0
  9553 ;; Data sizes:     COMRAM   BANK0   BANK1   BANK2   BANK3   BANK4   BANK5   BANK6   BANK7
  9554 ;;      Params:         3       0       0       0       0       0       0       0       0
  9555 ;;      Locals:         1       0       0       0       0       0       0       0       0
  9556 ;;      Temps:          2       0       0       0       0       0       0       0       0
  9557 ;;      Totals:         6       0       0       0       0       0       0       0       0
  9558 ;;Total ram usage:        6 bytes
  9559 ;; Hardware stack levels used: 1
  9560 ;; Hardware stack levels required when called: 4
  9561 ;; This function calls:
  9562 ;;		_I2C_Start
  9563 ;;		_I2C_Stop
  9564 ;;		_I2C_Write
  9565 ;;		___awdiv
  9566 ;;		___awmod
  9567 ;; This function is called by:
  9568 ;;		_main
  9569 ;; This function uses a non-reentrant model
  9570 ;;
  9571                           
  9572                           	psect	text36
  9573   003784                     __ptext36:
  9574                           	callstack 0
  9575   003784                     _RTC_Set_Date:
  9576                           	callstack 26
  9577                           
  9578                           ;incstack = 0
  9579                           ;RTC_Set_Date@day stored from wreg
  9580   003784  6E0E               	movwf	RTC_Set_Date@day^0,c
  9581   003786                     
  9582                           ;RTC_Driver.c: 24: void RTC_Set_Date(char day, char date, char month, char year);RTC_Dri
      +                          ver.c: 25: {;RTC_Driver.c: 26:  I2C_Start(0xD0);
  9583   003786  0ED0               	movlw	208
  9584   003788  ECF7  F022         	call	_I2C_Start
  9585   00378C                     
  9586                           ;RTC_Driver.c: 27:  I2C_Write(3);
  9587   00378C  0E03               	movlw	3
  9588   00378E  EC1F  F023         	call	_I2C_Write
  9589   003792                     
  9590                           ;RTC_Driver.c: 28:  I2C_Write((((day % 10) & (0x0F)) + (((day /10) << 4 ) & (0xF0))));
  9591   003792  C00E  F001         	movff	RTC_Set_Date@day,___awdiv@dividend
  9592   003796  6A02               	clrf	(___awdiv@dividend+1)^0,c
  9593   003798  0E00               	movlw	0
  9594   00379A  6E04               	movwf	(___awdiv@divisor+1)^0,c
  9595   00379C  0E0A               	movlw	10
  9596   00379E  6E03               	movwf	___awdiv@divisor^0,c
  9597   0037A0  EC7F  F01F         	call	___awdiv	;wreg free
  9598   0037A4  C001  F00C         	movff	?___awdiv,??_RTC_Set_Date
  9599   0037A8  C002  F00D         	movff	?___awdiv+1,??_RTC_Set_Date+1
  9600   0037AC  3A0C               	swapf	??_RTC_Set_Date^0,f,c
  9601   0037AE  0EF0               	movlw	240
  9602   0037B0  160C               	andwf	??_RTC_Set_Date^0,f,c
  9603   0037B2  0EF0               	movlw	240
  9604   0037B4  160C               	andwf	??_RTC_Set_Date^0,f,c
  9605   0037B6  C00E  F001         	movff	RTC_Set_Date@day,___awmod@dividend
  9606   0037BA  6A02               	clrf	(___awmod@dividend+1)^0,c
  9607   0037BC  0E00               	movlw	0
  9608   0037BE  6E04               	movwf	(___awmod@divisor+1)^0,c
  9609   0037C0  0E0A               	movlw	10
  9610   0037C2  6E03               	movwf	___awmod@divisor^0,c
  9611   0037C4  ECE1  F01F         	call	___awmod	;wreg free
  9612   0037C8  5001               	movf	?___awmod^0,w,c
  9613   0037CA  0B0F               	andlw	15
  9614   0037CC  240C               	addwf	??_RTC_Set_Date^0,w,c
  9615   0037CE  EC1F  F023         	call	_I2C_Write
  9616   0037D2                     
  9617                           ;RTC_Driver.c: 29:  I2C_Write((((date % 10) & (0x0F)) + (((date /10) << 4 ) & (0xF0))));
  9618   0037D2  C009  F001         	movff	RTC_Set_Date@date,___awdiv@dividend
  9619   0037D6  6A02               	clrf	(___awdiv@dividend+1)^0,c
  9620   0037D8  0E00               	movlw	0
  9621   0037DA  6E04               	movwf	(___awdiv@divisor+1)^0,c
  9622   0037DC  0E0A               	movlw	10
  9623   0037DE  6E03               	movwf	___awdiv@divisor^0,c
  9624   0037E0  EC7F  F01F         	call	___awdiv	;wreg free
  9625   0037E4  C001  F00C         	movff	?___awdiv,??_RTC_Set_Date
  9626   0037E8  C002  F00D         	movff	?___awdiv+1,??_RTC_Set_Date+1
  9627   0037EC  3A0C               	swapf	??_RTC_Set_Date^0,f,c
  9628   0037EE  0EF0               	movlw	240
  9629   0037F0  160C               	andwf	??_RTC_Set_Date^0,f,c
  9630   0037F2  0EF0               	movlw	240
  9631   0037F4  160C               	andwf	??_RTC_Set_Date^0,f,c
  9632   0037F6  C009  F001         	movff	RTC_Set_Date@date,___awmod@dividend
  9633   0037FA  6A02               	clrf	(___awmod@dividend+1)^0,c
  9634   0037FC  0E00               	movlw	0
  9635   0037FE  6E04               	movwf	(___awmod@divisor+1)^0,c
  9636   003800  0E0A               	movlw	10
  9637   003802  6E03               	movwf	___awmod@divisor^0,c
  9638   003804  ECE1  F01F         	call	___awmod	;wreg free
  9639   003808  5001               	movf	?___awmod^0,w,c
  9640   00380A  0B0F               	andlw	15
  9641   00380C  240C               	addwf	??_RTC_Set_Date^0,w,c
  9642   00380E  EC1F  F023         	call	_I2C_Write
  9643   003812                     
  9644                           ;RTC_Driver.c: 30:  I2C_Write((((month % 10) & (0x0F)) + (((month /10) << 4 ) & (0xF0)))
      +                          );
  9645   003812  C00A  F001         	movff	RTC_Set_Date@month,___awdiv@dividend
  9646   003816  6A02               	clrf	(___awdiv@dividend+1)^0,c
  9647   003818  0E00               	movlw	0
  9648   00381A  6E04               	movwf	(___awdiv@divisor+1)^0,c
  9649   00381C  0E0A               	movlw	10
  9650   00381E  6E03               	movwf	___awdiv@divisor^0,c
  9651   003820  EC7F  F01F         	call	___awdiv	;wreg free
  9652   003824  C001  F00C         	movff	?___awdiv,??_RTC_Set_Date
  9653   003828  C002  F00D         	movff	?___awdiv+1,??_RTC_Set_Date+1
  9654   00382C  3A0C               	swapf	??_RTC_Set_Date^0,f,c
  9655   00382E  0EF0               	movlw	240
  9656   003830  160C               	andwf	??_RTC_Set_Date^0,f,c
  9657   003832  0EF0               	movlw	240
  9658   003834  160C               	andwf	??_RTC_Set_Date^0,f,c
  9659   003836  C00A  F001         	movff	RTC_Set_Date@month,___awmod@dividend
  9660   00383A  6A02               	clrf	(___awmod@dividend+1)^0,c
  9661   00383C  0E00               	movlw	0
  9662   00383E  6E04               	movwf	(___awmod@divisor+1)^0,c
  9663   003840  0E0A               	movlw	10
  9664   003842  6E03               	movwf	___awmod@divisor^0,c
  9665   003844  ECE1  F01F         	call	___awmod	;wreg free
  9666   003848  5001               	movf	?___awmod^0,w,c
  9667   00384A  0B0F               	andlw	15
  9668   00384C  240C               	addwf	??_RTC_Set_Date^0,w,c
  9669   00384E  EC1F  F023         	call	_I2C_Write
  9670   003852                     
  9671                           ;RTC_Driver.c: 31:  I2C_Write((((year % 10) & (0x0F)) + (((year /10) << 4 ) & (0xF0))));
  9672   003852  C00B  F001         	movff	RTC_Set_Date@year,___awdiv@dividend
  9673   003856  6A02               	clrf	(___awdiv@dividend+1)^0,c
  9674   003858  0E00               	movlw	0
  9675   00385A  6E04               	movwf	(___awdiv@divisor+1)^0,c
  9676   00385C  0E0A               	movlw	10
  9677   00385E  6E03               	movwf	___awdiv@divisor^0,c
  9678   003860  EC7F  F01F         	call	___awdiv	;wreg free
  9679   003864  C001  F00C         	movff	?___awdiv,??_RTC_Set_Date
  9680   003868  C002  F00D         	movff	?___awdiv+1,??_RTC_Set_Date+1
  9681   00386C  3A0C               	swapf	??_RTC_Set_Date^0,f,c
  9682   00386E  0EF0               	movlw	240
  9683   003870  160C               	andwf	??_RTC_Set_Date^0,f,c
  9684   003872  0EF0               	movlw	240
  9685   003874  160C               	andwf	??_RTC_Set_Date^0,f,c
  9686   003876  C00B  F001         	movff	RTC_Set_Date@year,___awmod@dividend
  9687   00387A  6A02               	clrf	(___awmod@dividend+1)^0,c
  9688   00387C  0E00               	movlw	0
  9689   00387E  6E04               	movwf	(___awmod@divisor+1)^0,c
  9690   003880  0E0A               	movlw	10
  9691   003882  6E03               	movwf	___awmod@divisor^0,c
  9692   003884  ECE1  F01F         	call	___awmod	;wreg free
  9693   003888  5001               	movf	?___awmod^0,w,c
  9694   00388A  0B0F               	andlw	15
  9695   00388C  240C               	addwf	??_RTC_Set_Date^0,w,c
  9696   00388E  EC1F  F023         	call	_I2C_Write
  9697   003892                     
  9698                           ;RTC_Driver.c: 32:  I2C_Stop();
  9699   003892  EC30  F023         	call	_I2C_Stop	;wreg free
  9700   003896  0012               	return		;funcret
  9701   003898                     __end_of_RTC_Set_Date:
  9702                           	callstack 0
  9703                           
  9704 ;; *************** function ___awmod *****************
  9705 ;; Defined at:
  9706 ;;		line 7 in file "C:\Program Files\Microchip\xc8\v2.40\pic\sources\c99\common\awmod.c"
  9707 ;; Parameters:    Size  Location     Type
  9708 ;;  dividend        2    0[COMRAM] int 
  9709 ;;  divisor         2    2[COMRAM] int 
  9710 ;; Auto vars:     Size  Location     Type
  9711 ;;  sign            1    5[COMRAM] unsigned char 
  9712 ;;  counter         1    4[COMRAM] unsigned char 
  9713 ;; Return value:  Size  Location     Type
  9714 ;;                  2    0[COMRAM] int 
  9715 ;; Registers used:
  9716 ;;		wreg, status,2, status,0
  9717 ;; Tracked objects:
  9718 ;;		On entry : 0/0
  9719 ;;		On exit  : 0/0
  9720 ;;		Unchanged: 0/0
  9721 ;; Data sizes:     COMRAM   BANK0   BANK1   BANK2   BANK3   BANK4   BANK5   BANK6   BANK7
  9722 ;;      Params:         4       0       0       0       0       0       0       0       0
  9723 ;;      Locals:         2       0       0       0       0       0       0       0       0
  9724 ;;      Temps:          0       0       0       0       0       0       0       0       0
  9725 ;;      Totals:         6       0       0       0       0       0       0       0       0
  9726 ;;Total ram usage:        6 bytes
  9727 ;; Hardware stack levels used: 1
  9728 ;; Hardware stack levels required when called: 1
  9729 ;; This function calls:
  9730 ;;		Nothing
  9731 ;; This function is called by:
  9732 ;;		_RTC_Set_Time
  9733 ;;		_RTC_Set_Date
  9734 ;; This function uses a non-reentrant model
  9735 ;;
  9736                           
  9737                           	psect	text37
  9738   003FC2                     __ptext37:
  9739                           	callstack 0
  9740   003FC2                     ___awmod:
  9741                           	callstack 28
  9742   003FC2  0E00               	movlw	0
  9743   003FC4  6E06               	movwf	___awmod@sign^0,c
  9744   003FC6  BE02               	btfsc	(___awmod@dividend+1)^0,7,c
  9745   003FC8  EFEA  F01F         	goto	u4460
  9746   003FCC  EFE8  F01F         	goto	u4461
  9747   003FD0                     u4461:
  9748   003FD0  EFF0  F01F         	goto	l4534
  9749   003FD4                     u4460:
  9750   003FD4  6C01               	negf	___awmod@dividend^0,c
  9751   003FD6  1E02               	comf	(___awmod@dividend+1)^0,f,c
  9752   003FD8  B0D8               	btfsc	status,0,c
  9753   003FDA  2A02               	incf	(___awmod@dividend+1)^0,f,c
  9754   003FDC  0E01               	movlw	1
  9755   003FDE  6E06               	movwf	___awmod@sign^0,c
  9756   003FE0                     l4534:
  9757   003FE0  BE04               	btfsc	(___awmod@divisor+1)^0,7,c
  9758   003FE2  EFF7  F01F         	goto	u4470
  9759   003FE6  EFF5  F01F         	goto	u4471
  9760   003FEA                     u4471:
  9761   003FEA  EFFB  F01F         	goto	l4538
  9762   003FEE                     u4470:
  9763   003FEE  6C03               	negf	___awmod@divisor^0,c
  9764   003FF0  1E04               	comf	(___awmod@divisor+1)^0,f,c
  9765   003FF2  B0D8               	btfsc	status,0,c
  9766   003FF4  2A04               	incf	(___awmod@divisor+1)^0,f,c
  9767   003FF6                     l4538:
  9768   003FF6  5003               	movf	___awmod@divisor^0,w,c
  9769   003FF8  1004               	iorwf	(___awmod@divisor+1)^0,w,c
  9770   003FFA  B4D8               	btfsc	status,2,c
  9771   003FFC  EF02  F020         	goto	u4481
  9772   004000  EF04  F020         	goto	u4480
  9773   004004                     u4481:
  9774   004004  EF28  F020         	goto	l4554
  9775   004008                     u4480:
  9776   004008  0E01               	movlw	1
  9777   00400A  6E05               	movwf	___awmod@counter^0,c
  9778   00400C  EF0C  F020         	goto	l4544
  9779   004010                     l4542:
  9780   004010  90D8               	bcf	status,0,c
  9781   004012  3603               	rlcf	___awmod@divisor^0,f,c
  9782   004014  3604               	rlcf	(___awmod@divisor+1)^0,f,c
  9783   004016  2A05               	incf	___awmod@counter^0,f,c
  9784   004018                     l4544:
  9785   004018  AE04               	btfss	(___awmod@divisor+1)^0,7,c
  9786   00401A  EF11  F020         	goto	u4491
  9787   00401E  EF13  F020         	goto	u4490
  9788   004022                     u4491:
  9789   004022  EF08  F020         	goto	l4542
  9790   004026                     u4490:
  9791   004026                     l4546:
  9792   004026  5003               	movf	___awmod@divisor^0,w,c
  9793   004028  5C01               	subwf	___awmod@dividend^0,w,c
  9794   00402A  5004               	movf	(___awmod@divisor+1)^0,w,c
  9795   00402C  5802               	subwfb	(___awmod@dividend+1)^0,w,c
  9796   00402E  A0D8               	btfss	status,0,c
  9797   004030  EF1C  F020         	goto	u4501
  9798   004034  EF1E  F020         	goto	u4500
  9799   004038                     u4501:
  9800   004038  EF22  F020         	goto	l4550
  9801   00403C                     u4500:
  9802   00403C  5003               	movf	___awmod@divisor^0,w,c
  9803   00403E  5E01               	subwf	___awmod@dividend^0,f,c
  9804   004040  5004               	movf	(___awmod@divisor+1)^0,w,c
  9805   004042  5A02               	subwfb	(___awmod@dividend+1)^0,f,c
  9806   004044                     l4550:
  9807   004044  90D8               	bcf	status,0,c
  9808   004046  3204               	rrcf	(___awmod@divisor+1)^0,f,c
  9809   004048  3203               	rrcf	___awmod@divisor^0,f,c
  9810   00404A  2E05               	decfsz	___awmod@counter^0,f,c
  9811   00404C  EF13  F020         	goto	l4546
  9812   004050                     l4554:
  9813   004050  5006               	movf	___awmod@sign^0,w,c
  9814   004052  B4D8               	btfsc	status,2,c
  9815   004054  EF2E  F020         	goto	u4511
  9816   004058  EF30  F020         	goto	u4510
  9817   00405C                     u4511:
  9818   00405C  EF34  F020         	goto	l4558
  9819   004060                     u4510:
  9820   004060  6C01               	negf	___awmod@dividend^0,c
  9821   004062  1E02               	comf	(___awmod@dividend+1)^0,f,c
  9822   004064  B0D8               	btfsc	status,0,c
  9823   004066  2A02               	incf	(___awmod@dividend+1)^0,f,c
  9824   004068                     l4558:
  9825   004068  C001  F001         	movff	___awmod@dividend,?___awmod
  9826   00406C  C002  F002         	movff	___awmod@dividend+1,?___awmod+1
  9827   004070  0012               	return		;funcret
  9828   004072                     __end_of___awmod:
  9829                           	callstack 0
  9830                           
  9831 ;; *************** function ___awdiv *****************
  9832 ;; Defined at:
  9833 ;;		line 7 in file "C:\Program Files\Microchip\xc8\v2.40\pic\sources\c99\common\awdiv.c"
  9834 ;; Parameters:    Size  Location     Type
  9835 ;;  dividend        2    0[COMRAM] int 
  9836 ;;  divisor         2    2[COMRAM] int 
  9837 ;; Auto vars:     Size  Location     Type
  9838 ;;  quotient        2    6[COMRAM] int 
  9839 ;;  sign            1    5[COMRAM] unsigned char 
  9840 ;;  counter         1    4[COMRAM] unsigned char 
  9841 ;; Return value:  Size  Location     Type
  9842 ;;                  2    0[COMRAM] int 
  9843 ;; Registers used:
  9844 ;;		wreg, status,2, status,0
  9845 ;; Tracked objects:
  9846 ;;		On entry : 0/0
  9847 ;;		On exit  : 0/0
  9848 ;;		Unchanged: 0/0
  9849 ;; Data sizes:     COMRAM   BANK0   BANK1   BANK2   BANK3   BANK4   BANK5   BANK6   BANK7
  9850 ;;      Params:         4       0       0       0       0       0       0       0       0
  9851 ;;      Locals:         4       0       0       0       0       0       0       0       0
  9852 ;;      Temps:          0       0       0       0       0       0       0       0       0
  9853 ;;      Totals:         8       0       0       0       0       0       0       0       0
  9854 ;;Total ram usage:        8 bytes
  9855 ;; Hardware stack levels used: 1
  9856 ;; Hardware stack levels required when called: 1
  9857 ;; This function calls:
  9858 ;;		Nothing
  9859 ;; This function is called by:
  9860 ;;		_RTC_Set_Time
  9861 ;;		_RTC_Set_Date
  9862 ;; This function uses a non-reentrant model
  9863 ;;
  9864                           
  9865                           	psect	text38
  9866   003EFE                     __ptext38:
  9867                           	callstack 0
  9868   003EFE                     ___awdiv:
  9869                           	callstack 28
  9870   003EFE  0E00               	movlw	0
  9871   003F00  6E06               	movwf	___awdiv@sign^0,c
  9872   003F02  BE04               	btfsc	(___awdiv@divisor+1)^0,7,c
  9873   003F04  EF88  F01F         	goto	u4400
  9874   003F08  EF86  F01F         	goto	u4401
  9875   003F0C                     u4401:
  9876   003F0C  EF8E  F01F         	goto	l4490
  9877   003F10                     u4400:
  9878   003F10  6C03               	negf	___awdiv@divisor^0,c
  9879   003F12  1E04               	comf	(___awdiv@divisor+1)^0,f,c
  9880   003F14  B0D8               	btfsc	status,0,c
  9881   003F16  2A04               	incf	(___awdiv@divisor+1)^0,f,c
  9882   003F18  0E01               	movlw	1
  9883   003F1A  6E06               	movwf	___awdiv@sign^0,c
  9884   003F1C                     l4490:
  9885   003F1C  BE02               	btfsc	(___awdiv@dividend+1)^0,7,c
  9886   003F1E  EF95  F01F         	goto	u4410
  9887   003F22  EF93  F01F         	goto	u4411
  9888   003F26                     u4411:
  9889   003F26  EF9B  F01F         	goto	l4496
  9890   003F2A                     u4410:
  9891   003F2A  6C01               	negf	___awdiv@dividend^0,c
  9892   003F2C  1E02               	comf	(___awdiv@dividend+1)^0,f,c
  9893   003F2E  B0D8               	btfsc	status,0,c
  9894   003F30  2A02               	incf	(___awdiv@dividend+1)^0,f,c
  9895   003F32  0E01               	movlw	1
  9896   003F34  1A06               	xorwf	___awdiv@sign^0,f,c
  9897   003F36                     l4496:
  9898   003F36  0E00               	movlw	0
  9899   003F38  6E08               	movwf	(___awdiv@quotient+1)^0,c
  9900   003F3A  0E00               	movlw	0
  9901   003F3C  6E07               	movwf	___awdiv@quotient^0,c
  9902   003F3E  5003               	movf	___awdiv@divisor^0,w,c
  9903   003F40  1004               	iorwf	(___awdiv@divisor+1)^0,w,c
  9904   003F42  B4D8               	btfsc	status,2,c
  9905   003F44  EFA6  F01F         	goto	u4421
  9906   003F48  EFA8  F01F         	goto	u4420
  9907   003F4C                     u4421:
  9908   003F4C  EFD0  F01F         	goto	l4518
  9909   003F50                     u4420:
  9910   003F50  0E01               	movlw	1
  9911   003F52  6E05               	movwf	___awdiv@counter^0,c
  9912   003F54  EFB0  F01F         	goto	l4504
  9913   003F58                     l4502:
  9914   003F58  90D8               	bcf	status,0,c
  9915   003F5A  3603               	rlcf	___awdiv@divisor^0,f,c
  9916   003F5C  3604               	rlcf	(___awdiv@divisor+1)^0,f,c
  9917   003F5E  2A05               	incf	___awdiv@counter^0,f,c
  9918   003F60                     l4504:
  9919   003F60  AE04               	btfss	(___awdiv@divisor+1)^0,7,c
  9920   003F62  EFB5  F01F         	goto	u4431
  9921   003F66  EFB7  F01F         	goto	u4430
  9922   003F6A                     u4431:
  9923   003F6A  EFAC  F01F         	goto	l4502
  9924   003F6E                     u4430:
  9925   003F6E                     l4506:
  9926   003F6E  90D8               	bcf	status,0,c
  9927   003F70  3607               	rlcf	___awdiv@quotient^0,f,c
  9928   003F72  3608               	rlcf	(___awdiv@quotient+1)^0,f,c
  9929   003F74  5003               	movf	___awdiv@divisor^0,w,c
  9930   003F76  5C01               	subwf	___awdiv@dividend^0,w,c
  9931   003F78  5004               	movf	(___awdiv@divisor+1)^0,w,c
  9932   003F7A  5802               	subwfb	(___awdiv@dividend+1)^0,w,c
  9933   003F7C  A0D8               	btfss	status,0,c
  9934   003F7E  EFC3  F01F         	goto	u4441
  9935   003F82  EFC5  F01F         	goto	u4440
  9936   003F86                     u4441:
  9937   003F86  EFCA  F01F         	goto	l4514
  9938   003F8A                     u4440:
  9939   003F8A  5003               	movf	___awdiv@divisor^0,w,c
  9940   003F8C  5E01               	subwf	___awdiv@dividend^0,f,c
  9941   003F8E  5004               	movf	(___awdiv@divisor+1)^0,w,c
  9942   003F90  5A02               	subwfb	(___awdiv@dividend+1)^0,f,c
  9943   003F92  8007               	bsf	___awdiv@quotient^0,0,c
  9944   003F94                     l4514:
  9945   003F94  90D8               	bcf	status,0,c
  9946   003F96  3204               	rrcf	(___awdiv@divisor+1)^0,f,c
  9947   003F98  3203               	rrcf	___awdiv@divisor^0,f,c
  9948   003F9A  2E05               	decfsz	___awdiv@counter^0,f,c
  9949   003F9C  EFB7  F01F         	goto	l4506
  9950   003FA0                     l4518:
  9951   003FA0  5006               	movf	___awdiv@sign^0,w,c
  9952   003FA2  B4D8               	btfsc	status,2,c
  9953   003FA4  EFD6  F01F         	goto	u4451
  9954   003FA8  EFD8  F01F         	goto	u4450
  9955   003FAC                     u4451:
  9956   003FAC  EFDC  F01F         	goto	l4522
  9957   003FB0                     u4450:
  9958   003FB0  6C07               	negf	___awdiv@quotient^0,c
  9959   003FB2  1E08               	comf	(___awdiv@quotient+1)^0,f,c
  9960   003FB4  B0D8               	btfsc	status,0,c
  9961   003FB6  2A08               	incf	(___awdiv@quotient+1)^0,f,c
  9962   003FB8                     l4522:
  9963   003FB8  C007  F001         	movff	___awdiv@quotient,?___awdiv
  9964   003FBC  C008  F002         	movff	___awdiv@quotient+1,?___awdiv+1
  9965   003FC0  0012               	return		;funcret
  9966   003FC2                     __end_of___awdiv:
  9967                           	callstack 0
  9968                           
  9969 ;; *************** function _I2C_Stop *****************
  9970 ;; Defined at:
  9971 ;;		line 88 in file "I2C_Driver.c"
  9972 ;; Parameters:    Size  Location     Type
  9973 ;;		None
  9974 ;; Auto vars:     Size  Location     Type
  9975 ;;		None
  9976 ;; Return value:  Size  Location     Type
  9977 ;;                  1    wreg      unsigned char 
  9978 ;; Registers used:
  9979 ;;		None
  9980 ;; Tracked objects:
  9981 ;;		On entry : 0/0
  9982 ;;		On exit  : 0/0
  9983 ;;		Unchanged: 0/0
  9984 ;; Data sizes:     COMRAM   BANK0   BANK1   BANK2   BANK3   BANK4   BANK5   BANK6   BANK7
  9985 ;;      Params:         0       0       0       0       0       0       0       0       0
  9986 ;;      Locals:         0       0       0       0       0       0       0       0       0
  9987 ;;      Temps:          0       0       0       0       0       0       0       0       0
  9988 ;;      Totals:         0       0       0       0       0       0       0       0       0
  9989 ;;Total ram usage:        0 bytes
  9990 ;; Hardware stack levels used: 1
  9991 ;; Hardware stack levels required when called: 1
  9992 ;; This function calls:
  9993 ;;		Nothing
  9994 ;; This function is called by:
  9995 ;;		_RTC_Set_Time
  9996 ;;		_RTC_Set_Date
  9997 ;;		_RTC_Get_Time
  9998 ;;		_RTC_Get_Date
  9999 ;;		_I2C_Start_Wait
 10000 ;; This function uses a non-reentrant model
 10001 ;;
 10002                           
 10003                           	psect	text39
 10004   004660                     __ptext39:
 10005                           	callstack 0
 10006   004660                     _I2C_Stop:
 10007                           	callstack 27
 10008   004660                     
 10009                           ;I2C_Driver.c: 90:     PEN = 1;
 10010   004660  84C5               	bsf	4037,2,c	;volatile
 10011   004662                     l287:
 10012   004662  B4C5               	btfsc	4037,2,c	;volatile
 10013   004664  EF36  F023         	goto	u3191
 10014   004668  EF38  F023         	goto	u3190
 10015   00466C                     u3191:
 10016   00466C  EF31  F023         	goto	l287
 10017   004670                     u3190:
 10018   004670                     l290:
 10019   004670  A8C7               	btfss	199,4,c	;volatile
 10020   004672  EF3D  F023         	goto	u3201
 10021   004676  EF3F  F023         	goto	u3200
 10022   00467A                     u3201:
 10023   00467A  EF38  F023         	goto	l290
 10024   00467E                     u3200:
 10025   00467E  0012               	return		;funcret
 10026   004680                     __end_of_I2C_Stop:
 10027                           	callstack 0
 10028                           
 10029 ;; *************** function _I2C_Start *****************
 10030 ;; Defined at:
 10031 ;;		line 64 in file "I2C_Driver.c"
 10032 ;; Parameters:    Size  Location     Type
 10033 ;;  slave_write_    1    wreg     unsigned char 
 10034 ;; Auto vars:     Size  Location     Type
 10035 ;;  slave_write_    1    1[COMRAM] unsigned char 
 10036 ;; Return value:  Size  Location     Type
 10037 ;;                  1    wreg      unsigned char 
 10038 ;; Registers used:
 10039 ;;		wreg, status,2, cstack
 10040 ;; Tracked objects:
 10041 ;;		On entry : 0/0
 10042 ;;		On exit  : 0/0
 10043 ;;		Unchanged: 0/0
 10044 ;; Data sizes:     COMRAM   BANK0   BANK1   BANK2   BANK3   BANK4   BANK5   BANK6   BANK7
 10045 ;;      Params:         0       0       0       0       0       0       0       0       0
 10046 ;;      Locals:         1       0       0       0       0       0       0       0       0
 10047 ;;      Temps:          0       0       0       0       0       0       0       0       0
 10048 ;;      Totals:         1       0       0       0       0       0       0       0       0
 10049 ;;Total ram usage:        1 bytes
 10050 ;; Hardware stack levels used: 1
 10051 ;; Hardware stack levels required when called: 3
 10052 ;; This function calls:
 10053 ;;		_I2C_Write
 10054 ;; This function is called by:
 10055 ;;		_RTC_Set_Time
 10056 ;;		_RTC_Set_Date
 10057 ;;		_RTC_Get_Time
 10058 ;;		_RTC_Get_Date
 10059 ;; This function uses a non-reentrant model
 10060 ;;
 10061                           
 10062                           	psect	text40
 10063   0045EE                     __ptext40:
 10064                           	callstack 0
 10065   0045EE                     _I2C_Start:
 10066                           	callstack 25
 10067                           
 10068                           ;incstack = 0
 10069                           ;I2C_Start@slave_write_address stored from wreg
 10070   0045EE  6E02               	movwf	I2C_Start@slave_write_address^0,c
 10071   0045F0                     
 10072                           ;I2C_Driver.c: 64: char I2C_Start(char slave_write_address);I2C_Driver.c: 65: {;I2C_Driv
      +                          er.c: 66:     SSPCON2bits.SEN = 1;
 10073   0045F0  80C5               	bsf	197,0,c	;volatile
 10074   0045F2                     l271:
 10075   0045F2  B0C5               	btfsc	197,0,c	;volatile
 10076   0045F4  EFFE  F022         	goto	u3211
 10077   0045F8  EF00  F023         	goto	u3210
 10078   0045FC                     u3211:
 10079   0045FC  EFF9  F022         	goto	l271
 10080   004600                     u3210:
 10081   004600                     
 10082                           ;I2C_Driver.c: 68:     SSPIF = 0;
 10083   004600  969E               	bcf	3998,3,c	;volatile
 10084                           
 10085                           ;I2C_Driver.c: 69:     if (!SSPSTATbits.S)
 10086   004602  B6C7               	btfsc	199,3,c	;volatile
 10087   004604  EF06  F023         	goto	u3221
 10088   004608  EF08  F023         	goto	u3220
 10089   00460C                     u3221:
 10090   00460C  EF0A  F023         	goto	l3820
 10091   004610                     u3220:
 10092   004610  EF0D  F023         	goto	l275
 10093   004614                     l3820:
 10094                           
 10095                           ;I2C_Driver.c: 71:     return (I2C_Write(slave_write_address));;	Return value of _I2C_St
      +                          art is never used
 10096   004614  5002               	movf	I2C_Start@slave_write_address^0,w,c
 10097   004616  EC1F  F023         	call	_I2C_Write
 10098   00461A                     l275:
 10099   00461A  0012               	return		;funcret
 10100   00461C                     __end_of_I2C_Start:
 10101                           	callstack 0
 10102                           
 10103 ;; *************** function _I2C_Write *****************
 10104 ;; Defined at:
 10105 ;;		line 96 in file "I2C_Driver.c"
 10106 ;; Parameters:    Size  Location     Type
 10107 ;;  data            1    wreg     unsigned char 
 10108 ;; Auto vars:     Size  Location     Type
 10109 ;;  data            1    0[COMRAM] unsigned char 
 10110 ;; Return value:  Size  Location     Type
 10111 ;;                  1    wreg      unsigned char 
 10112 ;; Registers used:
 10113 ;;		wreg, cstack
 10114 ;; Tracked objects:
 10115 ;;		On entry : 0/0
 10116 ;;		On exit  : 0/0
 10117 ;;		Unchanged: 0/0
 10118 ;; Data sizes:     COMRAM   BANK0   BANK1   BANK2   BANK3   BANK4   BANK5   BANK6   BANK7
 10119 ;;      Params:         0       0       0       0       0       0       0       0       0
 10120 ;;      Locals:         1       0       0       0       0       0       0       0       0
 10121 ;;      Temps:          0       0       0       0       0       0       0       0       0
 10122 ;;      Totals:         1       0       0       0       0       0       0       0       0
 10123 ;;Total ram usage:        1 bytes
 10124 ;; Hardware stack levels used: 1
 10125 ;; Hardware stack levels required when called: 2
 10126 ;; This function calls:
 10127 ;;		_I2C_Ready
 10128 ;; This function is called by:
 10129 ;;		_I2C_Start
 10130 ;;		_I2C_Repeated_Start
 10131 ;;		_RTC_Set_Time
 10132 ;;		_RTC_Set_Date
 10133 ;;		_RTC_Get_Time
 10134 ;;		_RTC_Get_Date
 10135 ;;		_I2C_Start_Wait
 10136 ;; This function uses a non-reentrant model
 10137 ;;
 10138                           
 10139                           	psect	text41
 10140   00463E                     __ptext41:
 10141                           	callstack 0
 10142   00463E                     _I2C_Write:
 10143                           	callstack 26
 10144                           
 10145                           ;incstack = 0
 10146                           ;I2C_Write@data stored from wreg
 10147   00463E  6E01               	movwf	I2C_Write@data^0,c
 10148   004640                     
 10149                           ;I2C_Driver.c: 96: char I2C_Write(unsigned char data);I2C_Driver.c: 97: {;I2C_Driver.c: 
      +                          98:     SSPBUF = data;
 10150   004640  C001  FFC9         	movff	I2C_Write@data,4041	;volatile
 10151   004644                     
 10152                           ;I2C_Driver.c: 99:     I2C_Ready();
 10153   004644  EC86  F023         	call	_I2C_Ready	;wreg free
 10154   004648                     
 10155                           ;I2C_Driver.c: 100:     if (ACKSTAT)
 10156   004648  ACC5               	btfss	4037,6,c	;volatile
 10157   00464A  EF29  F023         	goto	u3061
 10158   00464E  EF2B  F023         	goto	u3060
 10159   004652                     u3061:
 10160   004652  EF2E  F023         	goto	l3696
 10161   004656                     u3060:
 10162   004656                     
 10163                           ;I2C_Driver.c: 101:         return 1;
 10164   004656  0E01               	movlw	1
 10165   004658  EF2F  F023         	goto	l297
 10166   00465C                     l3696:
 10167                           
 10168                           ;I2C_Driver.c: 103:         return 2;
 10169   00465C  0E02               	movlw	2
 10170   00465E                     l297:
 10171   00465E  0012               	return		;funcret
 10172   004660                     __end_of_I2C_Write:
 10173                           	callstack 0
 10174                           
 10175 ;; *************** function _I2C_Ready *****************
 10176 ;; Defined at:
 10177 ;;		line 41 in file "I2C_Driver.c"
 10178 ;; Parameters:    Size  Location     Type
 10179 ;;		None
 10180 ;; Auto vars:     Size  Location     Type
 10181 ;;		None
 10182 ;; Return value:  Size  Location     Type
 10183 ;;                  1    wreg      void 
 10184 ;; Registers used:
 10185 ;;		None
 10186 ;; Tracked objects:
 10187 ;;		On entry : 0/0
 10188 ;;		On exit  : 0/0
 10189 ;;		Unchanged: 0/0
 10190 ;; Data sizes:     COMRAM   BANK0   BANK1   BANK2   BANK3   BANK4   BANK5   BANK6   BANK7
 10191 ;;      Params:         0       0       0       0       0       0       0       0       0
 10192 ;;      Locals:         0       0       0       0       0       0       0       0       0
 10193 ;;      Temps:          0       0       0       0       0       0       0       0       0
 10194 ;;      Totals:         0       0       0       0       0       0       0       0       0
 10195 ;;Total ram usage:        0 bytes
 10196 ;; Hardware stack levels used: 1
 10197 ;; Hardware stack levels required when called: 1
 10198 ;; This function calls:
 10199 ;;		Nothing
 10200 ;; This function is called by:
 10201 ;;		_I2C_Read
 10202 ;;		_I2C_Write
 10203 ;; This function uses a non-reentrant model
 10204 ;;
 10205                           
 10206                           	psect	text42
 10207   00470C                     __ptext42:
 10208                           	callstack 0
 10209   00470C                     _I2C_Ready:
 10210                           	callstack 26
 10211   00470C                     l254:
 10212   00470C  A69E               	btfss	3998,3,c	;volatile
 10213   00470E  EF8B  F023         	goto	u2871
 10214   004712  EF8D  F023         	goto	u2870
 10215   004716                     u2871:
 10216   004716  EF86  F023         	goto	l254
 10217   00471A                     u2870:
 10218   00471A                     
 10219                           ;I2C_Driver.c: 44:     SSPIF = 0;
 10220   00471A  969E               	bcf	3998,3,c	;volatile
 10221   00471C  0012               	return		;funcret
 10222   00471E                     __end_of_I2C_Ready:
 10223                           	callstack 0
 10224                           
 10225 ;; *************** function _Push_Buttons_Init *****************
 10226 ;; Defined at:
 10227 ;;		line 10 in file "Push_Buttons.c"
 10228 ;; Parameters:    Size  Location     Type
 10229 ;;		None
 10230 ;; Auto vars:     Size  Location     Type
 10231 ;;		None
 10232 ;; Return value:  Size  Location     Type
 10233 ;;                  1    wreg      void 
 10234 ;; Registers used:
 10235 ;;		status,2, status,0
 10236 ;; Tracked objects:
 10237 ;;		On entry : 0/0
 10238 ;;		On exit  : 0/0
 10239 ;;		Unchanged: 0/0
 10240 ;; Data sizes:     COMRAM   BANK0   BANK1   BANK2   BANK3   BANK4   BANK5   BANK6   BANK7
 10241 ;;      Params:         0       0       0       0       0       0       0       0       0
 10242 ;;      Locals:         0       0       0       0       0       0       0       0       0
 10243 ;;      Temps:          0       0       0       0       0       0       0       0       0
 10244 ;;      Totals:         0       0       0       0       0       0       0       0       0
 10245 ;;Total ram usage:        0 bytes
 10246 ;; Hardware stack levels used: 1
 10247 ;; Hardware stack levels required when called: 1
 10248 ;; This function calls:
 10249 ;;		Nothing
 10250 ;; This function is called by:
 10251 ;;		_main
 10252 ;; This function uses a non-reentrant model
 10253 ;;
 10254                           
 10255                           	psect	text43
 10256   004740                     __ptext43:
 10257                           	callstack 0
 10258   004740                     _Push_Buttons_Init:
 10259                           	callstack 29
 10260   004740                     
 10261                           ;Push_Buttons.c: 12:     (TRISB |= (1<<2));
 10262   004740  8493               	bsf	147,2,c	;volatile
 10263                           
 10264                           ;Push_Buttons.c: 13:     (TRISB |= (1<<3));
 10265   004742  8693               	bsf	147,3,c	;volatile
 10266                           
 10267                           ;Push_Buttons.c: 14:     (TRISB |= (1<<4));
 10268   004744  8893               	bsf	147,4,c	;volatile
 10269                           
 10270                           ;Push_Buttons.c: 15:     (TRISB |= (1<<5));
 10271   004746  8A93               	bsf	147,5,c	;volatile
 10272   004748  0012               	return		;funcret
 10273   00474A                     __end_of_Push_Buttons_Init:
 10274                           	callstack 0
 10275                           
 10276 ;; *************** function _LCD_init *****************
 10277 ;; Defined at:
 10278 ;;		line 132 in file "LCD_Driver.c"
 10279 ;; Parameters:    Size  Location     Type
 10280 ;;		None
 10281 ;; Auto vars:     Size  Location     Type
 10282 ;;		None
 10283 ;; Return value:  Size  Location     Type
 10284 ;;                  1    wreg      void 
 10285 ;; Registers used:
 10286 ;;		wreg, status,2, status,0, cstack
 10287 ;; Tracked objects:
 10288 ;;		On entry : 0/0
 10289 ;;		On exit  : 0/0
 10290 ;;		Unchanged: 0/0
 10291 ;; Data sizes:     COMRAM   BANK0   BANK1   BANK2   BANK3   BANK4   BANK5   BANK6   BANK7
 10292 ;;      Params:         0       0       0       0       0       0       0       0       0
 10293 ;;      Locals:         0       0       0       0       0       0       0       0       0
 10294 ;;      Temps:          0       0       0       0       0       0       0       0       0
 10295 ;;      Totals:         0       0       0       0       0       0       0       0       0
 10296 ;;Total ram usage:        0 bytes
 10297 ;; Hardware stack levels used: 1
 10298 ;; Hardware stack levels required when called: 3
 10299 ;; This function calls:
 10300 ;;		_LCD_4bit_mode
 10301 ;; This function is called by:
 10302 ;;		_main
 10303 ;; This function uses a non-reentrant model
 10304 ;;
 10305                           
 10306                           	psect	text44
 10307   00471E                     __ptext44:
 10308                           	callstack 0
 10309   00471E                     _LCD_init:
 10310                           	callstack 27
 10311   00471E                     
 10312                           ;LCD_Driver.c: 133:     (TRISD &=~(1<<2));
 10313   00471E  9495               	bcf	149,2,c	;volatile
 10314                           
 10315                           ;LCD_Driver.c: 134:     (TRISD &=~(1<<3));
 10316   004720  9695               	bcf	149,3,c	;volatile
 10317                           
 10318                           ;LCD_Driver.c: 135:     (TRISD &=~(1<<4));
 10319   004722  9895               	bcf	149,4,c	;volatile
 10320                           
 10321                           ;LCD_Driver.c: 136:     (TRISD &=~(1<<5));
 10322   004724  9A95               	bcf	149,5,c	;volatile
 10323                           
 10324                           ;LCD_Driver.c: 137:     (TRISD &=~(1<<1));
 10325   004726  9295               	bcf	149,1,c	;volatile
 10326                           
 10327                           ;LCD_Driver.c: 138:     (TRISD &=~(1<<0));
 10328   004728  9095               	bcf	149,0,c	;volatile
 10329   00472A                     
 10330                           ;LCD_Driver.c: 143:     LCD_4bit_mode();
 10331   00472A  ECB5  F020         	call	_LCD_4bit_mode	;wreg free
 10332   00472E  0012               	return		;funcret
 10333   004730                     __end_of_LCD_init:
 10334                           	callstack 0
 10335                           
 10336 ;; *************** function _LCD_4bit_mode *****************
 10337 ;; Defined at:
 10338 ;;		line 110 in file "LCD_Driver.c"
 10339 ;; Parameters:    Size  Location     Type
 10340 ;;		None
 10341 ;; Auto vars:     Size  Location     Type
 10342 ;;		None
 10343 ;; Return value:  Size  Location     Type
 10344 ;;                  1    wreg      void 
 10345 ;; Registers used:
 10346 ;;		wreg, status,2, status,0, cstack
 10347 ;; Tracked objects:
 10348 ;;		On entry : 0/0
 10349 ;;		On exit  : 0/0
 10350 ;;		Unchanged: 0/0
 10351 ;; Data sizes:     COMRAM   BANK0   BANK1   BANK2   BANK3   BANK4   BANK5   BANK6   BANK7
 10352 ;;      Params:         0       0       0       0       0       0       0       0       0
 10353 ;;      Locals:         0       0       0       0       0       0       0       0       0
 10354 ;;      Temps:          1       0       0       0       0       0       0       0       0
 10355 ;;      Totals:         1       0       0       0       0       0       0       0       0
 10356 ;;Total ram usage:        1 bytes
 10357 ;; Hardware stack levels used: 1
 10358 ;; Hardware stack levels required when called: 2
 10359 ;; This function calls:
 10360 ;;		_LCD_cmd
 10361 ;;		_LCD_cmd_High
 10362 ;; This function is called by:
 10363 ;;		_LCD_init
 10364 ;; This function uses a non-reentrant model
 10365 ;;
 10366                           
 10367                           	psect	text45
 10368   00416A                     __ptext45:
 10369                           	callstack 0
 10370   00416A                     _LCD_4bit_mode:
 10371                           	callstack 27
 10372   00416A                     
 10373                           ;LCD_Driver.c: 111:     _delay((unsigned long)((15)*(8000000UL/4000.0)));
 10374   00416A  0E27               	movlw	39
 10375   00416C  6E02               	movwf	??_LCD_4bit_mode^0,c
 10376   00416E  0EF5               	movlw	245
 10377   004170                     u5387:
 10378   004170  2EE8               	decfsz	wreg,f,c
 10379   004172  D7FE               	bra	u5387
 10380   004174  2E02               	decfsz	??_LCD_4bit_mode^0,f,c
 10381   004176  D7FC               	bra	u5387
 10382   004178  F000               	nop	
 10383   00417A                     
 10384                           ;LCD_Driver.c: 112:     LCD_cmd_High(0x30);
 10385   00417A  0E30               	movlw	48
 10386   00417C  EC40  F023         	call	_LCD_cmd_High
 10387   004180                     
 10388                           ;LCD_Driver.c: 113:     _delay((unsigned long)((5)*(8000000UL/4000.0)));
 10389   004180  0E0D               	movlw	13
 10390   004182  6E02               	movwf	??_LCD_4bit_mode^0,c
 10391   004184  0EFC               	movlw	252
 10392   004186                     u5397:
 10393   004186  2EE8               	decfsz	wreg,f,c
 10394   004188  D7FE               	bra	u5397
 10395   00418A  2E02               	decfsz	??_LCD_4bit_mode^0,f,c
 10396   00418C  D7FC               	bra	u5397
 10397                           
 10398                           ;LCD_Driver.c: 114:     LCD_cmd_High(0x30);
 10399   00418E  0E30               	movlw	48
 10400   004190  EC40  F023         	call	_LCD_cmd_High
 10401   004194                     
 10402                           ;LCD_Driver.c: 115:     _delay((unsigned long)((100)*(8000000UL/4000000.0)));
 10403   004194  0E42               	movlw	66
 10404   004196                     u5407:
 10405   004196  2EE8               	decfsz	wreg,f,c
 10406   004198  D7FE               	bra	u5407
 10407   00419A  D000               	nop2	
 10408   00419C                     
 10409                           ;LCD_Driver.c: 116:     LCD_cmd_High(0x30);
 10410   00419C  0E30               	movlw	48
 10411   00419E  EC40  F023         	call	_LCD_cmd_High
 10412                           
 10413                           ;LCD_Driver.c: 117:     _delay((unsigned long)((40)*(8000000UL/4000000.0)));
 10414   0041A2  0E1A               	movlw	26
 10415   0041A4                     u5417:
 10416   0041A4  2EE8               	decfsz	wreg,f,c
 10417   0041A6  D7FE               	bra	u5417
 10418   0041A8  D000               	nop2	
 10419   0041AA                     
 10420                           ;LCD_Driver.c: 118:     LCD_cmd_High(0x20);
 10421   0041AA  0E20               	movlw	32
 10422   0041AC  EC40  F023         	call	_LCD_cmd_High
 10423   0041B0                     
 10424                           ;LCD_Driver.c: 119:     _delay((unsigned long)((40)*(8000000UL/4000000.0)));
 10425   0041B0  0E1A               	movlw	26
 10426   0041B2                     u5427:
 10427   0041B2  2EE8               	decfsz	wreg,f,c
 10428   0041B4  D7FE               	bra	u5427
 10429   0041B6  D000               	nop2	
 10430                           
 10431                           ;LCD_Driver.c: 120:     LCD_cmd(0x28);
 10432   0041B8  0E28               	movlw	40
 10433   0041BA  ECAC  F022         	call	_LCD_cmd
 10434                           
 10435                           ;LCD_Driver.c: 121:     LCD_cmd(0x0C);
 10436   0041BE  0E0C               	movlw	12
 10437   0041C0  ECAC  F022         	call	_LCD_cmd
 10438                           
 10439                           ;LCD_Driver.c: 122:     LCD_cmd(0x01);
 10440   0041C4  0E01               	movlw	1
 10441   0041C6  ECAC  F022         	call	_LCD_cmd
 10442   0041CA                     
 10443                           ;LCD_Driver.c: 123:     _delay((unsigned long)((2)*(8000000UL/4000.0)));
 10444   0041CA  0E06               	movlw	6
 10445   0041CC  6E02               	movwf	??_LCD_4bit_mode^0,c
 10446   0041CE  0E30               	movlw	48
 10447   0041D0                     u5437:
 10448   0041D0  2EE8               	decfsz	wreg,f,c
 10449   0041D2  D7FE               	bra	u5437
 10450   0041D4  2E02               	decfsz	??_LCD_4bit_mode^0,f,c
 10451   0041D6  D7FC               	bra	u5437
 10452   0041D8  D000               	nop2	
 10453   0041DA                     
 10454                           ;LCD_Driver.c: 124:     LCD_cmd(0x06);
 10455   0041DA  0E06               	movlw	6
 10456   0041DC  ECAC  F022         	call	_LCD_cmd
 10457   0041E0  0012               	return		;funcret
 10458   0041E2                     __end_of_LCD_4bit_mode:
 10459                           	callstack 0
 10460                           
 10461 ;; *************** function _LCD_cmd_High *****************
 10462 ;; Defined at:
 10463 ;;		line 100 in file "LCD_Driver.c"
 10464 ;; Parameters:    Size  Location     Type
 10465 ;;  cmd             1    wreg     unsigned char 
 10466 ;; Auto vars:     Size  Location     Type
 10467 ;;  cmd             1    0[COMRAM] unsigned char 
 10468 ;; Return value:  Size  Location     Type
 10469 ;;                  1    wreg      void 
 10470 ;; Registers used:
 10471 ;;		wreg, status,2, status,0
 10472 ;; Tracked objects:
 10473 ;;		On entry : 0/0
 10474 ;;		On exit  : 0/0
 10475 ;;		Unchanged: 0/0
 10476 ;; Data sizes:     COMRAM   BANK0   BANK1   BANK2   BANK3   BANK4   BANK5   BANK6   BANK7
 10477 ;;      Params:         0       0       0       0       0       0       0       0       0
 10478 ;;      Locals:         1       0       0       0       0       0       0       0       0
 10479 ;;      Temps:          0       0       0       0       0       0       0       0       0
 10480 ;;      Totals:         1       0       0       0       0       0       0       0       0
 10481 ;;Total ram usage:        1 bytes
 10482 ;; Hardware stack levels used: 1
 10483 ;; Hardware stack levels required when called: 1
 10484 ;; This function calls:
 10485 ;;		Nothing
 10486 ;; This function is called by:
 10487 ;;		_LCD_4bit_mode
 10488 ;; This function uses a non-reentrant model
 10489 ;;
 10490                           
 10491                           	psect	text46
 10492   004680                     __ptext46:
 10493                           	callstack 0
 10494   004680                     _LCD_cmd_High:
 10495                           	callstack 27
 10496                           
 10497                           ;incstack = 0
 10498                           ;LCD_cmd_High@cmd stored from wreg
 10499   004680  6E01               	movwf	LCD_cmd_High@cmd^0,c
 10500   004682                     
 10501                           ;LCD_Driver.c: 101:     (PORTD &=~(1<<0));
 10502   004682  9083               	bcf	131,0,c	;volatile
 10503   004684                     
 10504                           ;LCD_Driver.c: 102:     PORTD &= 0xC3;
 10505   004684  0EC3               	movlw	195
 10506   004686  1683               	andwf	131,f,c	;volatile
 10507   004688                     
 10508                           ;LCD_Driver.c: 103:     PORTD |= (0x3C & (cmd >> 2));
 10509   004688  4001               	rrncf	LCD_cmd_High@cmd^0,w,c
 10510   00468A  42E8               	rrncf	wreg,f,c
 10511   00468C  0B3F               	andlw	63
 10512   00468E  0B3C               	andlw	60
 10513   004690  1283               	iorwf	131,f,c	;volatile
 10514                           
 10515                           ;LCD_Driver.c: 104:     (PORTD |= (1<<1));
 10516   004692  8283               	bsf	131,1,c	;volatile
 10517   004694                     
 10518                           ;LCD_Driver.c: 105:     _delay((unsigned long)((1)*(8000000UL/4000000.0)));
 10519   004694  D000               	nop2		;2 cycle nop
 10520                           
 10521                           ;LCD_Driver.c: 106:     (PORTD &=~(1<<1));
 10522   004696  9283               	bcf	131,1,c	;volatile
 10523                           
 10524                           ;LCD_Driver.c: 107:     (PORTD |= (1<<0));
 10525   004698  8083               	bsf	131,0,c	;volatile
 10526   00469A  0012               	return		;funcret
 10527   00469C                     __end_of_LCD_cmd_High:
 10528                           	callstack 0
 10529                           
 10530 ;; *************** function _LCD_clear *****************
 10531 ;; Defined at:
 10532 ;;		line 127 in file "LCD_Driver.c"
 10533 ;; Parameters:    Size  Location     Type
 10534 ;;		None
 10535 ;; Auto vars:     Size  Location     Type
 10536 ;;		None
 10537 ;; Return value:  Size  Location     Type
 10538 ;;                  1    wreg      void 
 10539 ;; Registers used:
 10540 ;;		wreg, status,2, status,0, cstack
 10541 ;; Tracked objects:
 10542 ;;		On entry : 0/0
 10543 ;;		On exit  : 0/0
 10544 ;;		Unchanged: 0/0
 10545 ;; Data sizes:     COMRAM   BANK0   BANK1   BANK2   BANK3   BANK4   BANK5   BANK6   BANK7
 10546 ;;      Params:         0       0       0       0       0       0       0       0       0
 10547 ;;      Locals:         0       0       0       0       0       0       0       0       0
 10548 ;;      Temps:          1       0       0       0       0       0       0       0       0
 10549 ;;      Totals:         1       0       0       0       0       0       0       0       0
 10550 ;;Total ram usage:        1 bytes
 10551 ;; Hardware stack levels used: 1
 10552 ;; Hardware stack levels required when called: 2
 10553 ;; This function calls:
 10554 ;;		_LCD_cmd
 10555 ;; This function is called by:
 10556 ;;		_main
 10557 ;; This function uses a non-reentrant model
 10558 ;;
 10559                           
 10560                           	psect	text47
 10561   0046B6                     __ptext47:
 10562                           	callstack 0
 10563   0046B6                     _LCD_clear:
 10564                           	callstack 28
 10565   0046B6                     
 10566                           ;LCD_Driver.c: 128:     LCD_cmd(0x01);
 10567   0046B6  0E01               	movlw	1
 10568   0046B8  ECAC  F022         	call	_LCD_cmd
 10569   0046BC                     
 10570                           ;LCD_Driver.c: 129:     _delay((unsigned long)((2)*(8000000UL/4000.0)));
 10571   0046BC  0E06               	movlw	6
 10572   0046BE  6E02               	movwf	??_LCD_clear^0,c
 10573   0046C0  0E30               	movlw	48
 10574   0046C2                     u5447:
 10575   0046C2  2EE8               	decfsz	wreg,f,c
 10576   0046C4  D7FE               	bra	u5447
 10577   0046C6  2E02               	decfsz	??_LCD_clear^0,f,c
 10578   0046C8  D7FC               	bra	u5447
 10579   0046CA  D000               	nop2	
 10580   0046CC  0012               	return		;funcret
 10581   0046CE                     __end_of_LCD_clear:
 10582                           	callstack 0
 10583                           
 10584 ;; *************** function _LCD_cmd *****************
 10585 ;; Defined at:
 10586 ;;		line 78 in file "LCD_Driver.c"
 10587 ;; Parameters:    Size  Location     Type
 10588 ;;  cmd             1    wreg     unsigned char 
 10589 ;; Auto vars:     Size  Location     Type
 10590 ;;  cmd             1    0[COMRAM] unsigned char 
 10591 ;; Return value:  Size  Location     Type
 10592 ;;                  1    wreg      void 
 10593 ;; Registers used:
 10594 ;;		wreg, status,2, status,0
 10595 ;; Tracked objects:
 10596 ;;		On entry : 0/0
 10597 ;;		On exit  : 0/0
 10598 ;;		Unchanged: 0/0
 10599 ;; Data sizes:     COMRAM   BANK0   BANK1   BANK2   BANK3   BANK4   BANK5   BANK6   BANK7
 10600 ;;      Params:         0       0       0       0       0       0       0       0       0
 10601 ;;      Locals:         1       0       0       0       0       0       0       0       0
 10602 ;;      Temps:          0       0       0       0       0       0       0       0       0
 10603 ;;      Totals:         1       0       0       0       0       0       0       0       0
 10604 ;;Total ram usage:        1 bytes
 10605 ;; Hardware stack levels used: 1
 10606 ;; Hardware stack levels required when called: 1
 10607 ;; This function calls:
 10608 ;;		Nothing
 10609 ;; This function is called by:
 10610 ;;		_LCD_4bit_mode
 10611 ;;		_LCD_clear
 10612 ;;		_LCD_goto_xy
 10613 ;; This function uses a non-reentrant model
 10614 ;;
 10615                           
 10616                           	psect	text48
 10617   004558                     __ptext48:
 10618                           	callstack 0
 10619   004558                     _LCD_cmd:
 10620                           	callstack 27
 10621                           
 10622                           ;incstack = 0
 10623                           ;LCD_cmd@cmd stored from wreg
 10624   004558  6E01               	movwf	LCD_cmd@cmd^0,c
 10625   00455A                     
 10626                           ;LCD_Driver.c: 79:     (PORTD &=~(1<<0));
 10627   00455A  9083               	bcf	131,0,c	;volatile
 10628   00455C                     
 10629                           ;LCD_Driver.c: 82:     PORTD &= 0xC3;
 10630   00455C  0EC3               	movlw	195
 10631   00455E  1683               	andwf	131,f,c	;volatile
 10632   004560                     
 10633                           ;LCD_Driver.c: 83:     PORTD |= (0x3C & (cmd >> 2));
 10634   004560  4001               	rrncf	LCD_cmd@cmd^0,w,c
 10635   004562  42E8               	rrncf	wreg,f,c
 10636   004564  0B3F               	andlw	63
 10637   004566  0B3C               	andlw	60
 10638   004568  1283               	iorwf	131,f,c	;volatile
 10639                           
 10640                           ;LCD_Driver.c: 85:     (PORTD |= (1<<1));
 10641   00456A  8283               	bsf	131,1,c	;volatile
 10642   00456C                     
 10643                           ;LCD_Driver.c: 86:     _delay((unsigned long)((1)*(8000000UL/4000000.0)));
 10644   00456C  D000               	nop2		;2 cycle nop
 10645                           
 10646                           ;LCD_Driver.c: 87:     (PORTD &=~(1<<1));
 10647   00456E  9283               	bcf	131,1,c	;volatile
 10648   004570                     
 10649                           ;LCD_Driver.c: 89:     PORTD &= 0xC3;
 10650   004570  0EC3               	movlw	195
 10651   004572  1683               	andwf	131,f,c	;volatile
 10652   004574                     
 10653                           ;LCD_Driver.c: 90:     PORTD |= (0x3C & (cmd) << 2);
 10654   004574  4401               	rlncf	LCD_cmd@cmd^0,w,c
 10655   004576  46E8               	rlncf	wreg,f,c
 10656   004578  0BFC               	andlw	252
 10657   00457A  0B3C               	andlw	60
 10658   00457C  1283               	iorwf	131,f,c	;volatile
 10659                           
 10660                           ;LCD_Driver.c: 92:     (PORTD |= (1<<1));
 10661   00457E  8283               	bsf	131,1,c	;volatile
 10662   004580                     
 10663                           ;LCD_Driver.c: 93:     _delay((unsigned long)((1)*(8000000UL/4000000.0)));
 10664   004580  D000               	nop2		;2 cycle nop
 10665                           
 10666                           ;LCD_Driver.c: 94:     (PORTD &=~(1<<1));
 10667   004582  9283               	bcf	131,1,c	;volatile
 10668                           
 10669                           ;LCD_Driver.c: 95:     (PORTD |= (1<<0));
 10670   004584  8083               	bsf	131,0,c	;volatile
 10671   004586                     
 10672                           ;LCD_Driver.c: 97:     _delay((unsigned long)((40)*(8000000UL/4000000.0)));
 10673   004586  0E1A               	movlw	26
 10674   004588                     u5457:
 10675   004588  2EE8               	decfsz	wreg,f,c
 10676   00458A  D7FE               	bra	u5457
 10677   00458C  D000               	nop2	
 10678   00458E  0012               	return		;funcret
 10679   004590                     __end_of_LCD_cmd:
 10680                           	callstack 0
 10681                           
 10682 ;; *************** function _EEPROM_Write *****************
 10683 ;; Defined at:
 10684 ;;		line 12 in file "EEPROM_Driver.c"
 10685 ;; Parameters:    Size  Location     Type
 10686 ;;  address         1    wreg     unsigned char 
 10687 ;;  data            1    0[COMRAM] unsigned char 
 10688 ;; Auto vars:     Size  Location     Type
 10689 ;;  address         1    1[COMRAM] unsigned char 
 10690 ;; Return value:  Size  Location     Type
 10691 ;;                  1    wreg      void 
 10692 ;; Registers used:
 10693 ;;		wreg, status,2
 10694 ;; Tracked objects:
 10695 ;;		On entry : 0/0
 10696 ;;		On exit  : 0/0
 10697 ;;		Unchanged: 0/0
 10698 ;; Data sizes:     COMRAM   BANK0   BANK1   BANK2   BANK3   BANK4   BANK5   BANK6   BANK7
 10699 ;;      Params:         1       0       0       0       0       0       0       0       0
 10700 ;;      Locals:         1       0       0       0       0       0       0       0       0
 10701 ;;      Temps:          0       0       0       0       0       0       0       0       0
 10702 ;;      Totals:         2       0       0       0       0       0       0       0       0
 10703 ;;Total ram usage:        2 bytes
 10704 ;; Hardware stack levels used: 1
 10705 ;; Hardware stack levels required when called: 1
 10706 ;; This function calls:
 10707 ;;		Nothing
 10708 ;; This function is called by:
 10709 ;;		_main
 10710 ;;		_EEPROM_WriteString
 10711 ;; This function uses a non-reentrant model
 10712 ;;
 10713                           
 10714                           	psect	text49
 10715   004590                     __ptext49:
 10716                           	callstack 0
 10717   004590                     _EEPROM_Write:
 10718                           	callstack 29
 10719                           
 10720                           ;incstack = 0
 10721                           ;EEPROM_Write@address stored from wreg
 10722   004590  6E02               	movwf	EEPROM_Write@address^0,c
 10723   004592                     
 10724                           ;EEPROM_Driver.c: 12: void EEPROM_Write(char address,char data);EEPROM_Driver.c: 13: {;E
      +                          EPROM_Driver.c: 15:     EEADR=address;
 10725   004592  C002  FFA9         	movff	EEPROM_Write@address,4009	;volatile
 10726   004596                     
 10727                           ;EEPROM_Driver.c: 16:     EEDATA=data;
 10728   004596  C001  FFA8         	movff	EEPROM_Write@data,4008	;volatile
 10729   00459A                     
 10730                           ;EEPROM_Driver.c: 17:     EECON1bits.EEPGD=0;
 10731   00459A  9EA6               	bcf	166,7,c	;volsfr
 10732   00459C                     
 10733                           ;EEPROM_Driver.c: 18:     EECON1bits.CFGS=0;
 10734   00459C  9CA6               	bcf	166,6,c	;volsfr
 10735   00459E                     
 10736                           ;EEPROM_Driver.c: 19:     EECON1bits.WREN=1;
 10737   00459E  84A6               	bsf	166,2,c	;volsfr
 10738   0045A0                     
 10739                           ;EEPROM_Driver.c: 20:     INTCONbits.GIE=0;
 10740   0045A0  9EF2               	bcf	242,7,c	;volatile
 10741   0045A2                     
 10742                           ;EEPROM_Driver.c: 23:     EECON2=0x55;
 10743   0045A2  0E55               	movlw	85
 10744   0045A4  6EA7               	movwf	167,c	;volsfr
 10745   0045A6                     
 10746                           ;EEPROM_Driver.c: 24:     EECON2=0xaa;
 10747   0045A6  0EAA               	movlw	170
 10748   0045A8  6EA7               	movwf	167,c	;volsfr
 10749   0045AA                     
 10750                           ;EEPROM_Driver.c: 26:     EECON1bits.WR=1;
 10751   0045AA  82A6               	bsf	166,1,c	;volsfr
 10752   0045AC                     
 10753                           ;EEPROM_Driver.c: 27:     INTCONbits.GIE=1;
 10754   0045AC  8EF2               	bsf	242,7,c	;volatile
 10755   0045AE                     l597:
 10756   0045AE  A8A1               	btfss	161,4,c	;volatile
 10757   0045B0  EFDC  F022         	goto	u5081
 10758   0045B4  EFDE  F022         	goto	u5080
 10759   0045B8                     u5081:
 10760   0045B8  EFD7  F022         	goto	l597
 10761   0045BC                     u5080:
 10762   0045BC                     
 10763                           ;EEPROM_Driver.c: 31:     PIR2bits.EEIF=0;
 10764   0045BC  98A1               	bcf	161,4,c	;volatile
 10765   0045BE  0012               	return		;funcret
 10766   0045C0                     __end_of_EEPROM_Write:
 10767                           	callstack 0
 10768                           
 10769 ;; *************** function _EEPROM_Read *****************
 10770 ;; Defined at:
 10771 ;;		line 46 in file "EEPROM_Driver.c"
 10772 ;; Parameters:    Size  Location     Type
 10773 ;;  address         1    wreg     unsigned char 
 10774 ;; Auto vars:     Size  Location     Type
 10775 ;;  address         1    0[COMRAM] unsigned char 
 10776 ;; Return value:  Size  Location     Type
 10777 ;;                  1    wreg      unsigned char 
 10778 ;; Registers used:
 10779 ;;		wreg, status,2
 10780 ;; Tracked objects:
 10781 ;;		On entry : 0/0
 10782 ;;		On exit  : 0/0
 10783 ;;		Unchanged: 0/0
 10784 ;; Data sizes:     COMRAM   BANK0   BANK1   BANK2   BANK3   BANK4   BANK5   BANK6   BANK7
 10785 ;;      Params:         0       0       0       0       0       0       0       0       0
 10786 ;;      Locals:         1       0       0       0       0       0       0       0       0
 10787 ;;      Temps:          0       0       0       0       0       0       0       0       0
 10788 ;;      Totals:         1       0       0       0       0       0       0       0       0
 10789 ;;Total ram usage:        1 bytes
 10790 ;; Hardware stack levels used: 1
 10791 ;; Hardware stack levels required when called: 1
 10792 ;; This function calls:
 10793 ;;		Nothing
 10794 ;; This function is called by:
 10795 ;;		_main
 10796 ;; This function uses a non-reentrant model
 10797 ;;
 10798                           
 10799                           	psect	text50
 10800   004730                     __ptext50:
 10801                           	callstack 0
 10802   004730                     _EEPROM_Read:
 10803                           	callstack 29
 10804                           
 10805                           ;incstack = 0
 10806                           ;EEPROM_Read@address stored from wreg
 10807   004730  6E01               	movwf	EEPROM_Read@address^0,c
 10808   004732                     
 10809                           ;EEPROM_Driver.c: 46: char EEPROM_Read(char address);EEPROM_Driver.c: 47: {;EEPROM_Drive
      +                          r.c: 49:     EEADR=address;
 10810   004732  C001  FFA9         	movff	EEPROM_Read@address,4009	;volatile
 10811   004736                     
 10812                           ;EEPROM_Driver.c: 50:     EECON1bits.WREN=0;
 10813   004736  94A6               	bcf	166,2,c	;volsfr
 10814   004738                     
 10815                           ;EEPROM_Driver.c: 51:     EECON1bits.EEPGD=0;
 10816   004738  9EA6               	bcf	166,7,c	;volsfr
 10817   00473A                     
 10818                           ;EEPROM_Driver.c: 52:     EECON1bits.RD=1;
 10819   00473A  80A6               	bsf	166,0,c	;volsfr
 10820   00473C                     
 10821                           ;EEPROM_Driver.c: 53:     return(EEDATA);
 10822   00473C  50A8               	movf	168,w,c	;volatile
 10823   00473E  0012               	return		;funcret
 10824   004740                     __end_of_EEPROM_Read:
 10825                           	callstack 0
 10826                           
 10827 ;; *************** function _Compare *****************
 10828 ;; Defined at:
 10829 ;;		line 76 in file "App_Functions.c"
 10830 ;; Parameters:    Size  Location     Type
 10831 ;;  Num1            2   12[COMRAM] int 
 10832 ;;  Num2            2   14[COMRAM] int 
 10833 ;; Auto vars:     Size  Location     Type
 10834 ;;		None
 10835 ;; Return value:  Size  Location     Type
 10836 ;;                  1    wreg      void 
 10837 ;; Registers used:
 10838 ;;		wreg, fsr2l, fsr2h, status,2, status,0, cstack
 10839 ;; Tracked objects:
 10840 ;;		On entry : 0/0
 10841 ;;		On exit  : 0/0
 10842 ;;		Unchanged: 0/0
 10843 ;; Data sizes:     COMRAM   BANK0   BANK1   BANK2   BANK3   BANK4   BANK5   BANK6   BANK7
 10844 ;;      Params:         4       0       0       0       0       0       0       0       0
 10845 ;;      Locals:         0       0       0       0       0       0       0       0       0
 10846 ;;      Temps:         17       0       0       0       0       0       0       0       0
 10847 ;;      Totals:        21       0       0       0       0       0       0       0       0
 10848 ;;Total ram usage:       21 bytes
 10849 ;; Hardware stack levels used: 1
 10850 ;; Hardware stack levels required when called: 2
 10851 ;; This function calls:
 10852 ;;		_Action
 10853 ;;		___lmul
 10854 ;; This function is called by:
 10855 ;;		_main
 10856 ;; This function uses a non-reentrant model
 10857 ;;
 10858                           
 10859                           	psect	text51
 10860   002BB2                     __ptext51:
 10861                           	callstack 0
 10862   002BB2                     _Compare:
 10863                           	callstack 28
 10864   002BB2                     
 10865                           ;App_Functions.c: 76: void Compare(int Num1, int Num2);App_Functions.c: 77: {;App_Functi
      +                          ons.c: 78:   total=(uint32_t) (RTC->hour)*3600+(uint32_t) (RTC->min)*60+(uint32_t) (RTC-
      +                          >sec);
 10866   002BB2  0100               	movlb	0	; () banked
 10867   002BB4  51B4               	movf	(_rtc+2)& (0+255),w,b
 10868   002BB6  6E01               	movwf	___lmul@multiplier^0,c
 10869   002BB8  6A02               	clrf	(___lmul@multiplier+1)^0,c
 10870   002BBA  6A03               	clrf	(___lmul@multiplier+2)^0,c
 10871   002BBC  6A04               	clrf	(___lmul@multiplier+3)^0,c
 10872   002BBE  0E10               	movlw	16
 10873   002BC0  6E05               	movwf	___lmul@multiplicand^0,c
 10874   002BC2  0E0E               	movlw	14
 10875   002BC4  6E06               	movwf	(___lmul@multiplicand+1)^0,c
 10876   002BC6  0E00               	movlw	0
 10877   002BC8  6E07               	movwf	(___lmul@multiplicand+2)^0,c
 10878   002BCA  0E00               	movlw	0
 10879   002BCC  6E08               	movwf	(___lmul@multiplicand+3)^0,c
 10880   002BCE  ECF1  F020         	call	___lmul	;wreg free
 10881   002BD2  C001  F011         	movff	?___lmul,??_Compare
 10882   002BD6  C002  F012         	movff	?___lmul+1,??_Compare+1
 10883   002BDA  C003  F013         	movff	?___lmul+2,??_Compare+2
 10884   002BDE  C004  F014         	movff	?___lmul+3,??_Compare+3
 10885   002BE2  0100               	movlb	0	; () banked
 10886   002BE4  51B3               	movf	(_rtc+1)& (0+255),w,b
 10887   002BE6  6E01               	movwf	___lmul@multiplier^0,c
 10888   002BE8  6A02               	clrf	(___lmul@multiplier+1)^0,c
 10889   002BEA  6A03               	clrf	(___lmul@multiplier+2)^0,c
 10890   002BEC  6A04               	clrf	(___lmul@multiplier+3)^0,c
 10891   002BEE  0E3C               	movlw	60
 10892   002BF0  6E05               	movwf	___lmul@multiplicand^0,c
 10893   002BF2  0E00               	movlw	0
 10894   002BF4  6E06               	movwf	(___lmul@multiplicand+1)^0,c
 10895   002BF6  0E00               	movlw	0
 10896   002BF8  6E07               	movwf	(___lmul@multiplicand+2)^0,c
 10897   002BFA  0E00               	movlw	0
 10898   002BFC  6E08               	movwf	(___lmul@multiplicand+3)^0,c
 10899   002BFE  ECF1  F020         	call	___lmul	;wreg free
 10900   002C02  5001               	movf	?___lmul^0,w,c
 10901   002C04  2411               	addwf	??_Compare^0,w,c
 10902   002C06  6E15               	movwf	(??_Compare+4)^0,c
 10903   002C08  5002               	movf	(?___lmul+1)^0,w,c
 10904   002C0A  2012               	addwfc	(??_Compare+1)^0,w,c
 10905   002C0C  6E16               	movwf	(??_Compare+5)^0,c
 10906   002C0E  5003               	movf	(?___lmul+2)^0,w,c
 10907   002C10  2013               	addwfc	(??_Compare+2)^0,w,c
 10908   002C12  6E17               	movwf	(??_Compare+6)^0,c
 10909   002C14  5004               	movf	(?___lmul+3)^0,w,c
 10910   002C16  2014               	addwfc	(??_Compare+3)^0,w,c
 10911   002C18  6E18               	movwf	(??_Compare+7)^0,c
 10912   002C1A  0100               	movlb	0	; () banked
 10913   002C1C  51B2               	movf	_rtc& (0+255),w,b
 10914   002C1E  2415               	addwf	(??_Compare+4)^0,w,c
 10915   002C20  6F84               	movwf	_total& (0+255),b
 10916   002C22  0E00               	movlw	0
 10917   002C24  2016               	addwfc	(??_Compare+5)^0,w,c
 10918   002C26  6F85               	movwf	(_total+1)& (0+255),b
 10919   002C28  0E00               	movlw	0
 10920   002C2A  2017               	addwfc	(??_Compare+6)^0,w,c
 10921   002C2C  6F86               	movwf	(_total+2)& (0+255),b
 10922   002C2E  0E00               	movlw	0
 10923   002C30  2018               	addwfc	(??_Compare+7)^0,w,c
 10924   002C32  6F87               	movwf	(_total+3)& (0+255),b
 10925   002C34                     
 10926                           ; BSR set to: 0
 10927                           ;App_Functions.c: 79:   total1[Num1]=(uint32_t) hour2[Num1]*3600+(uint32_t) min2[Num1]*6
      +                          0+(uint32_t) sec2[Num1];
 10928   002C34  0EB9               	movlw	low _hour2
 10929   002C36  240D               	addwf	Compare@Num1^0,w,c
 10930   002C38  6ED9               	movwf	fsr2l,c
 10931   002C3A  0E00               	movlw	high _hour2
 10932   002C3C  200E               	addwfc	(Compare@Num1+1)^0,w,c
 10933   002C3E  6EDA               	movwf	fsr2h,c
 10934   002C40  50DF               	movf	indf2,w,c
 10935   002C42  6E11               	movwf	??_Compare^0,c
 10936   002C44  5011               	movf	??_Compare^0,w,c
 10937   002C46  6E01               	movwf	___lmul@multiplier^0,c
 10938   002C48  6A02               	clrf	(___lmul@multiplier+1)^0,c
 10939   002C4A  6A03               	clrf	(___lmul@multiplier+2)^0,c
 10940   002C4C  6A04               	clrf	(___lmul@multiplier+3)^0,c
 10941   002C4E  0E10               	movlw	16
 10942   002C50  6E05               	movwf	___lmul@multiplicand^0,c
 10943   002C52  0E0E               	movlw	14
 10944   002C54  6E06               	movwf	(___lmul@multiplicand+1)^0,c
 10945   002C56  0E00               	movlw	0
 10946   002C58  6E07               	movwf	(___lmul@multiplicand+2)^0,c
 10947   002C5A  0E00               	movlw	0
 10948   002C5C  6E08               	movwf	(___lmul@multiplicand+3)^0,c
 10949   002C5E  ECF1  F020         	call	___lmul	;wreg free
 10950   002C62  C001  F012         	movff	?___lmul,??_Compare+1
 10951   002C66  C002  F013         	movff	?___lmul+1,??_Compare+2
 10952   002C6A  C003  F014         	movff	?___lmul+2,??_Compare+3
 10953   002C6E  C004  F015         	movff	?___lmul+3,??_Compare+4
 10954   002C72  0E8C               	movlw	low _min2
 10955   002C74  240D               	addwf	Compare@Num1^0,w,c
 10956   002C76  6ED9               	movwf	fsr2l,c
 10957   002C78  0E00               	movlw	high _min2
 10958   002C7A  200E               	addwfc	(Compare@Num1+1)^0,w,c
 10959   002C7C  6EDA               	movwf	fsr2h,c
 10960   002C7E  50DF               	movf	indf2,w,c
 10961   002C80  6E16               	movwf	(??_Compare+5)^0,c
 10962   002C82  5016               	movf	(??_Compare+5)^0,w,c
 10963   002C84  6E01               	movwf	___lmul@multiplier^0,c
 10964   002C86  6A02               	clrf	(___lmul@multiplier+1)^0,c
 10965   002C88  6A03               	clrf	(___lmul@multiplier+2)^0,c
 10966   002C8A  6A04               	clrf	(___lmul@multiplier+3)^0,c
 10967   002C8C  0E3C               	movlw	60
 10968   002C8E  6E05               	movwf	___lmul@multiplicand^0,c
 10969   002C90  0E00               	movlw	0
 10970   002C92  6E06               	movwf	(___lmul@multiplicand+1)^0,c
 10971   002C94  0E00               	movlw	0
 10972   002C96  6E07               	movwf	(___lmul@multiplicand+2)^0,c
 10973   002C98  0E00               	movlw	0
 10974   002C9A  6E08               	movwf	(___lmul@multiplicand+3)^0,c
 10975   002C9C  ECF1  F020         	call	___lmul	;wreg free
 10976   002CA0  5001               	movf	?___lmul^0,w,c
 10977   002CA2  2412               	addwf	(??_Compare+1)^0,w,c
 10978   002CA4  6E17               	movwf	(??_Compare+6)^0,c
 10979   002CA6  5002               	movf	(?___lmul+1)^0,w,c
 10980   002CA8  2013               	addwfc	(??_Compare+2)^0,w,c
 10981   002CAA  6E18               	movwf	(??_Compare+7)^0,c
 10982   002CAC  5003               	movf	(?___lmul+2)^0,w,c
 10983   002CAE  2014               	addwfc	(??_Compare+3)^0,w,c
 10984   002CB0  6E19               	movwf	(??_Compare+8)^0,c
 10985   002CB2  5004               	movf	(?___lmul+3)^0,w,c
 10986   002CB4  2015               	addwfc	(??_Compare+4)^0,w,c
 10987   002CB6  6E1A               	movwf	(??_Compare+9)^0,c
 10988   002CB8  0E88               	movlw	low _sec2
 10989   002CBA  240D               	addwf	Compare@Num1^0,w,c
 10990   002CBC  6ED9               	movwf	fsr2l,c
 10991   002CBE  0E00               	movlw	high _sec2
 10992   002CC0  200E               	addwfc	(Compare@Num1+1)^0,w,c
 10993   002CC2  6EDA               	movwf	fsr2h,c
 10994   002CC4  50DF               	movf	indf2,w,c
 10995   002CC6  6E1B               	movwf	(??_Compare+10)^0,c
 10996   002CC8  501B               	movf	(??_Compare+10)^0,w,c
 10997   002CCA  2417               	addwf	(??_Compare+6)^0,w,c
 10998   002CCC  6E1C               	movwf	(??_Compare+11)^0,c
 10999   002CCE  0E00               	movlw	0
 11000   002CD0  2018               	addwfc	(??_Compare+7)^0,w,c
 11001   002CD2  6E1D               	movwf	(??_Compare+12)^0,c
 11002   002CD4  0E00               	movlw	0
 11003   002CD6  2019               	addwfc	(??_Compare+8)^0,w,c
 11004   002CD8  6E1E               	movwf	(??_Compare+13)^0,c
 11005   002CDA  0E00               	movlw	0
 11006   002CDC  201A               	addwfc	(??_Compare+9)^0,w,c
 11007   002CDE  6E1F               	movwf	(??_Compare+14)^0,c
 11008   002CE0  0E70               	movlw	low _total1
 11009   002CE2  6E20               	movwf	(??_Compare+15)^0,c
 11010   002CE4  0E00               	movlw	high _total1
 11011   002CE6  6E21               	movwf	(??_Compare+16)^0,c
 11012   002CE8  90D8               	bcf	status,0,c
 11013   002CEA  340D               	rlcf	Compare@Num1^0,w,c
 11014   002CEC  6ED9               	movwf	fsr2l,c
 11015   002CEE  340E               	rlcf	(Compare@Num1+1)^0,w,c
 11016   002CF0  6EDA               	movwf	fsr2h,c
 11017   002CF2  90D8               	bcf	status,0,c
 11018   002CF4  36D9               	rlcf	fsr2l,f,c
 11019   002CF6  36DA               	rlcf	fsr2h,f,c
 11020   002CF8  5020               	movf	(??_Compare+15)^0,w,c
 11021   002CFA  26D9               	addwf	fsr2l,f,c
 11022   002CFC  5021               	movf	(??_Compare+16)^0,w,c
 11023   002CFE  22DA               	addwfc	fsr2h,f,c
 11024   002D00  C01C  FFDE         	movff	??_Compare+11,postinc2
 11025   002D04  C01D  FFDE         	movff	??_Compare+12,postinc2
 11026   002D08  C01E  FFDE         	movff	??_Compare+13,postinc2
 11027   002D0C  C01F  FFDE         	movff	??_Compare+14,postinc2
 11028   002D10                     
 11029                           ;App_Functions.c: 80:   total2[Num1]=(uint32_t) 3600*hour2[Num2]+(uint32_t) min2[Num2]*6
      +                          0 +(uint32_t) sec2[Num2];
 11030   002D10  0EB9               	movlw	low _hour2
 11031   002D12  240F               	addwf	Compare@Num2^0,w,c
 11032   002D14  6ED9               	movwf	fsr2l,c
 11033   002D16  0E00               	movlw	high _hour2
 11034   002D18  2010               	addwfc	(Compare@Num2+1)^0,w,c
 11035   002D1A  6EDA               	movwf	fsr2h,c
 11036   002D1C  50DF               	movf	indf2,w,c
 11037   002D1E  6E11               	movwf	??_Compare^0,c
 11038   002D20  5011               	movf	??_Compare^0,w,c
 11039   002D22  6E01               	movwf	___lmul@multiplier^0,c
 11040   002D24  6A02               	clrf	(___lmul@multiplier+1)^0,c
 11041   002D26  6A03               	clrf	(___lmul@multiplier+2)^0,c
 11042   002D28  6A04               	clrf	(___lmul@multiplier+3)^0,c
 11043   002D2A  0E10               	movlw	16
 11044   002D2C  6E05               	movwf	___lmul@multiplicand^0,c
 11045   002D2E  0E0E               	movlw	14
 11046   002D30  6E06               	movwf	(___lmul@multiplicand+1)^0,c
 11047   002D32  0E00               	movlw	0
 11048   002D34  6E07               	movwf	(___lmul@multiplicand+2)^0,c
 11049   002D36  0E00               	movlw	0
 11050   002D38  6E08               	movwf	(___lmul@multiplicand+3)^0,c
 11051   002D3A  ECF1  F020         	call	___lmul	;wreg free
 11052   002D3E  C001  F012         	movff	?___lmul,??_Compare+1
 11053   002D42  C002  F013         	movff	?___lmul+1,??_Compare+2
 11054   002D46  C003  F014         	movff	?___lmul+2,??_Compare+3
 11055   002D4A  C004  F015         	movff	?___lmul+3,??_Compare+4
 11056   002D4E  0E8C               	movlw	low _min2
 11057   002D50  240F               	addwf	Compare@Num2^0,w,c
 11058   002D52  6ED9               	movwf	fsr2l,c
 11059   002D54  0E00               	movlw	high _min2
 11060   002D56  2010               	addwfc	(Compare@Num2+1)^0,w,c
 11061   002D58  6EDA               	movwf	fsr2h,c
 11062   002D5A  50DF               	movf	indf2,w,c
 11063   002D5C  6E16               	movwf	(??_Compare+5)^0,c
 11064   002D5E  5016               	movf	(??_Compare+5)^0,w,c
 11065   002D60  6E01               	movwf	___lmul@multiplier^0,c
 11066   002D62  6A02               	clrf	(___lmul@multiplier+1)^0,c
 11067   002D64  6A03               	clrf	(___lmul@multiplier+2)^0,c
 11068   002D66  6A04               	clrf	(___lmul@multiplier+3)^0,c
 11069   002D68  0E3C               	movlw	60
 11070   002D6A  6E05               	movwf	___lmul@multiplicand^0,c
 11071   002D6C  0E00               	movlw	0
 11072   002D6E  6E06               	movwf	(___lmul@multiplicand+1)^0,c
 11073   002D70  0E00               	movlw	0
 11074   002D72  6E07               	movwf	(___lmul@multiplicand+2)^0,c
 11075   002D74  0E00               	movlw	0
 11076   002D76  6E08               	movwf	(___lmul@multiplicand+3)^0,c
 11077   002D78  ECF1  F020         	call	___lmul	;wreg free
 11078   002D7C  5001               	movf	?___lmul^0,w,c
 11079   002D7E  2412               	addwf	(??_Compare+1)^0,w,c
 11080   002D80  6E17               	movwf	(??_Compare+6)^0,c
 11081   002D82  5002               	movf	(?___lmul+1)^0,w,c
 11082   002D84  2013               	addwfc	(??_Compare+2)^0,w,c
 11083   002D86  6E18               	movwf	(??_Compare+7)^0,c
 11084   002D88  5003               	movf	(?___lmul+2)^0,w,c
 11085   002D8A  2014               	addwfc	(??_Compare+3)^0,w,c
 11086   002D8C  6E19               	movwf	(??_Compare+8)^0,c
 11087   002D8E  5004               	movf	(?___lmul+3)^0,w,c
 11088   002D90  2015               	addwfc	(??_Compare+4)^0,w,c
 11089   002D92  6E1A               	movwf	(??_Compare+9)^0,c
 11090   002D94  0E88               	movlw	low _sec2
 11091   002D96  240F               	addwf	Compare@Num2^0,w,c
 11092   002D98  6ED9               	movwf	fsr2l,c
 11093   002D9A  0E00               	movlw	high _sec2
 11094   002D9C  2010               	addwfc	(Compare@Num2+1)^0,w,c
 11095   002D9E  6EDA               	movwf	fsr2h,c
 11096   002DA0  50DF               	movf	indf2,w,c
 11097   002DA2  6E1B               	movwf	(??_Compare+10)^0,c
 11098   002DA4  501B               	movf	(??_Compare+10)^0,w,c
 11099   002DA6  2417               	addwf	(??_Compare+6)^0,w,c
 11100   002DA8  6E1C               	movwf	(??_Compare+11)^0,c
 11101   002DAA  0E00               	movlw	0
 11102   002DAC  2018               	addwfc	(??_Compare+7)^0,w,c
 11103   002DAE  6E1D               	movwf	(??_Compare+12)^0,c
 11104   002DB0  0E00               	movlw	0
 11105   002DB2  2019               	addwfc	(??_Compare+8)^0,w,c
 11106   002DB4  6E1E               	movwf	(??_Compare+13)^0,c
 11107   002DB6  0E00               	movlw	0
 11108   002DB8  201A               	addwfc	(??_Compare+9)^0,w,c
 11109   002DBA  6E1F               	movwf	(??_Compare+14)^0,c
 11110   002DBC  0E60               	movlw	low _total2
 11111   002DBE  6E20               	movwf	(??_Compare+15)^0,c
 11112   002DC0  0E00               	movlw	high _total2
 11113   002DC2  6E21               	movwf	(??_Compare+16)^0,c
 11114   002DC4  90D8               	bcf	status,0,c
 11115   002DC6  340D               	rlcf	Compare@Num1^0,w,c
 11116   002DC8  6ED9               	movwf	fsr2l,c
 11117   002DCA  340E               	rlcf	(Compare@Num1+1)^0,w,c
 11118   002DCC  6EDA               	movwf	fsr2h,c
 11119   002DCE  90D8               	bcf	status,0,c
 11120   002DD0  36D9               	rlcf	fsr2l,f,c
 11121   002DD2  36DA               	rlcf	fsr2h,f,c
 11122   002DD4  5020               	movf	(??_Compare+15)^0,w,c
 11123   002DD6  26D9               	addwf	fsr2l,f,c
 11124   002DD8  5021               	movf	(??_Compare+16)^0,w,c
 11125   002DDA  22DA               	addwfc	fsr2h,f,c
 11126   002DDC  C01C  FFDE         	movff	??_Compare+11,postinc2
 11127   002DE0  C01D  FFDE         	movff	??_Compare+12,postinc2
 11128   002DE4  C01E  FFDE         	movff	??_Compare+13,postinc2
 11129   002DE8  C01F  FFDE         	movff	??_Compare+14,postinc2
 11130                           
 11131                           ;App_Functions.c: 82:   Action();
 11132   002DEC  ECCB  F01D         	call	_Action	;wreg free
 11133   002DF0  0012               	return		;funcret
 11134   002DF2                     __end_of_Compare:
 11135                           	callstack 0
 11136                           
 11137 ;; *************** function ___lmul *****************
 11138 ;; Defined at:
 11139 ;;		line 15 in file "C:\Program Files\Microchip\xc8\v2.40\pic\sources\c99\common\Umul32.c"
 11140 ;; Parameters:    Size  Location     Type
 11141 ;;  multiplier      4    0[COMRAM] unsigned long 
 11142 ;;  multiplicand    4    4[COMRAM] unsigned long 
 11143 ;; Auto vars:     Size  Location     Type
 11144 ;;  product         4    8[COMRAM] unsigned long 
 11145 ;; Return value:  Size  Location     Type
 11146 ;;                  4    0[COMRAM] unsigned long 
 11147 ;; Registers used:
 11148 ;;		wreg, status,2, status,0
 11149 ;; Tracked objects:
 11150 ;;		On entry : 0/0
 11151 ;;		On exit  : 0/0
 11152 ;;		Unchanged: 0/0
 11153 ;; Data sizes:     COMRAM   BANK0   BANK1   BANK2   BANK3   BANK4   BANK5   BANK6   BANK7
 11154 ;;      Params:         8       0       0       0       0       0       0       0       0
 11155 ;;      Locals:         4       0       0       0       0       0       0       0       0
 11156 ;;      Temps:          0       0       0       0       0       0       0       0       0
 11157 ;;      Totals:        12       0       0       0       0       0       0       0       0
 11158 ;;Total ram usage:       12 bytes
 11159 ;; Hardware stack levels used: 1
 11160 ;; Hardware stack levels required when called: 1
 11161 ;; This function calls:
 11162 ;;		Nothing
 11163 ;; This function is called by:
 11164 ;;		_Compare
 11165 ;; This function uses a non-reentrant model
 11166 ;;
 11167                           
 11168                           	psect	text52
 11169   0041E2                     __ptext52:
 11170                           	callstack 0
 11171   0041E2                     ___lmul:
 11172                           	callstack 28
 11173   0041E2  0E00               	movlw	0
 11174   0041E4  6E09               	movwf	___lmul@product^0,c
 11175   0041E6  0E00               	movlw	0
 11176   0041E8  6E0A               	movwf	(___lmul@product+1)^0,c
 11177   0041EA  0E00               	movlw	0
 11178   0041EC  6E0B               	movwf	(___lmul@product+2)^0,c
 11179   0041EE  0E00               	movlw	0
 11180   0041F0  6E0C               	movwf	(___lmul@product+3)^0,c
 11181   0041F2                     l4004:
 11182   0041F2  A001               	btfss	___lmul@multiplier^0,0,c
 11183   0041F4  EFFE  F020         	goto	u3571
 11184   0041F8  EF00  F021         	goto	u3570
 11185   0041FC                     u3571:
 11186   0041FC  EF08  F021         	goto	l4008
 11187   004200                     u3570:
 11188   004200  5005               	movf	___lmul@multiplicand^0,w,c
 11189   004202  2609               	addwf	___lmul@product^0,f,c
 11190   004204  5006               	movf	(___lmul@multiplicand+1)^0,w,c
 11191   004206  220A               	addwfc	(___lmul@product+1)^0,f,c
 11192   004208  5007               	movf	(___lmul@multiplicand+2)^0,w,c
 11193   00420A  220B               	addwfc	(___lmul@product+2)^0,f,c
 11194   00420C  5008               	movf	(___lmul@multiplicand+3)^0,w,c
 11195   00420E  220C               	addwfc	(___lmul@product+3)^0,f,c
 11196   004210                     l4008:
 11197   004210  90D8               	bcf	status,0,c
 11198   004212  3605               	rlcf	___lmul@multiplicand^0,f,c
 11199   004214  3606               	rlcf	(___lmul@multiplicand+1)^0,f,c
 11200   004216  3607               	rlcf	(___lmul@multiplicand+2)^0,f,c
 11201   004218  3608               	rlcf	(___lmul@multiplicand+3)^0,f,c
 11202   00421A  90D8               	bcf	status,0,c
 11203   00421C  3204               	rrcf	(___lmul@multiplier+3)^0,f,c
 11204   00421E  3203               	rrcf	(___lmul@multiplier+2)^0,f,c
 11205   004220  3202               	rrcf	(___lmul@multiplier+1)^0,f,c
 11206   004222  3201               	rrcf	___lmul@multiplier^0,f,c
 11207   004224  5001               	movf	___lmul@multiplier^0,w,c
 11208   004226  1002               	iorwf	(___lmul@multiplier+1)^0,w,c
 11209   004228  1003               	iorwf	(___lmul@multiplier+2)^0,w,c
 11210   00422A  1004               	iorwf	(___lmul@multiplier+3)^0,w,c
 11211   00422C  A4D8               	btfss	status,2,c
 11212   00422E  EF1B  F021         	goto	u3581
 11213   004232  EF1D  F021         	goto	u3580
 11214   004236                     u3581:
 11215   004236  EFF9  F020         	goto	l4004
 11216   00423A                     u3580:
 11217   00423A  C009  F001         	movff	___lmul@product,?___lmul
 11218   00423E  C00A  F002         	movff	___lmul@product+1,?___lmul+1
 11219   004242  C00B  F003         	movff	___lmul@product+2,?___lmul+2
 11220   004246  C00C  F004         	movff	___lmul@product+3,?___lmul+3
 11221   00424A  0012               	return		;funcret
 11222   00424C                     __end_of___lmul:
 11223                           	callstack 0
 11224                           
 11225 ;; *************** function _Action *****************
 11226 ;; Defined at:
 11227 ;;		line 86 in file "App_Functions.c"
 11228 ;; Parameters:    Size  Location     Type
 11229 ;;		None
 11230 ;; Auto vars:     Size  Location     Type
 11231 ;;		None
 11232 ;; Return value:  Size  Location     Type
 11233 ;;                  1    wreg      void 
 11234 ;; Registers used:
 11235 ;;		wreg, status,2, status,0
 11236 ;; Tracked objects:
 11237 ;;		On entry : 0/0
 11238 ;;		On exit  : 0/0
 11239 ;;		Unchanged: 0/0
 11240 ;; Data sizes:     COMRAM   BANK0   BANK1   BANK2   BANK3   BANK4   BANK5   BANK6   BANK7
 11241 ;;      Params:         0       0       0       0       0       0       0       0       0
 11242 ;;      Locals:         0       0       0       0       0       0       0       0       0
 11243 ;;      Temps:          0       0       0       0       0       0       0       0       0
 11244 ;;      Totals:         0       0       0       0       0       0       0       0       0
 11245 ;;Total ram usage:        0 bytes
 11246 ;; Hardware stack levels used: 1
 11247 ;; Hardware stack levels required when called: 1
 11248 ;; This function calls:
 11249 ;;		Nothing
 11250 ;; This function is called by:
 11251 ;;		_Compare
 11252 ;; This function uses a non-reentrant model
 11253 ;;
 11254                           
 11255                           	psect	text53
 11256   003B96                     __ptext53:
 11257                           	callstack 0
 11258   003B96                     _Action:
 11259                           	callstack 28
 11260   003B96                     
 11261                           ;App_Functions.c: 90:   if(total>=total1[0])
 11262   003B96  0100               	movlb	0	; () banked
 11263   003B98  5170               	movf	_total1& (0+255),w,b
 11264   003B9A  5D84               	subwf	_total& (0+255),w,b
 11265   003B9C  5171               	movf	(_total1+1)& (0+255),w,b
 11266   003B9E  5985               	subwfb	(_total+1)& (0+255),w,b
 11267   003BA0  5172               	movf	(_total1+2)& (0+255),w,b
 11268   003BA2  5986               	subwfb	(_total+2)& (0+255),w,b
 11269   003BA4  5173               	movf	(_total1+3)& (0+255),w,b
 11270   003BA6  5987               	subwfb	(_total+3)& (0+255),w,b
 11271   003BA8  A0D8               	btfss	status,0,c
 11272   003BAA  EFD9  F01D         	goto	u3491
 11273   003BAE  EFDB  F01D         	goto	u3490
 11274   003BB2                     u3491:
 11275   003BB2  EFDF  F01D         	goto	l3974
 11276   003BB6                     u3490:
 11277   003BB6                     
 11278                           ; BSR set to: 0
 11279                           ;App_Functions.c: 91:   {;App_Functions.c: 92:     mask[0]=1;
 11280   003BB6  0E00               	movlw	0
 11281   003BB8  6F81               	movwf	(_mask+1)& (0+255),b
 11282   003BBA  0E01               	movlw	1
 11283   003BBC  6F80               	movwf	_mask& (0+255),b
 11284   003BBE                     l3974:
 11285                           
 11286                           ; BSR set to: 0
 11287                           ;App_Functions.c: 95:   if(total2[0]>total&&mask[0]==1)
 11288   003BBE  5160               	movf	_total2& (0+255),w,b
 11289   003BC0  5D84               	subwf	_total& (0+255),w,b
 11290   003BC2  5161               	movf	(_total2+1)& (0+255),w,b
 11291   003BC4  5985               	subwfb	(_total+1)& (0+255),w,b
 11292   003BC6  5162               	movf	(_total2+2)& (0+255),w,b
 11293   003BC8  5986               	subwfb	(_total+2)& (0+255),w,b
 11294   003BCA  5163               	movf	(_total2+3)& (0+255),w,b
 11295   003BCC  5987               	subwfb	(_total+3)& (0+255),w,b
 11296   003BCE  B0D8               	btfsc	status,0,c
 11297   003BD0  EFEC  F01D         	goto	u3501
 11298   003BD4  EFEE  F01D         	goto	u3500
 11299   003BD8                     u3501:
 11300   003BD8  EFFA  F01D         	goto	l3980
 11301   003BDC                     u3500:
 11302   003BDC                     
 11303                           ; BSR set to: 0
 11304   003BDC  0580               	decf	_mask& (0+255),w,b
 11305   003BDE  1181               	iorwf	(_mask+1)& (0+255),w,b
 11306   003BE0  A4D8               	btfss	status,2,c
 11307   003BE2  EFF5  F01D         	goto	u3511
 11308   003BE6  EFF7  F01D         	goto	u3510
 11309   003BEA                     u3511:
 11310   003BEA  EFFA  F01D         	goto	l3980
 11311   003BEE                     u3510:
 11312   003BEE                     
 11313                           ; BSR set to: 0
 11314                           ;App_Functions.c: 96:   {;App_Functions.c: 98:     (PORTB |= (1<<6));
 11315   003BEE  8C81               	bsf	129,6,c	;volatile
 11316                           
 11317                           ;App_Functions.c: 99:   }
 11318   003BF0  EF07  F01E         	goto	l3986
 11319   003BF4                     l3980:
 11320                           
 11321                           ; BSR set to: 0
 11322                           ;App_Functions.c: 101:   {;App_Functions.c: 102:      if(!flag)
 11323   003BF4  519D               	movf	_flag& (0+255),w,b
 11324   003BF6  A4D8               	btfss	status,2,c
 11325   003BF8  EF00  F01E         	goto	u3521
 11326   003BFC  EF02  F01E         	goto	u3520
 11327   003C00                     u3521:
 11328   003C00  EF07  F01E         	goto	l3986
 11329   003C04                     u3520:
 11330   003C04                     
 11331                           ; BSR set to: 0
 11332                           ;App_Functions.c: 103:      {;App_Functions.c: 104:          (PORTB &=~(1<<6));
 11333   003C04  9C81               	bcf	129,6,c	;volatile
 11334   003C06                     
 11335                           ; BSR set to: 0
 11336                           ;App_Functions.c: 105:          mask[0]=0;
 11337   003C06  0E00               	movlw	0
 11338   003C08  6F81               	movwf	(_mask+1)& (0+255),b
 11339   003C0A  0E00               	movlw	0
 11340   003C0C  6F80               	movwf	_mask& (0+255),b
 11341   003C0E                     l3986:
 11342                           
 11343                           ; BSR set to: 0
 11344                           ;App_Functions.c: 111:   if(total>=total1[2])
 11345   003C0E  5178               	movf	(_total1+8)& (0+255),w,b
 11346   003C10  5D84               	subwf	_total& (0+255),w,b
 11347   003C12  5179               	movf	(_total1+9)& (0+255),w,b
 11348   003C14  5985               	subwfb	(_total+1)& (0+255),w,b
 11349   003C16  517A               	movf	(_total1+10)& (0+255),w,b
 11350   003C18  5986               	subwfb	(_total+2)& (0+255),w,b
 11351   003C1A  517B               	movf	(_total1+11)& (0+255),w,b
 11352   003C1C  5987               	subwfb	(_total+3)& (0+255),w,b
 11353   003C1E  A0D8               	btfss	status,0,c
 11354   003C20  EF14  F01E         	goto	u3531
 11355   003C24  EF16  F01E         	goto	u3530
 11356   003C28                     u3531:
 11357   003C28  EF1A  F01E         	goto	l3990
 11358   003C2C                     u3530:
 11359   003C2C                     
 11360                           ; BSR set to: 0
 11361                           ;App_Functions.c: 112:   {;App_Functions.c: 113:     mask[1]=1;
 11362   003C2C  0E00               	movlw	0
 11363   003C2E  6F83               	movwf	(_mask+3)& (0+255),b
 11364   003C30  0E01               	movlw	1
 11365   003C32  6F82               	movwf	(_mask+2)& (0+255),b
 11366   003C34                     l3990:
 11367                           
 11368                           ; BSR set to: 0
 11369                           ;App_Functions.c: 116:   if(total2[2]>total&&mask[1]==1)
 11370   003C34  5168               	movf	(_total2+8)& (0+255),w,b
 11371   003C36  5D84               	subwf	_total& (0+255),w,b
 11372   003C38  5169               	movf	(_total2+9)& (0+255),w,b
 11373   003C3A  5985               	subwfb	(_total+1)& (0+255),w,b
 11374   003C3C  516A               	movf	(_total2+10)& (0+255),w,b
 11375   003C3E  5986               	subwfb	(_total+2)& (0+255),w,b
 11376   003C40  516B               	movf	(_total2+11)& (0+255),w,b
 11377   003C42  5987               	subwfb	(_total+3)& (0+255),w,b
 11378   003C44  B0D8               	btfsc	status,0,c
 11379   003C46  EF27  F01E         	goto	u3541
 11380   003C4A  EF29  F01E         	goto	u3540
 11381   003C4E                     u3541:
 11382   003C4E  EF35  F01E         	goto	l3996
 11383   003C52                     u3540:
 11384   003C52                     
 11385                           ; BSR set to: 0
 11386   003C52  0582               	decf	(_mask+2)& (0+255),w,b
 11387   003C54  1183               	iorwf	(_mask+3)& (0+255),w,b
 11388   003C56  A4D8               	btfss	status,2,c
 11389   003C58  EF30  F01E         	goto	u3551
 11390   003C5C  EF32  F01E         	goto	u3550
 11391   003C60                     u3551:
 11392   003C60  EF35  F01E         	goto	l3996
 11393   003C64                     u3550:
 11394   003C64                     
 11395                           ; BSR set to: 0
 11396                           ;App_Functions.c: 117:   {;App_Functions.c: 119:     (PORTB |= (1<<7));
 11397   003C64  8E81               	bsf	129,7,c	;volatile
 11398                           
 11399                           ;App_Functions.c: 120:   }else
 11400   003C66  EF42  F01E         	goto	l577
 11401   003C6A                     l3996:
 11402                           
 11403                           ; BSR set to: 0
 11404                           ;App_Functions.c: 121:   {;App_Functions.c: 122:       if(!flag)
 11405   003C6A  519D               	movf	_flag& (0+255),w,b
 11406   003C6C  A4D8               	btfss	status,2,c
 11407   003C6E  EF3B  F01E         	goto	u3561
 11408   003C72  EF3D  F01E         	goto	u3560
 11409   003C76                     u3561:
 11410   003C76  EF42  F01E         	goto	l577
 11411   003C7A                     u3560:
 11412   003C7A                     
 11413                           ; BSR set to: 0
 11414                           ;App_Functions.c: 123:       {;App_Functions.c: 124:          (PORTB &=~(1<<7));
 11415   003C7A  9E81               	bcf	129,7,c	;volatile
 11416   003C7C                     
 11417                           ; BSR set to: 0
 11418                           ;App_Functions.c: 125:          mask[1]=0;
 11419   003C7C  0E00               	movlw	0
 11420   003C7E  6F83               	movwf	(_mask+3)& (0+255),b
 11421   003C80  0E00               	movlw	0
 11422   003C82  6F82               	movwf	(_mask+2)& (0+255),b
 11423   003C84                     l577:
 11424                           
 11425                           ; BSR set to: 0
 11426   003C84  0012               	return		;funcret
 11427   003C86                     __end_of_Action:
 11428                           	callstack 0
 11429                           
 11430 ;; *************** function _Check *****************
 11431 ;; Defined at:
 11432 ;;		line 68 in file "App_Functions.c"
 11433 ;; Parameters:    Size  Location     Type
 11434 ;;  Num             2    0[COMRAM] int 
 11435 ;; Auto vars:     Size  Location     Type
 11436 ;;		None
 11437 ;; Return value:  Size  Location     Type
 11438 ;;                  1    wreg      void 
 11439 ;; Registers used:
 11440 ;;		wreg, fsr1l, fsr1h, fsr2l, fsr2h, status,2, status,0, prodl, prodh
 11441 ;; Tracked objects:
 11442 ;;		On entry : 0/0
 11443 ;;		On exit  : 0/0
 11444 ;;		Unchanged: 0/0
 11445 ;; Data sizes:     COMRAM   BANK0   BANK1   BANK2   BANK3   BANK4   BANK5   BANK6   BANK7
 11446 ;;      Params:         2       0       0       0       0       0       0       0       0
 11447 ;;      Locals:         0       0       0       0       0       0       0       0       0
 11448 ;;      Temps:          5       0       0       0       0       0       0       0       0
 11449 ;;      Totals:         7       0       0       0       0       0       0       0       0
 11450 ;;Total ram usage:        7 bytes
 11451 ;; Hardware stack levels used: 1
 11452 ;; Hardware stack levels required when called: 1
 11453 ;; This function calls:
 11454 ;;		Nothing
 11455 ;; This function is called by:
 11456 ;;		_main
 11457 ;; This function uses a non-reentrant model
 11458 ;;
 11459                           
 11460                           	psect	text54
 11461   00364A                     __ptext54:
 11462                           	callstack 0
 11463   00364A                     _Check:
 11464                           	callstack 29
 11465   00364A                     
 11466                           ;App_Functions.c: 68: void Check(int Num);App_Functions.c: 69: {;App_Functions.c: 70:   
      +                          hour2[Num] = ( 10 * (time1[Num][0] - '0' ) ) + time1[Num][1] - '0';
 11467   00364A  0EB9               	movlw	low _hour2
 11468   00364C  2401               	addwf	Check@Num^0,w,c
 11469   00364E  6ED9               	movwf	fsr2l,c
 11470   003650  0E00               	movlw	high _hour2
 11471   003652  2002               	addwfc	(Check@Num+1)^0,w,c
 11472   003654  6EDA               	movwf	fsr2h,c
 11473   003656  C001  F003         	movff	Check@Num,??_Check
 11474   00365A  C002  F004         	movff	Check@Num+1,??_Check+1
 11475   00365E  90D8               	bcf	status,0,c
 11476   003660  3603               	rlcf	??_Check^0,f,c
 11477   003662  3604               	rlcf	(??_Check+1)^0,f,c
 11478   003664  90D8               	bcf	status,0,c
 11479   003666  3603               	rlcf	??_Check^0,f,c
 11480   003668  3604               	rlcf	(??_Check+1)^0,f,c
 11481   00366A  90D8               	bcf	status,0,c
 11482   00366C  3603               	rlcf	??_Check^0,f,c
 11483   00366E  3604               	rlcf	(??_Check+1)^0,f,c
 11484   003670  0EC0               	movlw	low (_time1+1)
 11485   003672  2403               	addwf	??_Check^0,w,c
 11486   003674  6EE1               	movwf	fsr1l,c
 11487   003676  0E00               	movlw	high (_time1+1)
 11488   003678  2004               	addwfc	(??_Check+1)^0,w,c
 11489   00367A  6EE2               	movwf	fsr1h,c
 11490   00367C  50E7               	movf	indf1,w,c
 11491   00367E  6E05               	movwf	(??_Check+2)^0,c
 11492   003680  C001  F006         	movff	Check@Num,??_Check+3
 11493   003684  C002  F007         	movff	Check@Num+1,??_Check+4
 11494   003688  90D8               	bcf	status,0,c
 11495   00368A  3606               	rlcf	(??_Check+3)^0,f,c
 11496   00368C  3607               	rlcf	(??_Check+4)^0,f,c
 11497   00368E  90D8               	bcf	status,0,c
 11498   003690  3606               	rlcf	(??_Check+3)^0,f,c
 11499   003692  3607               	rlcf	(??_Check+4)^0,f,c
 11500   003694  90D8               	bcf	status,0,c
 11501   003696  3606               	rlcf	(??_Check+3)^0,f,c
 11502   003698  3607               	rlcf	(??_Check+4)^0,f,c
 11503   00369A  0EBF               	movlw	low _time1
 11504   00369C  2406               	addwf	(??_Check+3)^0,w,c
 11505   00369E  6EE1               	movwf	fsr1l,c
 11506   0036A0  0E00               	movlw	high _time1
 11507   0036A2  2007               	addwfc	(??_Check+4)^0,w,c
 11508   0036A4  6EE2               	movwf	fsr1h,c
 11509   0036A6  50E7               	movf	indf1,w,c
 11510   0036A8  0D0A               	mullw	10
 11511   0036AA  50F3               	movf	243,w,c
 11512   0036AC  2405               	addwf	(??_Check+2)^0,w,c
 11513   0036AE  0FF0               	addlw	240
 11514   0036B0  6EDF               	movwf	indf2,c
 11515                           
 11516                           ;App_Functions.c: 71:   min2[Num] = ( 10 * (time1[Num][3] - '0' ) ) + time1[Num][4] - '0
      +                          ';
 11517   0036B2  0E8C               	movlw	low _min2
 11518   0036B4  2401               	addwf	Check@Num^0,w,c
 11519   0036B6  6ED9               	movwf	fsr2l,c
 11520   0036B8  0E00               	movlw	high _min2
 11521   0036BA  2002               	addwfc	(Check@Num+1)^0,w,c
 11522   0036BC  6EDA               	movwf	fsr2h,c
 11523   0036BE  C001  F003         	movff	Check@Num,??_Check
 11524   0036C2  C002  F004         	movff	Check@Num+1,??_Check+1
 11525   0036C6  90D8               	bcf	status,0,c
 11526   0036C8  3603               	rlcf	??_Check^0,f,c
 11527   0036CA  3604               	rlcf	(??_Check+1)^0,f,c
 11528   0036CC  90D8               	bcf	status,0,c
 11529   0036CE  3603               	rlcf	??_Check^0,f,c
 11530   0036D0  3604               	rlcf	(??_Check+1)^0,f,c
 11531   0036D2  90D8               	bcf	status,0,c
 11532   0036D4  3603               	rlcf	??_Check^0,f,c
 11533   0036D6  3604               	rlcf	(??_Check+1)^0,f,c
 11534   0036D8  0EC3               	movlw	low (_time1+4)
 11535   0036DA  2403               	addwf	??_Check^0,w,c
 11536   0036DC  6EE1               	movwf	fsr1l,c
 11537   0036DE  0E00               	movlw	high (_time1+4)
 11538   0036E0  2004               	addwfc	(??_Check+1)^0,w,c
 11539   0036E2  6EE2               	movwf	fsr1h,c
 11540   0036E4  50E7               	movf	indf1,w,c
 11541   0036E6  6E05               	movwf	(??_Check+2)^0,c
 11542   0036E8  C001  F006         	movff	Check@Num,??_Check+3
 11543   0036EC  C002  F007         	movff	Check@Num+1,??_Check+4
 11544   0036F0  90D8               	bcf	status,0,c
 11545   0036F2  3606               	rlcf	(??_Check+3)^0,f,c
 11546   0036F4  3607               	rlcf	(??_Check+4)^0,f,c
 11547   0036F6  90D8               	bcf	status,0,c
 11548   0036F8  3606               	rlcf	(??_Check+3)^0,f,c
 11549   0036FA  3607               	rlcf	(??_Check+4)^0,f,c
 11550   0036FC  90D8               	bcf	status,0,c
 11551   0036FE  3606               	rlcf	(??_Check+3)^0,f,c
 11552   003700  3607               	rlcf	(??_Check+4)^0,f,c
 11553   003702  0EC2               	movlw	low (_time1+3)
 11554   003704  2406               	addwf	(??_Check+3)^0,w,c
 11555   003706  6EE1               	movwf	fsr1l,c
 11556   003708  0E00               	movlw	high (_time1+3)
 11557   00370A  2007               	addwfc	(??_Check+4)^0,w,c
 11558   00370C  6EE2               	movwf	fsr1h,c
 11559   00370E  50E7               	movf	indf1,w,c
 11560   003710  0D0A               	mullw	10
 11561   003712  50F3               	movf	243,w,c
 11562   003714  2405               	addwf	(??_Check+2)^0,w,c
 11563   003716  0FF0               	addlw	240
 11564   003718  6EDF               	movwf	indf2,c
 11565                           
 11566                           ;App_Functions.c: 72:   sec2[Num] = ( 10 * (time1[Num][6] - '0' ) ) + time1[Num][7] - '0
      +                          ';
 11567   00371A  0E88               	movlw	low _sec2
 11568   00371C  2401               	addwf	Check@Num^0,w,c
 11569   00371E  6ED9               	movwf	fsr2l,c
 11570   003720  0E00               	movlw	high _sec2
 11571   003722  2002               	addwfc	(Check@Num+1)^0,w,c
 11572   003724  6EDA               	movwf	fsr2h,c
 11573   003726  C001  F003         	movff	Check@Num,??_Check
 11574   00372A  C002  F004         	movff	Check@Num+1,??_Check+1
 11575   00372E  90D8               	bcf	status,0,c
 11576   003730  3603               	rlcf	??_Check^0,f,c
 11577   003732  3604               	rlcf	(??_Check+1)^0,f,c
 11578   003734  90D8               	bcf	status,0,c
 11579   003736  3603               	rlcf	??_Check^0,f,c
 11580   003738  3604               	rlcf	(??_Check+1)^0,f,c
 11581   00373A  90D8               	bcf	status,0,c
 11582   00373C  3603               	rlcf	??_Check^0,f,c
 11583   00373E  3604               	rlcf	(??_Check+1)^0,f,c
 11584   003740  0EC6               	movlw	low (_time1+7)
 11585   003742  2403               	addwf	??_Check^0,w,c
 11586   003744  6EE1               	movwf	fsr1l,c
 11587   003746  0E00               	movlw	high (_time1+7)
 11588   003748  2004               	addwfc	(??_Check+1)^0,w,c
 11589   00374A  6EE2               	movwf	fsr1h,c
 11590   00374C  50E7               	movf	indf1,w,c
 11591   00374E  6E05               	movwf	(??_Check+2)^0,c
 11592   003750  C001  F006         	movff	Check@Num,??_Check+3
 11593   003754  C002  F007         	movff	Check@Num+1,??_Check+4
 11594   003758  90D8               	bcf	status,0,c
 11595   00375A  3606               	rlcf	(??_Check+3)^0,f,c
 11596   00375C  3607               	rlcf	(??_Check+4)^0,f,c
 11597   00375E  90D8               	bcf	status,0,c
 11598   003760  3606               	rlcf	(??_Check+3)^0,f,c
 11599   003762  3607               	rlcf	(??_Check+4)^0,f,c
 11600   003764  90D8               	bcf	status,0,c
 11601   003766  3606               	rlcf	(??_Check+3)^0,f,c
 11602   003768  3607               	rlcf	(??_Check+4)^0,f,c
 11603   00376A  0EC5               	movlw	low (_time1+6)
 11604   00376C  2406               	addwf	(??_Check+3)^0,w,c
 11605   00376E  6EE1               	movwf	fsr1l,c
 11606   003770  0E00               	movlw	high (_time1+6)
 11607   003772  2007               	addwfc	(??_Check+4)^0,w,c
 11608   003774  6EE2               	movwf	fsr1h,c
 11609   003776  50E7               	movf	indf1,w,c
 11610   003778  0D0A               	mullw	10
 11611   00377A  50F3               	movf	243,w,c
 11612   00377C  2405               	addwf	(??_Check+2)^0,w,c
 11613   00377E  0FF0               	addlw	240
 11614   003780  6EDF               	movwf	indf2,c
 11615   003782  0012               	return		;funcret
 11616   003784                     __end_of_Check:
 11617                           	callstack 0
 11618                           
 11619 ;; *************** function _Active_Receiver_Interrupt *****************
 11620 ;; Defined at:
 11621 ;;		line 56 in file "UART_Driver.c"
 11622 ;; Parameters:    Size  Location     Type
 11623 ;;		None
 11624 ;; Auto vars:     Size  Location     Type
 11625 ;;		None
 11626 ;; Return value:  Size  Location     Type
 11627 ;;                  1    wreg      void 
 11628 ;; Registers used:
 11629 ;;		None
 11630 ;; Tracked objects:
 11631 ;;		On entry : 0/0
 11632 ;;		On exit  : 0/0
 11633 ;;		Unchanged: 0/0
 11634 ;; Data sizes:     COMRAM   BANK0   BANK1   BANK2   BANK3   BANK4   BANK5   BANK6   BANK7
 11635 ;;      Params:         0       0       0       0       0       0       0       0       0
 11636 ;;      Locals:         0       0       0       0       0       0       0       0       0
 11637 ;;      Temps:          0       0       0       0       0       0       0       0       0
 11638 ;;      Totals:         0       0       0       0       0       0       0       0       0
 11639 ;;Total ram usage:        0 bytes
 11640 ;; Hardware stack levels used: 1
 11641 ;; Hardware stack levels required when called: 1
 11642 ;; This function calls:
 11643 ;;		Nothing
 11644 ;; This function is called by:
 11645 ;;		_main
 11646 ;; This function uses a non-reentrant model
 11647 ;;
 11648                           
 11649                           	psect	text55
 11650   00474A                     __ptext55:
 11651                           	callstack 0
 11652   00474A                     _Active_Receiver_Interrupt:
 11653                           	callstack 29
 11654   00474A                     
 11655                           ;UART_Driver.c: 58:     GIE=1;
 11656   00474A  8EF2               	bsf	4082,7,c	;volatile
 11657                           
 11658                           ;UART_Driver.c: 59:     PEIE=1;
 11659   00474C  8CF2               	bsf	4082,6,c	;volatile
 11660                           
 11661                           ;UART_Driver.c: 60:     RCIE=1;
 11662   00474E  8A9D               	bsf	3997,5,c	;volatile
 11663   004750  0012               	return		;funcret
 11664   004752                     __end_of_Active_Receiver_Interrupt:
 11665                           	callstack 0
 11666                           
 11667 ;; *************** function _ISR *****************
 11668 ;; Defined at:
 11669 ;;		line 133 in file "main.c"
 11670 ;; Parameters:    Size  Location     Type
 11671 ;;		None
 11672 ;; Auto vars:     Size  Location     Type
 11673 ;;		None
 11674 ;; Return value:  Size  Location     Type
 11675 ;;                  1    wreg      void 
 11676 ;; Registers used:
 11677 ;;		None
 11678 ;; Tracked objects:
 11679 ;;		On entry : 0/0
 11680 ;;		On exit  : 0/0
 11681 ;;		Unchanged: 0/0
 11682 ;; Data sizes:     COMRAM   BANK0   BANK1   BANK2   BANK3   BANK4   BANK5   BANK6   BANK7
 11683 ;;      Params:         0       0       0       0       0       0       0       0       0
 11684 ;;      Locals:         0       0       0       0       0       0       0       0       0
 11685 ;;      Temps:          0       0       0       0       0       0       0       0       0
 11686 ;;      Totals:         0       0       0       0       0       0       0       0       0
 11687 ;;Total ram usage:        0 bytes
 11688 ;; Hardware stack levels used: 1
 11689 ;; This function calls:
 11690 ;;		Nothing
 11691 ;; This function is called by:
 11692 ;;		Interrupt level 2
 11693 ;; This function uses a non-reentrant model
 11694 ;;
 11695                           
 11696                           	psect	intcode
 11697   000008                     __pintcode:
 11698                           	callstack 0
 11699   000008                     _ISR:
 11700                           	callstack 21
 11701                           
 11702                           ;incstack = 0
 11703   000008  825F               	bsf	int$flags,1,c	;set compiler interrupt flag (level 2)
 11704   00000A  ED4E  F023         	call	int_func,f	;refresh shadow registers
 11705                           
 11706                           	psect	intcode_body
 11707   00469C                     __pintcode_body:
 11708                           	callstack 21
 11709   00469C                     int_func:
 11710                           	callstack 21
 11711   00469C  0006               	pop		; remove dummy address from shadow register refresh
 11712   00469E                     
 11713                           ;main.c: 136:   if (RCIF == 1)
 11714   00469E  AA9E               	btfss	3998,5,c	;volatile
 11715   0046A0  EF54  F023         	goto	i2u526_41
 11716   0046A4  EF56  F023         	goto	i2u526_40
 11717   0046A8                     i2u526_41:
 11718   0046A8  EF59  F023         	goto	i2l486
 11719   0046AC                     i2u526_40:
 11720   0046AC                     
 11721                           ;main.c: 137:   {;main.c: 138:       RCIF = 0;
 11722   0046AC  9A9E               	bcf	3998,5,c	;volatile
 11723                           
 11724                           ;main.c: 139:       Destination = RCREG;
 11725   0046AE  CFAE F09C          	movff	4014,_Destination	;volatile
 11726   0046B2                     i2l486:
 11727   0046B2  925F               	bcf	int$flags,1,c	;clear compiler interrupt flag (level 2)
 11728   0046B4  0011               	retfie		f
 11729   0046B6                     __end_of_ISR:
 11730                           	callstack 0
 11731                           
 11732                           	psect	rparam
 11733   000000                     
 11734                           	psect	temp
 11735   00005F                     btemp:
 11736                           	callstack 0
 11737   00005F                     	ds	1
 11738   000000                     int$flags	set	btemp
 11739   000000                     wtemp8	set	btemp+1
 11740   000000                     ttemp5	set	btemp+1
 11741   000000                     ttemp6	set	btemp+4
 11742   000000                     ttemp7	set	btemp+8
 11743                           
 11744                           	psect	idloc
 11745                           
 11746                           ;Config register IDLOC0 @ 0x200000
 11747                           ;	unspecified, using default values
 11748   200000                     	org	2097152
 11749   200000  FF                 	db	255
 11750                           
 11751                           ;Config register IDLOC1 @ 0x200001
 11752                           ;	unspecified, using default values
 11753   200001                     	org	2097153
 11754   200001  FF                 	db	255
 11755                           
 11756                           ;Config register IDLOC2 @ 0x200002
 11757                           ;	unspecified, using default values
 11758   200002                     	org	2097154
 11759   200002  FF                 	db	255
 11760                           
 11761                           ;Config register IDLOC3 @ 0x200003
 11762                           ;	unspecified, using default values
 11763   200003                     	org	2097155
 11764   200003  FF                 	db	255
 11765                           
 11766                           ;Config register IDLOC4 @ 0x200004
 11767                           ;	unspecified, using default values
 11768   200004                     	org	2097156
 11769   200004  FF                 	db	255
 11770                           
 11771                           ;Config register IDLOC5 @ 0x200005
 11772                           ;	unspecified, using default values
 11773   200005                     	org	2097157
 11774   200005  FF                 	db	255
 11775                           
 11776                           ;Config register IDLOC6 @ 0x200006
 11777                           ;	unspecified, using default values
 11778   200006                     	org	2097158
 11779   200006  FF                 	db	255
 11780                           
 11781                           ;Config register IDLOC7 @ 0x200007
 11782                           ;	unspecified, using default values
 11783   200007                     	org	2097159
 11784   200007  FF                 	db	255
 11785                           
 11786                           	psect	config
 11787                           
 11788                           ;Config register CONFIG1L @ 0x300000
 11789                           ;	PLL Prescaler Selection bits
 11790                           ;	PLLDIV = 1, No prescale (4 MHz oscillator input drives PLL directly)
 11791                           ;	System Clock Postscaler Selection bits
 11792                           ;	CPUDIV = OSC1_PLL2, [Primary Oscillator Src: /1][96 MHz PLL Src: /2]
 11793                           ;	USB Clock Selection bit (used in Full-Speed USB mode only; UCFG:FSEN = 1)
 11794                           ;	USBDIV = 1, USB clock source comes directly from the primary oscillator block with no 
      +                          postscale
 11795   300000                     	org	3145728
 11796   300000  00                 	db	0
 11797                           
 11798                           ;Config register CONFIG1H @ 0x300001
 11799                           ;	Oscillator Selection bits
 11800                           ;	FOSC = HS, HS oscillator (HS)
 11801                           ;	Fail-Safe Clock Monitor Enable bit
 11802                           ;	FCMEN = OFF, Fail-Safe Clock Monitor disabled
 11803                           ;	Internal/External Oscillator Switchover bit
 11804                           ;	IESO = OFF, Oscillator Switchover mode disabled
 11805   300001                     	org	3145729
 11806   300001  0C                 	db	12
 11807                           
 11808                           ;Config register CONFIG2L @ 0x300002
 11809                           ;	Power-up Timer Enable bit
 11810                           ;	PWRT = OFF, PWRT disabled
 11811                           ;	Brown-out Reset Enable bits
 11812                           ;	BOR = ON, Brown-out Reset enabled in hardware only (SBOREN is disabled)
 11813                           ;	Brown-out Reset Voltage bits
 11814                           ;	BORV = 3, Minimum setting 2.05V
 11815                           ;	USB Voltage Regulator Enable bit
 11816                           ;	VREGEN = OFF, USB voltage regulator disabled
 11817   300002                     	org	3145730
 11818   300002  1F                 	db	31
 11819                           
 11820                           ;Config register CONFIG2H @ 0x300003
 11821                           ;	Watchdog Timer Enable bit
 11822                           ;	WDT = OFF, WDT disabled (control is placed on the SWDTEN bit)
 11823                           ;	Watchdog Timer Postscale Select bits
 11824                           ;	WDTPS = 32768, 1:32768
 11825   300003                     	org	3145731
 11826   300003  1E                 	db	30
 11827                           
 11828                           ; Padding undefined space
 11829   300004                     	org	3145732
 11830   300004  FF                 	db	255
 11831                           
 11832                           ;Config register CONFIG3H @ 0x300005
 11833                           ;	CCP2 MUX bit
 11834                           ;	CCP2MX = ON, CCP2 input/output is multiplexed with RC1
 11835                           ;	PORTB A/D Enable bit
 11836                           ;	PBADEN = OFF, PORTB<4:0> pins are configured as digital I/O on Reset
 11837                           ;	Low-Power Timer 1 Oscillator Enable bit
 11838                           ;	LPT1OSC = OFF, Timer1 configured for higher power operation
 11839                           ;	MCLR Pin Enable bit
 11840                           ;	MCLRE = ON, MCLR pin enabled; RE3 input pin disabled
 11841   300005                     	org	3145733
 11842   300005  81                 	db	129
 11843                           
 11844                           ;Config register CONFIG4L @ 0x300006
 11845                           ;	Stack Full/Underflow Reset Enable bit
 11846                           ;	STVREN = ON, Stack full/underflow will cause Reset
 11847                           ;	Single-Supply ICSP Enable bit
 11848                           ;	LVP = ON, Single-Supply ICSP enabled
 11849                           ;	Dedicated In-Circuit Debug/Programming Port (ICPORT) Enable bit
 11850                           ;	ICPRT = OFF, ICPORT disabled
 11851                           ;	Extended Instruction Set Enable bit
 11852                           ;	XINST = OFF, Instruction set extension and Indexed Addressing mode disabled (Legacy mo
      +                          de)
 11853                           ;	Background Debugger Enable bit
 11854                           ;	DEBUG = 0x1, unprogrammed default
 11855   300006                     	org	3145734
 11856   300006  85                 	db	133
 11857                           
 11858                           ; Padding undefined space
 11859   300007                     	org	3145735
 11860   300007  FF                 	db	255
 11861                           
 11862                           ;Config register CONFIG5L @ 0x300008
 11863                           ;	Code Protection bit
 11864                           ;	CP0 = OFF, Block 0 (000800-001FFFh) is not code-protected
 11865                           ;	Code Protection bit
 11866                           ;	CP1 = OFF, Block 1 (002000-003FFFh) is not code-protected
 11867                           ;	Code Protection bit
 11868                           ;	CP2 = OFF, Block 2 (004000-005FFFh) is not code-protected
 11869                           ;	Code Protection bit
 11870                           ;	CP3 = OFF, Block 3 (006000-007FFFh) is not code-protected
 11871   300008                     	org	3145736
 11872   300008  0F                 	db	15
 11873                           
 11874                           ;Config register CONFIG5H @ 0x300009
 11875                           ;	Boot Block Code Protection bit
 11876                           ;	CPB = OFF, Boot block (000000-0007FFh) is not code-protected
 11877                           ;	Data EEPROM Code Protection bit
 11878                           ;	CPD = OFF, Data EEPROM is not code-protected
 11879   300009                     	org	3145737
 11880   300009  C0                 	db	192
 11881                           
 11882                           ;Config register CONFIG6L @ 0x30000A
 11883                           ;	Write Protection bit
 11884                           ;	WRT0 = OFF, Block 0 (000800-001FFFh) is not write-protected
 11885                           ;	Write Protection bit
 11886                           ;	WRT1 = OFF, Block 1 (002000-003FFFh) is not write-protected
 11887                           ;	Write Protection bit
 11888                           ;	WRT2 = OFF, Block 2 (004000-005FFFh) is not write-protected
 11889                           ;	Write Protection bit
 11890                           ;	WRT3 = OFF, Block 3 (006000-007FFFh) is not write-protected
 11891   30000A                     	org	3145738
 11892   30000A  0F                 	db	15
 11893                           
 11894                           ;Config register CONFIG6H @ 0x30000B
 11895                           ;	Configuration Register Write Protection bit
 11896                           ;	WRTC = OFF, Configuration registers (300000-3000FFh) are not write-protected
 11897                           ;	Boot Block Write Protection bit
 11898                           ;	WRTB = OFF, Boot block (000000-0007FFh) is not write-protected
 11899                           ;	Data EEPROM Write Protection bit
 11900                           ;	WRTD = OFF, Data EEPROM is not write-protected
 11901   30000B                     	org	3145739
 11902   30000B  E0                 	db	224
 11903                           
 11904                           ;Config register CONFIG7L @ 0x30000C
 11905                           ;	Table Read Protection bit
 11906                           ;	EBTR0 = OFF, Block 0 (000800-001FFFh) is not protected from table reads executed in ot
      +                          her blocks
 11907                           ;	Table Read Protection bit
 11908                           ;	EBTR1 = OFF, Block 1 (002000-003FFFh) is not protected from table reads executed in ot
      +                          her blocks
 11909                           ;	Table Read Protection bit
 11910                           ;	EBTR2 = OFF, Block 2 (004000-005FFFh) is not protected from table reads executed in ot
      +                          her blocks
 11911                           ;	Table Read Protection bit
 11912                           ;	EBTR3 = OFF, Block 3 (006000-007FFFh) is not protected from table reads executed in ot
      +                          her blocks
 11913   30000C                     	org	3145740
 11914   30000C  0F                 	db	15
 11915                           
 11916                           ;Config register CONFIG7H @ 0x30000D
 11917                           ;	Boot Block Table Read Protection bit
 11918                           ;	EBTRB = OFF, Boot block (000000-0007FFh) is not protected from table reads executed in
      +                           other blocks
 11919   30000D                     	org	3145741
 11920   30000D  40                 	db	64
 11921                           tosu	equ	0xFFF
 11922                           tosh	equ	0xFFE
 11923                           tosl	equ	0xFFD
 11924                           stkptr	equ	0xFFC
 11925                           pclatu	equ	0xFFB
 11926                           pclath	equ	0xFFA
 11927                           pcl	equ	0xFF9
 11928                           tblptru	equ	0xFF8
 11929                           tblptrh	equ	0xFF7
 11930                           tblptrl	equ	0xFF6
 11931                           tablat	equ	0xFF5
 11932                           prodh	equ	0xFF4
 11933                           prodl	equ	0xFF3
 11934                           indf0	equ	0xFEF
 11935                           postinc0	equ	0xFEE
 11936                           postdec0	equ	0xFED
 11937                           preinc0	equ	0xFEC
 11938                           plusw0	equ	0xFEB
 11939                           fsr0h	equ	0xFEA
 11940                           fsr0l	equ	0xFE9
 11941                           wreg	equ	0xFE8
 11942                           indf1	equ	0xFE7
 11943                           postinc1	equ	0xFE6
 11944                           postdec1	equ	0xFE5
 11945                           preinc1	equ	0xFE4
 11946                           plusw1	equ	0xFE3
 11947                           fsr1h	equ	0xFE2
 11948                           fsr1l	equ	0xFE1
 11949                           bsr	equ	0xFE0
 11950                           indf2	equ	0xFDF
 11951                           postinc2	equ	0xFDE
 11952                           postdec2	equ	0xFDD
 11953                           preinc2	equ	0xFDC
 11954                           plusw2	equ	0xFDB
 11955                           fsr2h	equ	0xFDA
 11956                           fsr2l	equ	0xFD9
 11957                           status	equ	0xFD8

Data Sizes:
    Strings     78
    Constant    0
    Data        34
    BSS         166
    Persistent  1
    Stack       0

Auto Spaces:
    Space          Size  Autos    Used
    COMRAM           94     93      94
    BANK0           160     24     152
    BANK1           256      0      72
    BANK2           256      0       0
    BANK3           256      0       0
    BANK4           256      0       0
    BANK5           256      0       0
    BANK6           256      0       0
    BANK7           256      0       0

Pointer List with Targets:

    fputs@s	PTR const unsigned char  size(2) Largest target is 32
		 -> dbuf(BANK1[32]), 

    fputs@fp	PTR struct _IO_FILE size(2) Largest target is 11
		 -> sprintf@f(BANK0[11]), 

    fputc@fp...source	PTR const unsigned char  size(2) Largest target is 0

    fputc@fp...buffer	PTR unsigned char  size(2) Largest target is 0

    fputc@fp	PTR struct _IO_FILE size(2) Largest target is 11
		 -> sprintf@f(BANK0[11]), 

    vfprintf@ap	PTR PTR void  size(2) Largest target is 2
		 -> sprintf@ap(BANK0[2]), 

    vfprintf@fp	PTR struct _IO_FILE size(2) Largest target is 11
		 -> sprintf@f(BANK0[11]), 

    vfprintf@fmt	PTR const unsigned char  size(2) Largest target is 11
		 -> STR_11(CODE[4]), STR_10(CODE[4]), STR_9(CODE[5]), STR_8(CODE[10]), 
		 -> STR_7(CODE[11]), STR_6(CODE[10]), STR_5(CODE[11]), STR_4(CODE[4]), 
		 -> STR_3(CODE[5]), STR_2(CODE[4]), STR_1(CODE[5]), 

    vfprintf@cfmt	PTR unsigned char  size(2) Largest target is 11
		 -> STR_11(CODE[4]), STR_10(CODE[4]), STR_9(CODE[5]), STR_8(CODE[10]), 
		 -> STR_7(CODE[11]), STR_6(CODE[10]), STR_5(CODE[11]), STR_4(CODE[4]), 
		 -> STR_3(CODE[5]), STR_2(CODE[4]), STR_1(CODE[5]), 

    vfpfcnvrt@fp	PTR struct _IO_FILE size(2) Largest target is 11
		 -> sprintf@f(BANK0[11]), 

    vfpfcnvrt@ap	PTR PTR void  size(2) Largest target is 2
		 -> sprintf@ap(BANK0[2]), 

    vfpfcnvrt@cp	PTR unsigned char  size(2) Largest target is 11
		 -> STR_11(CODE[4]), STR_10(CODE[4]), STR_9(CODE[5]), STR_8(CODE[10]), 
		 -> STR_7(CODE[11]), STR_6(CODE[10]), STR_5(CODE[11]), STR_4(CODE[4]), 
		 -> STR_3(CODE[5]), STR_2(CODE[4]), STR_1(CODE[5]), 

    vfpfcnvrt@fmt	PTR PTR unsigned char  size(2) Largest target is 2
		 -> vfprintf@cfmt(COMRAM[2]), 

    S1305$vp	PTR void  size(2) Largest target is 0

    convarg.vp	PTR void  size(2) Largest target is 0

    xtoa@fp	PTR struct _IO_FILE size(2) Largest target is 11
		 -> sprintf@f(BANK0[11]), 

    dtoa@fp	PTR struct _IO_FILE size(2) Largest target is 11
		 -> sprintf@f(BANK0[11]), 

    pad@buf	PTR unsigned char  size(2) Largest target is 32
		 -> dbuf(BANK1[32]), 

    pad@fp	PTR struct _IO_FILE size(2) Largest target is 11
		 -> sprintf@f(BANK0[11]), 

    sprintf@fmt	PTR const unsigned char  size(2) Largest target is 11
		 -> STR_11(CODE[4]), STR_10(CODE[4]), STR_9(CODE[5]), STR_8(CODE[10]), 
		 -> STR_7(CODE[11]), STR_6(CODE[10]), STR_5(CODE[11]), STR_4(CODE[4]), 
		 -> STR_3(CODE[5]), STR_2(CODE[4]), STR_1(CODE[5]), 

    sprintf@s	PTR unsigned char  size(2) Largest target is 10
		 -> year(BANK1[10]), month(BANK1[10]), date(BANK1[10]), hours(BANK1[10]), 
		 -> mins(BANK0[10]), secs(BANK0[10]), 

    sprintf@ap	PTR void [1] size(2) Largest target is 2
		 -> ?_sprintf(BANK0[2]), 

    S1252$source	PTR const unsigned char  size(2) Largest target is 0

    f...source	PTR const unsigned char  size(2) Largest target is 0

    S1252$buffer	PTR unsigned char  size(2) Largest target is 0

    f...buffer	PTR unsigned char  size(2) Largest target is 0

    RTC_Get_Date@RTC	PTR struct . size(2) Largest target is 7
		 -> rtc(BANK0[7]), 

    RTC_Get_Time@RTC	PTR struct . size(2) Largest target is 7
		 -> rtc(BANK0[7]), 

    RTC	PTR struct . size(2) Largest target is 7
		 -> rtc(BANK0[7]), 

    LCD_write_string@str	PTR const unsigned char  size(2) Largest target is 10
		 -> STR_15(CODE[9]), STR_14(CODE[9]), STR_13(CODE[9]), STR_12(CODE[9]), 
		 -> year(BANK1[10]), month(BANK1[10]), date(BANK1[10]), hours(BANK1[10]), 
		 -> mins(BANK0[10]), secs(BANK0[10]), 


Critical Paths under _main in COMRAM

    _main->_Screen_Date_Time
    _USART_init->___fladd
    ___flmul->___xxtofl
    ___fldiv->___flmul
    ___fladd->___fldiv
    _Screen_Device_2->_Flash
    _Screen_Device_1->_Flash
    _Flash->_LCD_goto_xy
    _sprintf->_vfprintf
    _vfprintf->_vfpfcnvrt
    _vfpfcnvrt->_dtoa
    _vfpfcnvrt->_xtoa
    _xtoa->_pad
    _dtoa->_pad
    _pad->_fputs
    _fputs->_fputc
    _abs->___aomod
    _RTC_Get_Time->_I2C_Read
    _RTC_Get_Date->_I2C_Read
    _I2C_Repeated_Start->_I2C_Write
    _LCD_write_string->_LCD_write
    _LCD_goto_xy->_LCD_cmd
    _RTC_Set_Time->___awdiv
    _RTC_Set_Date->___awdiv
    _I2C_Start->_I2C_Write
    _LCD_init->_LCD_4bit_mode
    _LCD_4bit_mode->_LCD_cmd
    _LCD_4bit_mode->_LCD_cmd_High
    _LCD_clear->_LCD_cmd
    _Compare->___lmul

Critical Paths under _ISR in COMRAM

    None.

Critical Paths under _main in BANK0

    _Screen_Date_Time->_sprintf

Critical Paths under _ISR in BANK0

    None.

Critical Paths under _main in BANK1

    None.

Critical Paths under _ISR in BANK1

    None.

Critical Paths under _main in BANK2

    None.

Critical Paths under _ISR in BANK2

    None.

Critical Paths under _main in BANK3

    None.

Critical Paths under _ISR in BANK3

    None.

Critical Paths under _main in BANK4

    None.

Critical Paths under _ISR in BANK4

    None.

Critical Paths under _main in BANK5

    None.

Critical Paths under _ISR in BANK5

    None.

Critical Paths under _main in BANK6

    None.

Critical Paths under _ISR in BANK6

    None.

Critical Paths under _main in BANK7

    None.

Critical Paths under _ISR in BANK7

    None.

Call Graph Tables:

 ---------------------------------------------------------------------------------
 (Depth) Function   	        Calls       Base Space   Used Autos Params    Refs
 ---------------------------------------------------------------------------------
 (0) _main                                                 7     7      0   48034
                                             91 COMRAM     2     2      0
                                             19 BANK0      5     5      0
          _Active_Receiver_Interrupt
                              _Check
                            _Compare
                        _EEPROM_Read
                       _EEPROM_Write
                           _I2C_Init
                          _LCD_clear
                           _LCD_init
                  _Push_Buttons_Init
                       _RTC_Set_Date
                       _RTC_Set_Time
                   _Screen_Date_Time
                    _Screen_Device_1
                    _Screen_Device_2
                         _USART_init
 ---------------------------------------------------------------------------------
 (1) _USART_init                                           8     4      4    6711
                                             80 COMRAM     8     4      4
                            ___fladd
                            ___fldiv
                             ___flge
                            ___flmul
                            ___fltol
                           ___xxtofl
 ---------------------------------------------------------------------------------
 (2) ___xxtofl                                            14    10      4     398
                                              0 COMRAM    14    10      4
 ---------------------------------------------------------------------------------
 (2) ___fltol                                             10     6      4     305
                                              0 COMRAM    10     6      4
 ---------------------------------------------------------------------------------
 (2) ___flmul                                             25    17      8    1744
                                             14 COMRAM    25    17      8
                           ___xxtofl (ARG)
 ---------------------------------------------------------------------------------
 (2) ___flge                                              12     4      8     334
                                              0 COMRAM    12     4      8
 ---------------------------------------------------------------------------------
 (2) ___fldiv                                             25    17      8    1399
                                             39 COMRAM    25    17      8
                            ___flmul (ARG)
                           ___xxtofl (ARG)
 ---------------------------------------------------------------------------------
 (2) ___fladd                                             16     8      8    2388
                                             64 COMRAM    16     8      8
                            ___fldiv (ARG)
                            ___flmul (ARG)
                           ___xxtofl (ARG)
 ---------------------------------------------------------------------------------
 (1) _Screen_Device_2                                      6     6      0    9068
                                             15 COMRAM     6     6      0
                              _Flash
                        _LCD_goto_xy
                          _LCD_write
                   _LCD_write_string
                           _Set_Time
 ---------------------------------------------------------------------------------
 (1) _Screen_Device_1                                      6     6      0    9068
                                             15 COMRAM     6     6      0
                              _Flash
                        _LCD_goto_xy
                          _LCD_write
                   _LCD_write_string
                           _Set_Time
 ---------------------------------------------------------------------------------
 (2) _Set_Time                                            13     9      4    1356
                                              0 COMRAM    13     9      4
 ---------------------------------------------------------------------------------
 (2) _Flash                                                5     1      4    5198
                                             10 COMRAM     5     1      4
                        _LCD_goto_xy
                          _LCD_write
 ---------------------------------------------------------------------------------
 (1) _Screen_Date_Time                                     1     1      0   13173
                                             90 COMRAM     1     1      0
                        _LCD_goto_xy
                   _LCD_write_string
                       _RTC_Get_Date
                       _RTC_Get_Time
                            _sprintf
 ---------------------------------------------------------------------------------
 (2) _sprintf                                             21    15      6   10221
                                              0 BANK0     19    13      6
                           _vfprintf
 ---------------------------------------------------------------------------------
 (3) _vfprintf                                             8     2      6    8348
                                             82 COMRAM     8     2      6
                          _vfpfcnvrt
 ---------------------------------------------------------------------------------
 (4) _vfpfcnvrt                                           25    19      6    7996
                                             62 COMRAM    20    14      6
                               _dtoa
                              _fputc
                               _xtoa
 ---------------------------------------------------------------------------------
 (5) _xtoa                                                35    25     10    2744
                                             27 COMRAM    35    25     10
                                _pad
 ---------------------------------------------------------------------------------
 (5) _dtoa                                                35    25     10    3877
                                             27 COMRAM    35    25     10
                            ___aodiv
                            ___aomod
                                _abs
                                _pad
 ---------------------------------------------------------------------------------
 (6) _pad                                                 11     5      6    2227
                                             16 COMRAM    11     5      6
                              _fputc
                              _fputs
 ---------------------------------------------------------------------------------
 (7) _fputs                                                7     3      4     931
                                              9 COMRAM     7     3      4
                              _fputc
 ---------------------------------------------------------------------------------
 (8) _fputc                                                9     5      4     682
                                              0 COMRAM     9     5      4
                              _putch
 ---------------------------------------------------------------------------------
 (9) _putch                                                1     1      0       0
 ---------------------------------------------------------------------------------
 (6) _abs                                                  4     2      2     142
                                             18 COMRAM     4     2      2
                            ___aomod (ARG)
 ---------------------------------------------------------------------------------
 (6) ___aomod                                             18     2     16     448
                                              0 COMRAM    18     2     16
 ---------------------------------------------------------------------------------
 (6) ___aodiv                                             26    10     16     452
                                              0 COMRAM    26    10     16
 ---------------------------------------------------------------------------------
 (2) _RTC_Get_Time                                         2     0      2     298
                                              3 COMRAM     2     0      2
                           _I2C_Read
                 _I2C_Repeated_Start
                          _I2C_Start
                           _I2C_Stop
                          _I2C_Write
 ---------------------------------------------------------------------------------
 (2) _RTC_Get_Date                                         2     0      2     320
                                              3 COMRAM     2     0      2
                           _I2C_Read
                 _I2C_Repeated_Start
                          _I2C_Start
                           _I2C_Stop
                          _I2C_Write
 ---------------------------------------------------------------------------------
 (3) _I2C_Repeated_Start                                   1     1      0      44
                                              1 COMRAM     1     1      0
                          _I2C_Write
 ---------------------------------------------------------------------------------
 (3) _I2C_Read                                             3     3      0      46
                                              0 COMRAM     3     3      0
                            _I2C_Ack
                           _I2C_Nack
                          _I2C_Ready
 ---------------------------------------------------------------------------------
 (4) _I2C_Nack                                             0     0      0       0
 ---------------------------------------------------------------------------------
 (4) _I2C_Ack                                              0     0      0       0
 ---------------------------------------------------------------------------------
 (2) _LCD_write_string                                     6     4      2     894
                                              2 COMRAM     6     4      2
                          _LCD_write
 ---------------------------------------------------------------------------------
 (3) _LCD_write                                            2     2      0      44
                                              0 COMRAM     2     2      0
 ---------------------------------------------------------------------------------
 (2) _LCD_goto_xy                                          9     5      4    1440
                                              1 COMRAM     9     5      4
                            _LCD_cmd
 ---------------------------------------------------------------------------------
 (1) _RTC_Set_Time                                         5     3      2    3074
                                              8 COMRAM     5     3      2
                           _I2C_Init
                          _I2C_Start
                           _I2C_Stop
                          _I2C_Write
                            ___awdiv
                            ___awmod
 ---------------------------------------------------------------------------------
 (2) _I2C_Init                                             0     0      0       0
 ---------------------------------------------------------------------------------
 (1) _RTC_Set_Date                                         6     3      3    3194
                                              8 COMRAM     6     3      3
                          _I2C_Start
                           _I2C_Stop
                          _I2C_Write
                            ___awdiv
                            ___awmod
 ---------------------------------------------------------------------------------
 (2) ___awmod                                              6     2      4    1360
                                              0 COMRAM     6     2      4
 ---------------------------------------------------------------------------------
 (2) ___awdiv                                              8     4      4    1364
                                              0 COMRAM     8     4      4
 ---------------------------------------------------------------------------------
 (3) _I2C_Stop                                             0     0      0       0
 ---------------------------------------------------------------------------------
 (3) _I2C_Start                                            1     1      0      44
                                              1 COMRAM     1     1      0
                          _I2C_Write
 ---------------------------------------------------------------------------------
 (3) _I2C_Write                                            1     1      0      22
                                              0 COMRAM     1     1      0
                          _I2C_Ready
 ---------------------------------------------------------------------------------
 (4) _I2C_Ready                                            0     0      0       0
 ---------------------------------------------------------------------------------
 (1) _Push_Buttons_Init                                    0     0      0       0
 ---------------------------------------------------------------------------------
 (1) _LCD_init                                             0     0      0      66
                      _LCD_4bit_mode
 ---------------------------------------------------------------------------------
 (2) _LCD_4bit_mode                                        1     1      0      66
                                              1 COMRAM     1     1      0
                            _LCD_cmd
                       _LCD_cmd_High
 ---------------------------------------------------------------------------------
 (3) _LCD_cmd_High                                         1     1      0      22
                                              0 COMRAM     1     1      0
 ---------------------------------------------------------------------------------
 (1) _LCD_clear                                            1     1      0      44
                                              1 COMRAM     1     1      0
                            _LCD_cmd
 ---------------------------------------------------------------------------------
 (3) _LCD_cmd                                              1     1      0      44
                                              0 COMRAM     1     1      0
 ---------------------------------------------------------------------------------
 (1) _EEPROM_Write                                         2     1      1     500
                                              0 COMRAM     2     1      1
 ---------------------------------------------------------------------------------
 (1) _EEPROM_Read                                          1     1      0      22
                                              0 COMRAM     1     1      0
 ---------------------------------------------------------------------------------
 (1) _Compare                                             21    17      4    1502
                                             12 COMRAM    21    17      4
                             _Action
                             ___lmul
 ---------------------------------------------------------------------------------
 (2) ___lmul                                              12     4      8    1022
                                              0 COMRAM    12     4      8
 ---------------------------------------------------------------------------------
 (2) _Action                                               0     0      0       0
 ---------------------------------------------------------------------------------
 (1) _Check                                                7     5      2     502
                                              0 COMRAM     7     5      2
 ---------------------------------------------------------------------------------
 (1) _Active_Receiver_Interrupt                            0     0      0       0
 ---------------------------------------------------------------------------------
 Estimated maximum stack depth 9
 ---------------------------------------------------------------------------------
 (Depth) Function   	        Calls       Base Space   Used Autos Params    Refs
 ---------------------------------------------------------------------------------
 (10) _ISR                                                 0     0      0       0
 ---------------------------------------------------------------------------------
 Estimated maximum stack depth 10
 ---------------------------------------------------------------------------------

 Call Graph Graphs:

 _main (ROOT)
   _Active_Receiver_Interrupt
   _Check
   _Compare
     _Action
     ___lmul
   _EEPROM_Read
   _EEPROM_Write
   _I2C_Init
   _LCD_clear
     _LCD_cmd
   _LCD_init
     _LCD_4bit_mode
       _LCD_cmd
       _LCD_cmd_High
   _Push_Buttons_Init
   _RTC_Set_Date
     _I2C_Start
       _I2C_Write
         _I2C_Ready
     _I2C_Stop
     _I2C_Write
     ___awdiv
     ___awmod
   _RTC_Set_Time
     _I2C_Init
     _I2C_Start
     _I2C_Stop
     _I2C_Write
     ___awdiv
     ___awmod
   _Screen_Date_Time
     _LCD_goto_xy
       _LCD_cmd
     _LCD_write_string
       _LCD_write
     _RTC_Get_Date
       _I2C_Read
         _I2C_Ack
         _I2C_Nack
         _I2C_Ready
       _I2C_Repeated_Start
         _I2C_Write
       _I2C_Start
       _I2C_Stop
       _I2C_Write
     _RTC_Get_Time
       _I2C_Read
       _I2C_Repeated_Start
       _I2C_Start
       _I2C_Stop
       _I2C_Write
     _sprintf
       _vfprintf
         _vfpfcnvrt
           _dtoa
             ___aodiv
             ___aomod
             _abs
               ___aomod (ARG)
             _pad
               _fputc
                 _putch
               _fputs
                 _fputc
           _fputc
           _xtoa
             _pad
   _Screen_Device_1
     _Flash
       _LCD_goto_xy
       _LCD_write
     _LCD_goto_xy
     _LCD_write
     _LCD_write_string
     _Set_Time
   _Screen_Device_2
     _Flash
     _LCD_goto_xy
     _LCD_write
     _LCD_write_string
     _Set_Time
   _USART_init
     ___fladd
       ___fldiv (ARG)
         ___flmul (ARG)
           ___xxtofl (ARG)
         ___xxtofl (ARG)
       ___flmul (ARG)
       ___xxtofl (ARG)
     ___fldiv
     ___flge
     ___flmul
     ___fltol
     ___xxtofl

 _ISR (ROOT)

 Address spaces:
Name               Size   Autos  Total    Cost      Usage
BIGRAM             7FF      0       0      31        0.0%
EEDATA             100      0       0       0        0.0%
BITBANK7           100      0       0      18        0.0%
BANK7              100      0       0      19        0.0%
BITBANK6           100      0       0      16        0.0%
BANK6              100      0       0      17        0.0%
BITBANK5           100      0       0      14        0.0%
BANK5              100      0       0      15        0.0%
BITBANK4           100      0       0      12        0.0%
BANK4              100      0       0      13        0.0%
BITBANK3           100      0       0      10        0.0%
BANK3              100      0       0      11        0.0%
BITBANK2           100      0       0       8        0.0%
BANK2              100      0       0       9        0.0%
BITBANK1           100      0       0       6        0.0%
BANK1              100      0      48       7       28.1%
BITBANK0            A0      0       0       4        0.0%
BANK0               A0     18      98       5       95.0%
BITCOMRAM           5E      0       0       0        0.0%
COMRAM              5E     5D      5E       1      100.0%
BITBIGSFRhhhhhl     28      0       0      21        0.0%
BITBIGSFRll         21      0       0      29        0.0%
BITBIGSFRhhlhh      15      0       0      22        0.0%
BITBIGSFRhll         F      0       0      27        0.0%
BITBIGSFRhhhhhh      D      0       0      20        0.0%
BITBIGSFRhhll        7      0       0      26        0.0%
BITBIGSFRhhlhll      4      0       0      24        0.0%
BITBIGSFRhhlhll      2      0       0      25        0.0%
BITBIGSFRhhlhlh      1      0       0      23        0.0%
BITBIGSFRlh          1      0       0      28        0.0%
BIGSFR               0      0       0     200        0.0%
BITSFR               0      0       0     200        0.0%
SFR                  0      0       0     200        0.0%
STACK                0      0       0       2        0.0%
NULL                 0      0       0       0        0.0%
ABS                  0      0     13E      30        0.0%
DATA                 0      0     13E       3        0.0%
CODE                 0      0       0       0        0.0%


Microchip Technology PIC18 Macro Assembler V2.40 build 20220703182018 
Symbol Table                                                                                   Sun Jan 01 15:05:26 2023

                                   l9 458E                          ___fldiv@aexp 0040  
                        ___fldiv@bexp 003F              __end_of_Screen_Date_Time 2BB2  
                        ___fldiv@sign 0038                           _SSPSTATbits 000FC7  
             __end_of_Screen_Device_1 2340               __end_of_Screen_Device_2 1F36  
                                  l12 469A                                    l21 472E  
                                  l30 40EE                                    l15 41E0  
                                  l24 4496                                    l18 46CC  
                                  l42 3E32                                    l47 4748  
                        ___awdiv@sign 0006                                   l123 2B5C  
                                 l124 2BB0                                   l132 2014  
                                 l301 46FC                                   l310 46F6  
                                 l304 470A                                   l161 233E  
                                 l251 46E2                                   l307 46E8  
                                 l243 4520                                   l331 43BA  
                                 l325 3D5C                                   l245 452E  
                                 l254 470C                                   l334 42B2  
                                 l271 45F2                                   l247 4550  
                                 l600 45BE                                   l256 471A  
                                 l328 3896                                   l248 4556  
                                 l280 45D2                                   l257 471C  
                                 l273 4600                                   l169 1C0A  
                                 l290 4670                                   l282 45EC  
                                 l275 461A                                   l293 467E  
                                 l453 14E2                                   l278 45C4  
                                 l198 1F34                                   l287 4662  
                                 l560 0DC8                                   l544 0886  
                                 l609 473E                                   l297 465E  
                                 l553 0B18                                   l554 0BB0  
                                 l563 3782                                   l555 0C48  
                                 l651 3B94                                   l556 0CA8  
                                 l901 3FC0                                   l581 4304  
                                 l557 0D08                                   l549 09BA  
                                 l566 2DF0                                   l582 4318  
                                 l558 0D68                                   l577 3C84  
                                 l681 423A                                   l682 424A  
                                 l914 4070                                   l667 4750  
                                 l940 3AA0                                   l597 45AE  
                                 l599 45BC                                   l935 3A5A  
                                 l784 34E4                                   l797 3648  
                                 l967 399C                                   _GIE 007F97  
                                 _PEN 007E2A                                   _ISR 0008  
                                 _RTC 00BD                                   _abs 44DC  
                     __end_of_I2C_Ack 470C                                   _pad 40F0  
                                 _rtc 00B2                          ___awmod@sign 0006  
                                 prod 000FF3                                   wreg 000FE8  
                        ___flmul@aexp 0020                          ___flmul@bexp 0021  
                        ___flmul@sign 001B                          ___flmul@temp 0026  
                        ___flmul@prod 0022                                  ?_ISR 0001  
                     __end_of_LCD_cmd 4590                          ___fltol@exp1 000A  
                                l1200 0F6C                                  ?_abs 0013  
                                l1301 1AEC                                  l1215 10D2  
                                l1207 1288                                  l1224 11A2  
                                l1225 1190                                  l1252 26D8  
                                l1332 3102                                  l1325 306A  
                                l1254 2538                                  l1263 257E  
                                l4000 3C7C                                  l1432 4512  
                                l1416 3012                                  l1328 31C6  
                                l1409 335C                                  l1265 25F6  
                                l1257 24FC                                  l4010 421A  
                                l4002 41E2                                  l1370 4112  
                                l1266 25E4                                  l1435 451A  
                                l1291 19BC                                  l1339 315E  
                                l4004 41F2                                  l1428 4408  
                                l1348 436A                                  l4100 0F7A  
                                l4020 0DF6                                  l4012 0DCA  
                                l1284 17C6                                  l1381 276E  
                                l1293 1A34                                  l4006 4200  
                                l1374 4168                                  l1382 27B4  
                                l4110 0FA4                                  l4102 0F86  
                                l1198 0FB8                                  l4030 0E30  
                                l4022 0E06                                  l4014 0DD6  
                                l1294 1A22                                  l1447 3EFC  
                                l1455 44DA                                  l1199 0FA6  
                                l4008 4210                                  l4200 125A  
                                l4120 0FFA                                  l4112 0FC6  
                                l4104 0F8A                                  l4040 0E5E  
                                l4032 0E36                                  l4024 0E16  
                                l4016 0DE4                                  l1288 1B2A  
                                l5000 3B3C                                  l1393 2956  
                                l1458 4752                                  l4210 1278  
                                l4202 1260                                  l4130 1034  
                                l4122 1008                                  l4114 0FD6  
                                l4106 0F98                                  l4050 0E92  
                                l4042 0E60                                  l4034 0E48  
                                l4026 0E18                                  l4018 0DE6  
                                l5010 3B90                                  l5002 3B6E  
                                l1379 2766                                  l5020 4738  
                                l3500 342C                                  l4204 1262  
                                l4140 10A0                                  l4132 1036  
                                l4124 1016                                  l4108 0F9A  
                                l4060 0ECE                                  l4044 0E70  
                                l4052 0E9A                                  l4036 0E4A  
                                l4028 0E20                                  l4300 255E  
                                l4220 235C                                  l5012 3B92  
                                l5004 3B70                                  l1397 31F0  
                                l5014 474A                                  l5022 473A  
                                l5030 4596                                  l3502 345A  
                                l3510 3494                                  l4206 1268  
                                l4150 10F8                                  l4142 10A2  
                                l4134 1040                                  l4126 1022  
                                l4118 0FEA                                  l4070 0EE2  
                                l4062 0ED2                                  l4054 0EAA  
                                l4046 0E80                                  l4038 0E50  
                                l4310 259C                                  l4302 2564  
                                l4222 236C                                  l4230 2396  
                                l4214 2340                                  l5006 3B88  
                                l5110 131C                                  l1399 31F8  
                                l5024 473C                                  l5016 4732  
                                l5040 45A2                                  l5032 459A  
                                l3512 34A4                                  l3504 347A  
                                l3520 34EA                                  l3600 27C6  
                                l4208 1276                                  l4160 1126  
                                l4144 10B2                                  l4128 1026  
                                l4136 1046                                  l4080 0EF6  
                                l4072 0EE6                                  l4064 0ED6  
                                l4056 0EBC                                  l4048 0E90  
                                l4320 2606                                  l4312 25A0  
                                l4304 256E                                  l4240 23C2  
                                l4232 23A6                                  l4224 237C  
                                l4216 234C                                  l4400 1832  
                                l5008 3B8C                                  l5200 1614  
                                l5120 13C6                                  l5112 132E  
                                l5104 1318                                  l5050 2BB2  
                                l5018 4736                                  l5042 45A6  
                                l5034 459C                                  l3514 34C4  
                                l3506 347C                                  l3530 354A  
                                l3522 34F8                                  l3602 27CC  
                                l3610 28BE                                  l4162 1134  
                                l4154 110C                                  l4170 1152  
                                l4138 106C                                  l4146 10C2  
                                l4082 0EFA                                  l4074 0EEA  
                                l4066 0EDA                                  l4058 0ECA  
                                l4090 0F0A                                  l4330 2668  
                                l4322 2612                                  l4314 25AE  
                                l4306 257C                                  l4242 23D2  
                                l4250 23FC                                  l4234 23AC  
                                l4226 238C                                  l4218 235A  
                                l4410 187C                                  l4402 184A  
                                l5210 1692                                  l5202 1642  
                                l5130 1442                                  l5114 1344  
                                l5122 13F2                                  l5052 2C34  
                                l5044 45AA                                  l5036 459E  
                                l5028 4592                                  l4500 3F50  
                                l3508 348E                                  l3540 35C0  
                                l3532 3568                                  l3524 3518  
                                l3460 3E80                                  l3452 3E34  
                                l3620 2926                                  l3612 28D8  
                                l3604 284E                                  l3700 2DF2  
                                l4164 113C                                  l4156 1116  
                                l4148 10E8                                  l4172 1160  
                                l4092 0F0E                                  l4084 0EFE  
                                l4076 0EEE                                  l4068 0EDE  
                                l4340 26C6                                  l4332 267E  
                                l4324 2620                                  l4316 25DC  
                                l4308 258E                                  l4260 243E  
                                l4252 240C                                  l4244 23E2  
                                l4236 23B2                                  l4228 238E  
                                l4420 18D2                                  l4412 188C  
                                l4404 1856                                  l5220 16E6  
                                l5212 16A2                                  l5204 167C  
                                l5140 1472                                  l5132 1452  
                                l5116 136E                                  l5124 142C  
                                l5054 2D10                                  l5046 45AC  
                                l5038 45A0                                  l4510 3F8A  
                                l4502 3F58                                  l3550 3628  
                                l3542 35E0                                  l3534 3570  
                                l3526 351C                                  l3518 34E6  
                                l3462 3EB6                                  l3454 3E46  
                                l3470 44B6                                  l3622 2936  
                                l3614 28F6                                  l3606 2854  
                                l3630 3220                                  l3710 2E46  
                                l3702 2E16                                  l4182 11B2  
                                l4190 1208                                  l4174 1164  
                                l4166 1140                                  l4158 1124  
                                l4094 0F38                                  l4086 0F02  
                                l4078 0EF2                                  l4342 26CC  
                                l4334 2698                                  l4326 264A  
                                l4254 2422                                  l4246 23F2  
                                l4238 23C0                                  l4430 1976  
                                l4422 18EE                                  l4414 1898  
                                l4406 1862                                  l5214 16BA  
                                l5206 1680                                  l5142 1474  
                                l5126 1430                                  l5118 139A  
                                l5070 1296                                  l5048 364A  
                                l4520 3FB0                                  l4512 3F92  
                                l4504 3F60                                  l3800 451E  
                                l3480 3390                                  l3544 35F2  
                                l3536 3584                                  l3528 352A  
                                l3456 3E58                                  l3472 44BA  
                                l3560 411E                                  l3616 2910  
                                l3608 285A                                  l3640 324E  
                                l3632 3228                                  l3720 2F04  
                                l3712 2E62                                  l3704 2E24  
                                l4192 1218                                  l4184 11BE  
                                l4176 1172                                  l4168 1150  
                                l4096 0F54                                  l4088 0F06  
                                l4344 26CE                                  l4336 26B4  
                                l4328 264E                                  l4280 24C0  
                                l4272 2476                                  l4256 2432  
                                l4264 2452                                  l4248 23F4  
                                l4440 19CC                                  l4432 1984  
                                l4424 18FA                                  l4416 18A8  
                                l4408 1870                                  l4360 172E  
                                l4352 1702                                  l4600 3910  
                                l5216 16CE                                  l5208 1690  
                                l5160 14F0                                  l5144 147C  
                                l5136 1468                                  l5152 1488  
                                l5128 1440                                  l5080 12B8  
                                l5072 1298                                  l5064 128A  
                                l4522 3FB8                                  l4514 3F94  
                                l4506 3F6E                                  l4530 3FD4  
                                l3810 4554                                  l3802 451E  
                                l3490 33D2                                  l3482 3394  
                                l3474 335E                                  l3538 3592  
                                l3546 35F8                                  l3570 44F6  
                                l3458 3E62                                  l3466 4498  
                                l3562 4132                                  l3554 40F0  
                                l3618 2920                                  l3650 3284  
                                l3642 325E                                  l3634 3232  
                                l3626 31C8                                  l3730 2FAC  
                                l3722 2F20                                  l3714 2E7E  
                                l3706 2E32                                  l4194 1228  
                                l4186 11CC                                  l4178 1188  
                                l4098 0F64                                  l4338 26B8  
                                l4290 2506                                  l4282 24C8  
                                l4274 2490                                  l4266 2462  
                                l4258 243A                                  l4442 19DA  
                                l4434 19A2                                  l4426 1916  
                                l4418 18C2                                  l4370 176A  
                                l4362 173E                                  l4354 170E  
                                l4610 393C                                  l5218 16DA  
                                l5170 1518                                  l5162 14F4  
                                l5154 14C2                                  l5138 146A  
                                l5090 12DE                                  l5082 12C6  
                                l5074 129C                                  l5066 1290  
                                l3572 470C                                  l3820 4614  
                                l4516 3F9A                                  l4508 3F74  
                                l4540 4008                                  l4532 3FDC  
                                l3804 4534                                  l3900 42AE  
                                l3492 33F0                                  l3484 33A2  
                                l3476 3362                                  l3548 3608  
                                l3468 44A4                                  l3564 4136  
                                l3556 40FE                                  l3580 271E  
                                l3660 333C                                  l3652 328A  
                                l3644 326A                                  l3636 3238  
                                l3628 31E4                                  l3724 2F7C  
                                l3732 2FD8                                  l3716 2ED4  
                                l3708 2E36                                  l4700 2A0E  
                                l4196 1248                                  l4188 1206  
                                l4292 2524                                  l4284 24D8  
                                l4276 24A0                                  l4268 2462  
                                l4452 1A44                                  l4460 1A8C  
                                l4444 19DE                                  l4436 19AC  
                                l4428 1940                                  l4380 17A0  
                                l4372 1770                                  l4364 174E  
                                l4356 171C                                  l4620 396C  
                                l5172 1520                                  l5164 14F8  
                                l5148 1482                                  l5156 14C6  
                                l5092 12F4                                  l5084 12D8  
                                l5076 12A0                                  l5068 1294  
                                l3670 456C                                  l3750 4688  
                                l3814 4660                                  l4518 3FA0  
                                l4550 4044                                  l4542 4010  
                                l4534 3FE0                                  l4526 3FC2  
                                l3806 4544                                  l3830 45EC  
                                l3494 33F8                                  l3486 33C2  
                                l3478 3370                                  l3566 4154  
                                l3558 410A                                  l3590 278C  
                                l3582 273E                                  l3574 26DA  
                                l3646 326E                                  l3638 323E  
                                l3654 32E8                                  l3910 4358  
                                l3902 431A                                  l4710 2A90  
                                l4702 2A2C                                  l4198 124C  
                                l4294 2526                                  l4286 24EC  
                                l4278 24B0                                  l4470 1B00  
                                l4462 1AA6                                  l4454 1A50  
                                l4446 19EC                                  l4438 19BA  
                                l4382 17B0                                  l4374 177E  
                                l4366 1754                                  l4358 171E  
                                l4622 397C                                  l4606 3928  
                                l4630 3026                                  l5190 1564  
                                l5166 1508                                  l5158 14D4  
                                l5094 1300                                  l5078 12B4  
                                ?_pad 0011                                  l3672 4570  
                                l3664 455A                                  l3752 4694  
                                l3816 45F0                                  l4552 404A  
                                l4544 4018                                  l4536 3FEE  
                                l4528 3FC6                                  l3760 4466  
                                l3680 46F8                                  l3808 454C  
                                l3824 45C2                                  l3496 340C  
                                l3488 33C6                                  l3568 44DC  
                                l3592 279C                                  l3584 275A  
                                l3576 26FA                                  l3656 3304  
                                l3648 327E                                  l3736 2FEA  
                                l3840 43E4                                  l3904 432C  
                                l4720 2ADA                                  l4712 2AA4  
                                l4704 2A46                                  l3920 0894  
                                l4800 20D8                                  l4296 2536  
                                l4288 24FA                                  l4472 1B0E  
                                l4464 1ABA                                  l4456 1A5E  
                                l4448 1A1A                                  l4392 17FA  
                                l4384 17B6                                  l4376 1780  
                                l4368 1764                                  l4624 398C  
                                l4616 3950                                  l4608 3932  
                                l4640 30A4                                  l4632 3034  
                                l5192 1576                                  l5184 1560  
                                l5168 1510                                  l5176 1528  
                                l5096 1304                                  l3674 4574  
                                l3666 455C                                  l3746 4682  
                                l3850 4180                                  l3690 4656  
                                l4490 3F1C                                  l4482 3EFE  
                                l4546 4026                                  l4554 4050  
                                l4538 3FF6                                  l3770 4486  
                                l3762 4474                                  l3754 4454  
                                l3682 46E4                                  l3498 341A  
                                l3594 27A8                                  l3586 2776  
                                l3578 270E                                  l3658 3322  
                                l3842 4400                                  l3906 4334  
                                l4730 2B78                                  l4722 2AF8  
                                l4714 2AB0                                  l4706 2A58  
                                l3930 09AC                                  l3922 08D6  
                                l3914 0850                                  l4810 2152  
                                l4802 20E8                                  l4298 2548  
                                l4570 3A1A                                  l4562 399E  
                                l4474 1B10                                  l4466 1AD4  
                                l4458 1A88                                  l4394 1806  
                                l4386 17D6                                  l4378 1790  
                                l4618 395C                                  l4650 30F8  
                                l4642 30AC                                  l4634 307A  
                                l5194 158C                                  l5178 155A  
                                l5098 1314                                  l3676 4580  
                                l3668 4560                                  l3748 4684  
                                l3860 41CA                                  l3852 4194  
                                l3684 4640                                  l4492 3F2A  
                                l4484 3F02                                  l4556 4060  
                                l4548 403C                                  l3780 3D9E  
                                l3772 3D5E                                  l3764 4476  
                                l3756 4456                                  l3828 45E6  
                                l3596 27B0                                  l3588 2786  
                                l3836 43BC                                  l3908 433C  
                                l4732 2B8C                                  l4724 2B12  
                                l4716 2ABC                                  l4708 2A76  
                                l3940 0AEE                                  l3932 09C8  
                                l3924 0918                                  l3916 085E  
                                l4820 21CE                                  l4812 216E  
                                l4804 2104                                  l4740 1F4A  
                                l4900 1C56                                  l4580 3A9E  
                                l4572 3A28                                  l4564 39CC  
                                l4468 1AF0                                  l4476 1B16  
                                l4396 1810                                  l4388 17E6  
                                l4660 316E                                  l4652 3134  
                                l4644 30B8                                  l4636 3090  
                                l4628 3016                                  l5196 15B8  
                                l3678 4586                                  l3862 41DA  
                                l3854 419C                                  l3846 416A  
                                l3686 4644                                  l4494 3F32  
                                l4486 3F10                                  l4558 4068  
                                l3790 3DF8                                  l3782 3DA4  
                                l3774 3D70                                  l3766 447A  
                                l3758 445A                                  l3870 40B2  
                                l3598 27BC                                  l3838 43C8  
                                l4734 2B98                                  l4726 2B24  
                                l4718 2AC8                                  l3950 0C7E  
                                l3942 0B50                                  l3934 0A0A  
                                l3918 0878                                  l3926 0984  
                                l4830 2262                                  l4822 21E6  
                                l4814 2186                                  l4806 2120  
                                l4750 1F70                                  l4742 1F56  
                                l4910 1C96                                  l4902 1C5E  
                                l4574 3A3A                                  l4566 39DC  
                                l4478 1B1A                                  l4398 1826  
                                l4590 38C2                                  l4670 31B6  
                                l4662 3172                                  l4654 3140  
                                l4646 30EA                                  l5198 15E6  
                                l3856 41AA                                  l3848 417A  
                                l4680 472A                                  l3696 465C  
                                l3688 4648                                  l4496 3F36  
                                l4488 3F18                                  l3792 3DFE  
                                l3784 3DA8                                  l3776 3D8C  
                                l3768 4484                                  l3864 4072  
                                l3880 438E                                  l3872 436C  
                                l4736 2BA4                                  l4728 2B42  
                                l3960 42D0                                  l3952 0CDE  
                                l3944 0B86                                  l3936 0A4C  
                                l3928 0992                                  l4840 22DA  
                                l4832 227A                                  l4824 21FE  
                                l4816 219E                                  l4808 2138  
                                l4752 1F74                                  l4920 1CFA  
                                l4912 1CAA                                  l4904 1C72  
                                l4576 3A48                                  l4568 3A0A  
                                l4592 38EC                                  l4584 3898  
                                l4664 3196                                  l4656 314E  
                                l4648 30EC                                  l5480 1406  
                                l3970 3B96                                  l4674 46B6  
                                l3858 41B0                                  l4682 4740  
                                l4498 3F3E                                  l3794 3E0A  
                                l3778 3D92                                  l3786 3DCA  
                                l3866 407E                                  l3890 4258  
                                l3882 43A2                                  l3874 4372  
                                l4690 299E                                  l3962 42EC  
                                l3954 0D3E                                  l3946 0BE8  
                                l3938 0AB8                                  l4834 2292  
                                l4818 21B6                                  l4770 1FEA  
                                l4754 1F90                                  l4738 1F36  
                                l5490 1EFE                                  l4930 1D7C  
                                l4922 1D16                                  l4914 1CB2  
                                l4906 1C7A                                  l4578 3A98  
                                l4594 38EE                                  l4586 38AE  
                                l4666 31A6                                  l4658 316C  
                                l5482 149C                                  l3980 3BF4  
                                l3972 3BB6                                  l4676 46BC  
                                l3796 3E10                                  l3788 3DDC  
                                l3868 40AE                                  l3892 425E  
                                l3884 43B6                                  l3876 4378  
                                l4692 29B4                                  l4684 2958  
                                l3964 430A                                  l3956 0D9E  
                                l3948 0C1E                                  l4836 22AA  
                                l5492 222C                                  l4844 22F2  
                                l4828 2216                                  l4780 2048  
                                l4772 1FF8                                  l4764 1FB8  
                                l4756 1FA4                                  l4748 1F5E  
                                l4940 1DF4                                  l4932 1D94  
                                l4924 1D2E                                  l4916 1CCE  
                                l4908 1C8E                                  l4596 38FE  
                                l4668 31B4                                  l5484 153C  
                                l3990 3C34                                  l3982 3C04  
                                l3974 3BBE                                  l4678 471E  
                                l3966 46CE                                  l3798 3E14  
                                l3894 4272                                  l3886 424C  
                                l3878 437E                                  l4694 29C4  
                                l4686 2970                                  l3958 42B4  
                                l5494 2308                                  l4838 22C2  
                                l4790 2084                                  l4782 204C  
                                l4774 2006                                  l4766 1FCA  
                                l4758 1FB0                                  l4950 1E88  
                                l4934 1DAC                                  l4926 1D48  
                                l4918 1CDE                                  l4870 1B86  
                                l4854 1B2C                                  l4598 3902  
                                l5486 1656                                  l3992 3C52  
                                l3984 3C06                                  l3976 3BDC  
                                l3968 46D2                                  l3896 4286  
                                l3888 4252                                  l5496 2FCA  
                                l4696 29E2                                  l4688 2988  
                                l4792 2098                                  l4784 2060  
                                l4776 2022                                  l4768 1FCE  
                                l4952 1EA0                                  l5488 1E22  
                                l4936 1DC4                                  l4960 1EE8  
                                l4928 1D64                                  l4944 1E0C  
                                l4880 1BAE                                  l4872 1B9A  
                                l4864 1B54                                  l4856 1B40  
                                l3994 3C64                                  l3986 3C0E  
                                l3978 3BEE                                  l4970 3C88  
                                l3898 429A                                  l4698 29FC  
                                l4794 20A0                                  l4786 2068  
                                l4778 2040                                  l4954 1EB8  
                                l4946 1E58                                  l4938 1DDC  
                                l4890 1BFC                                  l4882 1BC0  
                                l4874 1BA6                                  l4866 1B66  
                                l4858 1B4C                                  l3996 3C6A  
                                l3988 3C2C                                  l4980 3D58  
                                l4972 3C92                                  l4796 20B4  
                                l4788 207C                                  l4956 1ED0  
                                l4948 1E70                                  l4892 1C18  
                                l4884 1BC4                                  l4868 1B6A  
                                l3998 3C7A                                  l4990 3812  
                                l4982 3786                                  l4974 3C98  
                                l4798 20BC                                  l4894 1C36  
                                l4886 1BE0                                  l4992 3852  
                                l4984 378C                                  l4976 3CD8  
                                l4896 1C3E                                  l4888 1BEE  
                                l4994 3892                                  l4986 3792  
                                l4978 3D18                                  l4898 1C42  
                                l4988 37D2                                  l4996 3AA2  
                                l4998 3AAA                                  STR_1 0846  
                                STR_2 0847                                  STR_3 0812  
                                STR_4 0827                                  STR_5 080C  
                                STR_6 0821                                  STR_7 0801  
                                STR_8 0817                                  STR_9 0807  
                                _BRGH 007D62                                  _CREN 007D5C  
                                u3000 32C2                                  u3010 3304  
                                u3011 3300                                  u3020 3322  
                                u3100 2F20                                  u3021 331E  
                                u3005 32B0                                  u3101 2F1C  
                                u3110 3D70                                  u3030 333C  
                                u3111 3D6C                                  u3031 3338  
                                u3200 467E                                  u3120 3D8C  
                                u3040 470A                                  u4000 237C  
                                u3201 467A                                  u3121 3D88  
                                u3041 4706                                  u4001 2378  
                                u3210 4600                                  u3130 3DC6  
                                u3050 46F6                                  u4010 23C0  
                                u3211 45FC                                  u3131 3DC2  
                                u3051 46F2                                  u4011 23BC  
                                u3060 4656                                  u3220 4610  
                                u3140 3DDC                                  u3300 0878  
                                u4100 255E                                  u4020 23D2  
                                u3061 4652                                  u3221 460C  
                                u3141 3DD8                                  u3301 0874  
                                u4101 255A                                  u4021 23CE  
                                u3150 3DF8                                  u3230 45D2  
                                u3070 2E16                                  u3310 0894  
                                u4110 257C                                  u4030 23E2  
                                u3151 3DF4                                  u3231 45CE  
                                u3071 2E12                                  u3311 0890  
                                u4111 2578                                  u4031 23DE  
                                u3160 3E32                                  u3240 45E2  
                                u3080 2E62                                  u3400 0B50  
                                u3320 08D6                                  u5000 1C8E  
                                u4200 26C6                                  u4120 259C  
                                u4040 2422                                  u3161 3E2E  
                                u3241 45DE                                  u3081 2E5E  
                                u3401 0B4C                                  u3321 08D2  
                                u5001 1C8A                                  u4201 26C2  
                                u4121 2598                                  u4041 241E  
                                u3170 452E                                  u3090 2E7E  
                                u3250 4400                                  u3410 0B86  
                                u3330 0918                                  u5010 1CAA  
                                u4130 25AE                                  u4050 2462  
                                u4210 171C                                  u3171 452A  
                                u3091 2E7A                                  u3251 43FC  
                                u3411 0B82                                  u3331 0914  
                                u5011 1CA6                                  u4131 25AA  
                                u4051 245E                                  u4211 1718  
                                u3500 3BDC                                  u3260 40AA  
                                u3180 4544                                  u2700 44DA  
                                u3420 0BE8                                  u3340 0992  
                                u5020 1CCE                                  u4140 25DC  
                                u4060 24D8                                  u4300 19BA  
                                u4220 172E                                  u3501 3BD8  
                                u3181 4540                                  u2701 44D6  
                                u3421 0BE4                                  u3341 098E  
                                u5021 1CCA                                  u4141 25D8  
                                u4061 24D4                                  u4301 19B6  
                                u4221 172A                                  u3510 3BEE  
                                u3190 4670                                  u3270 40DE  
                                u2710 3370                                  u3430 0C1E  
                                u3350 09AC                                  u5030 1CFA  
                                u4150 25F2                                  u4070 24FA  
                                u4310 19DA                                  u4230 173E  
                                u3511 3BEA                                  u3191 466C  
                                u2711 336C                                  u3431 0C1A  
                                u3351 09A8                                  u5031 1CF6  
                                u4151 25EE                                  u4071 24F6  
                                u4311 19D6                                  u4231 173A  
                                u3520 3C04                                  u4400 3F10  
                                u3280 40EE                                  u2720 33A2  
                                u2800 3568                                  u3440 0C7E  
                                u3360 09C8                                  u5040 1D16  
                                u3600 0DF6                                  u4160 2606  
                                u4080 2524                                  u4320 19EC  
                                u4240 177E                                  u5200 14F0  
                                u5120 12F4                                  u3521 3C00  
                                u4401 3F0C                                  u3281 40EA  
                                u2721 339E                                  u2801 3564  
                                u3441 0C7A                                  u3361 09C4  
                                u5041 1D12                                  u3601 0DF2  
                                u4161 2602                                  u4081 2520  
                                u4321 19E8                                  u4241 177A  
                                u5201 14EC                                  u5121 12F0  
                                u3530 3C2C                                  u4410 3F2A  
                                u2810 3592                                  u3450 0CDE  
                                u3370 0A0A                                  u3290 085E  
                                u5050 1D48                                  u3610 0E06  
                                u4170 2620                                  u4090 2548  
                                u4330 1A1A                                  u4250 1790  
                                u5210 1508                                  u5130 1314  
                                u3531 3C28                                  u4411 3F26  
                                u3267 40A0                                  u2731 33CC  
                                u2811 358E                                  u3451 0CDA  
                                u3371 0A06                                  u3291 085A  
                                u5051 1D44                                  u3611 0E02  
                                u4171 261C                                  u4091 2544  
                                u4331 1A16                                  u4251 178C  
                                u5211 1504                                  u5131 1310  
                                u3540 3C52                                  u4420 3F50  
                                u4500 403C                                  u2740 33F0  
                                u2820 35C0                                  u2660 3E46  
                                u2900 271E                                  u3460 0D3E  
                                u3380 0A4C                                  u5060 1D64  
                                u3700 0F52                                  u3620 0E48  
                                u4180 2668                                  u4340 1A30  
                                u4260 17A0                                  u5220 1576  
                                u5140 132E                                  u3541 3C4E  
                                u4421 3F4C                                  u4501 4038  
                                u3277 40D4                                  u2741 33EC  
                                u2821 35BC                                  u2661 3E42  
                                u2901 271A                                  u3461 0D3A  
                                u3381 0A48                                  u5061 1D60  
                                u3621 0E44                                  u4181 2664  
                                u4341 1A2C                                  u4261 179C  
                                u5221 1572                                  u5141 132A  
                                u3550 3C64                                  u4430 3F6E  
                                u4510 4060                                  u2750 341A  
                                u2830 3608                                  u2670 3E58  
                                u2910 275A                                  u3470 0D9E  
                                u3390 0AEE                                  u3710 0F7A  
                                u3630 0E5E                                  u4190 2698  
                                u4350 1A44                                  u4270 17D6  
                                u5070 3B6E                                  u5230 1588  
                                u5150 1340                                  u3551 3C60  
                                u4431 3F6A                                  u4511 405C  
                                u2751 3416                                  u2831 3604  
                                u2671 3E54                                  u2911 2756  
                                u3471 0D9A                                  u3391 0AEA  
                                u3711 0F76                                  u3631 0E5A  
                                u4191 2694                                  u4351 1A40  
                                u4271 17D2                                  u5071 3B6A  
                                u5231 1584                                  u5151 133C  
                                u3560 3C7A                                  u5080 45BC  
                                u4440 3F8A                                  u2760 345A  
                                u2680 3E80                                  u2840 40FE  
                                u2920 2786                                  u3480 42D0  
                                u3800 10B2                                  u3720 0F98  
                                u3640 0E70                                  u4520 39CC  
                                u4360 1A5E                                  u4280 17E6  
                                u4600 3924                                  u5240 1690  
                                u5160 1440                                  u3561 3C76  
                                u5081 45B8                                  u4441 3F86  
                                u2761 3456                                  u2681 3E7C  
                                u2841 40FA                                  u2921 2782  
                                u3481 42CC                                  u3801 10AE  
                                u3721 0F94                                  u3641 0E6C  
                                u4521 39C8                                  u4361 1A5A  
                                u4281 17E2                                  u4601 3920  
                                u5241 168C                                  u5161 143C  
                                u3490 3BB6                                  u3570 4200  
                                u4450 3FB0                                  u2770 34A4  
                                u2690 3EB6                                  u2850 4154  
                                u2930 279C                                  u3810 10E8  
                                u3730 0FB8                                  u3650 0E80  
                                u4530 3A0A                                  u4370 1AA6  
                                u4290 1960                                  u4610 394C  
                                u5250 16A2                                  u5170 1452  
                                u3491 3BB2                                  u3571 41FC  
                                u4451 3FAC                                  u2771 34A0  
                                u2691 3EB2                                  u2851 4150  
                                u2931 2798                                  u5307 1C02  
                                u3811 10E4                                  u3731 0FB4  
                                u3651 0E7C                                  u4531 3A06  
                                u4371 1AA2                                  u4611 3948  
                                u5251 169E                                  u5171 144E  
                                _PEIE 007F96                                  u3580 423A  
                                u4460 3FD4                                  u2780 34F8  
                                u2860 44F6                                  u2940 28D8  
                                u3900 11B2                                  u3820 10F8  
                                u3740 0FC6                                  u3660 0EBC  
                                u4540 3A28                                  u4380 1AD4  
                                u4620 396C                                  u4700 315E  
                                u5180 1464                                  u3581 4236  
                                u4461 3FD0                                  u2781 34F4  
                                u2861 44F2                                  u2941 28D4  
                                u5317 1FF0                                  u3901 11AE  
                                u3821 10F4                                  u3741 0FC2  
                                u3661 0EB8                                  u4541 3A24  
                                u4381 1AD0                                  u4621 3968  
                                u4701 315A                                  u5181 1460  
                                u2870 471A                                  u4470 3FEE  
                                u2790 352A                                  u2950 28F6  
                                u3910 11CC                                  u3830 1124  
                                u3750 0FD6                                  u3670 0ECA  
                                u3590 0DE4                                  u4550 3A48  
                                u4390 1B0E                                  u4630 397C  
                                u4710 316C                                  u5190 14D4  
                                u5407 4196                                  u2871 4716  
                                u4471 3FEA                                  u2791 3526  
                                u2951 28F2                                  u5327 200C  
                                u3911 11C8                                  u3831 1120  
                                u3751 0FD2                                  u3671 0EC6  
                                u3591 0DE0                                  u4551 3A44  
                                u4391 1B0A                                  u4295 1956  
                                u4631 3978                                  u4711 3168  
                                u5191 14D0                                  u4480 4008  
                                u2960 2910                                  u2880 270A  
                                u4800 1FEA                                  u3920 1206  
                                u3840 1134                                  u3760 1008  
                                u3680 0F38                                  u4560 3A98  
                                u4720 31A6                                  u4640 3026  
                                u5417 41A4                                  u4481 4004  
                                u2961 290C                                  u2881 2704  
                                u5337 087E                                  u4801 1FE6  
                                u3921 1202                                  u3841 1130  
                                u3761 1004                                  u3681 0F34  
                                u4561 3A94                                  u4721 31A2  
                                u4641 3022                                  u4490 4026  
                                u2970 2920                                  u2890 270C  
                                u4810 2006                                  u3930 1218  
                                u3850 1150                                  u3770 1016  
                                u3690 0F50                                  u4570 38AE  
                                u4730 31B4                                  u4650 3034  
                                u5427 41B2                                  u4491 4022  
                                u2971 291C                                  u5347 09B2  
                                u4811 2002                                  u3931 1214  
                                u3851 114C                                  u3771 1012  
                                u3691 0F4A                                  u4571 38AA  
                                u4731 31B0                                  u4651 3030  
                                _RCIE 007CED                                  u2980 31E4  
                                u4740 29C4                                  u4900 2120  
                                u4820 2022                                  u3940 1228  
                                u3860 1160                                  u3780 1034  
                                u4580 38E2                                  u4660 3090  
                                _RCEN 007E2B                                  _RCIF 007CF5  
                                u5437 41D0                                  u2981 31E0  
                                u4741 29C0                                  u5357 4310  
                                u4901 211C                                  u4821 201E  
                                u3941 1224                                  u3861 115C  
                                u3781 1030                                  u4661 308C  
                                u2990 324E                                  u4750 2A0E  
                                u4910 2152                                  u4830 2040  
                                u3950 1248                                  u3870 1172  
                                u3790 106C                                  u4590 3910  
                                u4670 30E6                                  u5447 46C2  
                                u5367 446C                                  u2991 324A  
                                u4751 2A0A                                  u4911 214E  
                                u4831 203C                                  u3951 1244  
                                u3871 116E                                  u3791 1068  
                                u4591 390C                                  u4671 30E2  
                                u5287 14DA                                  u4760 2A58  
                                u4920 216E                                  u4840 2060  
                                u3960 125A                                  u3880 1188  
                                u4680 3130                                  u5457 4588  
                                u5377 448C                                  u4761 2A54  
                                u4921 216A                                  u4841 205C  
                                u5297 1BE6                                  u3961 1256  
                                u3881 1184                                  u4585 38D8  
                                u4681 312C                                  u4770 2ADA  
                                u4850 207C                                  u4930 1B86  
                                u3970 1276                                  u3890 119E  
                                u4690 314E                                  u5387 4170  
                                u4771 2AD6                                  u4851 2078  
                                u4931 1B82                                  u3971 1272  
                                u3891 119A                                  u4691 314A  
                                u4780 2B24                                  u4860 2098  
                                u4940 1BE0                                  u3980 235A  
                                u5397 4186                                  u4781 2B20  
                                u4861 2094                                  u4941 1BDC  
                                u3981 2356                                  u4870 20B4  
                                u4790 1F90                                  u4950 1BFC  
                                u3990 236C                                  u4871 20B0  
                                u4791 1F8C                                  u4951 1BF8  
                                u3991 2368                                  u4880 20D8  
                                u4960 1C18                                  u4881 20D4  
                                u4961 1C14                                  u4890 2104  
                                u4970 1C36                                  u4891 2100  
                                u4971 1C32                                  u4980 1C56  
                                u4981 1C52                                  u4990 1C72  
                                u4991 1C6E                                  _SPEN 007D5F  
                                _RSEN 007E29                                  _TXEN 007D65  
                                _TXIF 007CF4                                  _SYNC 007D64  
                        ?_LCD_goto_xy 0002                                  abs@a 0013  
                                _date 0134                                  _dbuf 0100  
                                _flag 009D                                  _min2 008C  
                                _sec2 0088                                  _main 128A  
                                _dtoa 26DA                                  _mask 0080  
                    __end_of_I2C_Nack 46F8                                  _mins 009E  
                                _secs 00A8                                  _prec 0092  
                    __end_of_I2C_Init 46E4                      __end_of_I2C_Read 4558  
                                _year 0120                                  pad@i 0018  
                                pad@p 0015                                  fsr1h 000FE2  
                                fsr2h 000FDA                                  indf1 000FE7  
                                indf2 000FDF                                  fsr1l 000FE1  
                                pad@w 001A                                  fsr2l 000FD9  
                                btemp 005F                                  _xtoa 31C8  
                    __end_of_I2C_Stop 4680                                  prodh 000FF4  
                                prodl 000FF3                                  start 000E  
                     ___fldiv@new_exp 0039                       __end_of_Compare 2DF2  
                        ___param_bank 000000                                 ??_ISR 0001  
                       ?_LCD_cmd_High 0001                                 ??_abs 0015  
                __end_of_EEPROM_Write 45C0                                 ??_pad 0017  
                     ??_LCD_4bit_mode 0002                      __end_of_LCD_init 4730  
                       ___fltol@sign1 0009                       __end_of___aodiv 34E6  
                     __end_of___fladd 128A                                 ?_main 0001  
                               ?_dtoa 001C                       __end_of___aomod 364A  
                               _ACKEN 007E2C                                 _ACKDT 007E2D  
                     __end_of___fldiv 26DA                       __end_of___awdiv 3FC2  
                               _EEADR 000FA9                                 STR_10 081D  
                               STR_11 084B                                 STR_12 082B  
                               STR_13 083D                                 STR_14 0834  
                               STR_15 083D                       __end_of___awmod 4072  
                     __end_of___flmul 1B2C                       __end_of___fltol 399E  
                     ___awdiv@divisor 0003                                 ?_xtoa 001C  
                               i2l486 46B2                       ___awdiv@counter 0005  
                               _RCREG 000FAE                                 _RCSTA 000FAB  
                        vfpfcnvrt@fmt 0041                                 _SPBRG 000FAF  
                               _PORTB 000F81                                 _PORTD 000F83  
                               _TRISB 000F93                                 _TRISD 000F95  
                               _SSPIF 007CF3                                 _TXREG 000FAD  
                               _TXSTA 000FAC                                 _Check 364A  
                               _Flash 42B4                   ___lmul@multiplicand 0005  
                               _flags 005E                                 _hour2 00B9  
                               _fputc 3E34                                 _fputs 4498  
                               _hours 013E                                 _time1 00BF  
                               _month 012A                     __end_of_I2C_Ready 471E  
                               pad@fp 0011                                 _width 0090  
                               _putch 4752                                 _total 0084  
                               main@i 00F2                                 main@j 00F5  
                               dtoa@d 001E                                 dtoa@i 003C  
                               dtoa@n 0034                                 dtoa@p 0030  
                               dtoa@s 003E                                 dtoa@w 0032  
                   __end_of_I2C_Start 461C                     __end_of_I2C_Write 4660  
                               tablat 000FF5                                 ttemp5 0060  
                               ttemp6 0063                                 ttemp7 0067  
                               status 000FD8                                 wtemp8 0060  
                     __end_of_sprintf 436C                                 xtoa@c 003E  
                               xtoa@d 001E                                 xtoa@i 003C  
                               xtoa@n 0034                                 xtoa@p 0032  
                               xtoa@w 002E                      EEPROM_Write@data 0001  
                         ?_USART_init 0051                       __initialization 440A  
                      ??_LCD_cmd_High 0001                          __end_of_main 1702  
                        __end_of_dtoa 2958                          __end_of_xtoa 335E  
                    ?_Screen_Device_1 0001                      ?_Screen_Device_2 0001  
                           ??_I2C_Ack 0001                     ?_LCD_write_string 0003  
                              ??_main 005C                                ??_dtoa 0026  
                              ??_xtoa 0026                         __activetblptr 000002  
                    __end_of_Set_Time 0DCA                    ??_LCD_write_string 0005  
                           ??_LCD_cmd 0001                                ?_Check 0001  
                              ?_Flash 000B                     __end_of_LCD_clear 46CE  
                   __end_of_LCD_write 4498                                ?_fputc 0001  
                              ?_fputs 000A                                _EEDATA 000FA8  
                              _EECON2 000FA7                      ___awdiv@dividend 0001  
                              ?_putch 0001                           _Destination 009C  
                              i2l5246 469E                                i2l5248 46AC  
                          _Screen_Num 00F7                                _SSPADD 000FC8  
                              _TRISB0 007C98                                _TRISB1 007C99  
                              _TRISC6 007CA6                                _TRISC7 007CA7  
                              _SSPBUF 000FC9                             ??_Compare 0011  
                    __end_of___xxtofl 31C8                         Set_Time@Place 0003  
                              _Action 3B96                                _Place1 009A  
                              _Place2 0098                                _Place3 0096  
                              _Place4 0094                          vfprintf@cfmt 0059  
                              ___flge 399E                                ___lmul 41E2  
                           ??___aodiv 0011                             ??___fladd 0049  
                           ??___aomod 0011                       LCD_goto_xy@i_52 0009  
                           ??___fldiv 0030                             ??___awdiv 0005  
                           ??___awmod 0005                             ??___flmul 0017  
                           ??___fltol 0005                                clear_0 4430  
                              clear_1 443C                      ___awdiv@quotient 0007  
                     ___awmod@divisor 0003                                isa$std 000001  
                     ___awmod@counter 0005                    _I2C_Repeated_Start 45C0  
                              pad@buf 0013                                _total1 0070  
                              _total2 0060                                dtoa@fp 001C  
                              fputc@c 0001                                fputs@c 000E  
                              fputs@i 000F                             ?_I2C_Nack 0001  
                              fputs@s 000A                             ?_I2C_Init 0001  
                           ?_I2C_Read 0001                             ?_I2C_Stop 0001  
                        __mediumconst 0000                                tblptrh 000FF7  
                              tblptrl 000FF6                                tblptru 000FF8  
                 ?_I2C_Repeated_Start 0001                                putch@c 0001  
                    __end_of_vfprintf 440A                             ??_sprintf 005B  
                              xtoa@fp 001C                            ___flge@ff1 0001  
                          ___flge@ff2 0005                          ___xxtofl@arg 000B  
                        ___xxtofl@exp 000A                          ___xxtofl@val 0001  
                          __accesstop 0060               __end_of__initialization 4444  
                           ?_LCD_init 0001                         ___rparam_used 000001  
                          ___fltol@f1 0001                         __end_of_Check 3784  
                ??_I2C_Repeated_Start 0002                         __end_of_Flash 431A  
                      __pcstackCOMRAM 0001                          __pidataBANK0 461C  
                        LCD_goto_xy@i 0007                          LCD_goto_xy@x 0002  
                        LCD_goto_xy@y 0004                         __end_of_fputc 3EFE  
                       __end_of_fputs 44DC                     ?_Screen_Date_Time 0001  
                       __end_of_putch 4754                    ??_Screen_Date_Time 005B  
                          ??_I2C_Nack 0001                            ??_I2C_Init 0001  
                          ??_I2C_Read 0001                               ??_Check 0003  
                          ??_I2C_Stop 0001                               ??_Flash 000F  
                         Set_Time@Num 0001                               ??_fputc 0005  
                             ??_fputs 000E                  __end_of_LCD_cmd_High 469C  
                             ??_putch 0001                          _EEPROM_Write 4590  
                          __pbssBANK0 0060                            __pbssBANK1 0100  
                          ??_LCD_init 0003                               ?_Action 0001  
                           ?_Set_Time 0001                          I2C_Read@flag 0001  
                             ?___flge 0001                        I2C_Read@buffer 0002  
                             ?___lmul 0001                               _I2C_Ack 46F8  
                             _ACKSTAT 007E2E            ?_Active_Receiver_Interrupt 0001  
                      ___lmul@product 0009                               _LCD_cmd 4558  
                           ?___xxtofl 0001                               _SSPCON1 000FC6  
                             _SSPCON2 000FC5                               _SSPSTAT 000FC7  
                             _Compare 2BB2                             _I2C_Ready 470C  
                           _I2C_Start 45EE                             _I2C_Write 463E  
                          ??_Set_Time 0005                               __Hparam 0000  
                             __Lparam 0000                          ??_USART_init 0055  
                             ___aodiv 335E                               ___fladd 0DCA  
                             ___aomod 34E6                               ___fldiv 2340  
                             ___awdiv 3EFE                               ___awmod 3FC2  
                             ___flmul 1702                               ___fltol 3898  
                           ?_vfprintf 0053                          __psmallconst 0800  
                             __pcinit 440A                               __ramtop 0800  
               __end_of_LCD_4bit_mode 41E2     __end_of_Active_Receiver_Interrupt 4752  
                             __ptext0 128A                               __ptext1 3AA2  
                             __ptext2 3014                               __ptext3 3898  
                             __ptext4 1702                               __ptext5 399E  
                             __ptext6 2340                               __ptext7 0DCA  
                             __ptext8 1B2C                               __ptext9 1F36  
                          ??___xxtofl 0005                      ___awmod@dividend 0001  
                             _sprintf 431A                    __end_of_USART_init 3B96  
                      __pintcode_body 469C                             _LCD_clear 46B6  
                end_of_initialization 4444                             _LCD_write 4452  
                       ??_EEPROM_Read 0001                               fputc@fp 0003  
                       __Lmediumconst 0000                               int_func 469C  
                             fputs@fp 000C                            ?_I2C_Ready 0001  
                          ?_I2C_Start 0001                            ?_I2C_Write 0001  
                   __end_of_vfpfcnvrt 3014                             _RCSTAbits 000FAB  
                             postdec1 000FE5                               postdec2 000FDD  
                             postinc0 000FEE                               postinc1 000FE6  
                             postinc2 000FDE                      vfpfcnvrt@convarg 0049  
                          ??_vfprintf 0059                           ___fladd@grs 0050  
                       ?_RTC_Get_Date 0004                         ___xxtofl@sign 0009  
                       ?_RTC_Get_Time 0004                           ___fldiv@grs 003B  
                         ___fldiv@rem 0034                            ?_LCD_clear 0001  
                          ?_LCD_write 0001                           ___flmul@grs 001C  
                       ?_RTC_Set_Date 0009                         ?_RTC_Set_Time 0009  
                     RTC_Get_Date@RTC 0004                        __end_of_Action 3C86  
                 __end_of_EEPROM_Read 4740                          _LCD_cmd_High 4680  
                      __end_of___flge 3AA2                        __end_of___lmul 424C  
                         vfpfcnvrt@ap 0043                           vfpfcnvrt@cp 0051  
                         vfpfcnvrt@fp 003F                            LCD_cmd@cmd 0001  
                      ??_RTC_Get_Date 0006                        USART_init@temp 0055  
                      ??_RTC_Get_Time 0006                   start_initialization 440A  
                     RTC_Get_Time@RTC 0004                           __end_of_ISR 46B6  
                         __end_of_abs 451C                           __end_of_pad 416A  
I2C_Repeated_Start@slave_read_address 0002                         ??_LCD_goto_xy 0006  
                      ??_RTC_Set_Date 000C                           ??_I2C_Ready 0001  
                      ??_RTC_Set_Time 000B                           ??_I2C_Start 0002  
                            ??_Action 0001                           ??_I2C_Write 0001  
                         vfprintf@fmt 0055                              ??___flge 0009  
                            ??___lmul 0009                           __pdataBANK0 00BD  
                            ?_I2C_Ack 0001           ??_Active_Receiver_Interrupt 0001  
                           ___fladd@a 0045                             ___fladd@b 0041  
                           ___fldiv@a 002C                             ___fldiv@b 0028  
                            ?_LCD_cmd 0001                             ___flmul@a 0013  
                           ___flmul@b 000F                           __pbssCOMRAM 005E  
                       __pcstackBANK0 00DF                      ___aodiv@dividend 0001  
                         ??_LCD_clear 0002                   LCD_write_string@str 0003  
                    _LCD_write_string 4072                           ??_LCD_write 0001  
                   ??_Screen_Device_1 0010                     ??_Screen_Device_2 0010  
                         _EEPROM_Read 4730                              ?_Compare 000D  
                           __pnvBANK0 00F7                             _dtoa$1333 002E  
                 __end_of_LCD_goto_xy 3E34                             __pintcode 0008  
                       LCD_write@data 0002                              ?___aodiv 0001  
                            ?___fladd 0041                              ?___aomod 0001  
                            ?___fldiv 0028                              ?___awdiv 0001  
                    ___aodiv@quotient 0013                              ?___awmod 0001  
                            ?___flmul 000F                              ?___fltol 0001  
                         __smallconst 0800                              _I2C_Nack 46E4  
                            _I2C_Init 46CE                              _I2C_Read 451C  
                            _I2C_Stop 4660                     _Push_Buttons_Init 4740  
                  ?_Push_Buttons_Init 0001                              ?_sprintf 00DF  
                            Check@Num 0001             _Active_Receiver_Interrupt 474A  
                 ??_Push_Buttons_Init 0001                              _LCD_init 471E  
                __end_of_RTC_Get_Date 42B4                              _PIR2bits 000FA1  
                            i2u526_40 46AC                              i2u526_41 46A8  
                __end_of_RTC_Get_Time 43BC                      Screen_Device_1@i 0012  
                    Screen_Device_2@i 0012                              Flash@inc 000B  
                   RTC_Set_Date@month 000A                  Screen_Device_1@i_152 0014  
                Screen_Device_2@i_157 0014                             _vfpfcnvrt 2DF2  
                           _xtoa$1343 0030                             main@i_520 00F3  
                           main@i_526 00F4                             main@j_527 00F6  
           __end_of_Push_Buttons_Init 474A                  __end_of_RTC_Set_Date 3898  
                __end_of_RTC_Set_Time 3D5E                       LCD_cmd_High@cmd 0001  
                    _Screen_Date_Time 2958                     ___lmul@multiplier 0001  
                           copy_data0 441E          I2C_Start@slave_write_address 0002  
                         _LCD_goto_xy 3D5E                            _EECON1bits 000FA6  
                            _Set_Time 0850                              __Hrparam 0000  
                          vfprintf@ap 0057                              __Lrparam 0000  
                          vfprintf@fp 0053                         I2C_Write@data 0001  
                          ?_vfpfcnvrt 003F                       ___aodiv@divisor 0009  
                     ___aodiv@counter 0011                            sprintf@fmt 00E1  
                            ___xxtofl 3014                              __ptext10 0850  
                            __ptext11 42B4                              __ptext20 3E34  
                            __ptext12 2958                              __ptext21 4752  
                            __ptext13 431A                              __ptext30 46F8  
                            __ptext22 44DC                              __ptext14 43BC  
                            __ptext31 4072                              __ptext23 34E6  
                            __ptext15 2DF2                              __ptext40 45EE  
                            __ptext32 4452                              __ptext24 335E  
                            __ptext16 31C8                              __ptext41 463E  
                            __ptext33 3D5E                              __ptext25 436C  
                            __ptext17 26DA                              __ptext50 4730  
                            __ptext42 470C                              __ptext34 3C86  
                            __ptext26 424C                              __ptext18 40F0  
                            __ptext51 2BB2                              __ptext43 4740  
                            __ptext35 46CE                              __ptext27 45C0  
                            __ptext19 4498                              __ptext52 41E2  
                            __ptext44 471E                              __ptext36 3784  
                            __ptext28 451C                              __ptext53 3B96  
                            __ptext45 416A                              __ptext37 3FC2  
                            __ptext29 46E4                              __ptext54 364A  
                            __ptext46 4680                              __ptext38 3EFE  
                            __ptext55 474A                              __ptext47 46B6  
                            __ptext39 4660                              __ptext48 4558  
                            __ptext49 4590                         ?_EEPROM_Write 0001  
                 USART_init@baud_rate 0051                      RTC_Set_Date@date 0009  
                            isa$xinst 000000                      RTC_Set_Date@year 000B  
                            int$flags 005F                              _vfprintf 43BC  
            __end_of_LCD_write_string 40F0                      ___aomod@dividend 0001  
                       _LCD_4bit_mode 416A                           Flash@PlaceN 000D  
                     _Screen_Device_1 1F36                       _Screen_Device_2 1B2C  
                          _INTCONbits 000FF2                        ??_EEPROM_Write 0002  
                   LCD_write_string@i 0007                              intlevel2 0000  
                           sprintf@ap 00E5                          ?_EEPROM_Read 0001  
          __end_of_I2C_Repeated_Start 45EE                    EEPROM_Read@address 0001  
                     RTC_Set_Date@day 000E                       ___aomod@divisor 0009  
                         ??_vfpfcnvrt 0045                       ___aomod@counter 0011  
                    RTC_Set_Time@hour 000A                        ?_LCD_4bit_mode 0001  
                            sprintf@f 00E7                              sprintf@s 00DF  
                         Compare@Num1 000D                           Compare@Num2 000F  
                        _RTC_Get_Date 424C                          _RTC_Get_Time 436C  
                         _SSPCON2bits 000FC5                       RTC_Set_Time@min 0009  
                     RTC_Set_Time@sec 000D                         ___fladd@signs 004D  
                        ___aodiv@sign 0012                          ___fladd@aexp 004E  
                        ___fladd@bexp 004F                          _RTC_Set_Date 3784  
                        _RTC_Set_Time 3C86                          ___aomod@sign 0012  
                 EEPROM_Write@address 0002                            _USART_init 3AA2  
